Archive member included to satisfy reference by file (symbol)

../lib/libprinter.a(printer.o)
                              src/main.o (print)
/usr/lib/gcc/x86_64-unknown-linux-gnu/4.9.2/../../../../lib/libc.a(libc-start.o)
                              /usr/lib/gcc/x86_64-unknown-linux-gnu/4.9.2/../../../../lib/crt1.o (__libc_start_main)
/usr/lib/gcc/x86_64-unknown-linux-gnu/4.9.2/../../../../lib/libc.a(check_fds.o)
                              /usr/lib/gcc/x86_64-unknown-linux-gnu/4.9.2/../../../../lib/libc.a(libc-start.o) (__libc_check_standard_fds)
/usr/lib/gcc/x86_64-unknown-linux-gnu/4.9.2/../../../../lib/libc.a(libc-tls.o)
                              /usr/lib/gcc/x86_64-unknown-linux-gnu/4.9.2/../../../../lib/libc.a(libc-start.o) (__pthread_initialize_minimal)
/usr/lib/gcc/x86_64-unknown-linux-gnu/4.9.2/../../../../lib/libc.a(elf-init.o)
                              /usr/lib/gcc/x86_64-unknown-linux-gnu/4.9.2/../../../../lib/crt1.o (__libc_csu_init)
/usr/lib/gcc/x86_64-unknown-linux-gnu/4.9.2/../../../../lib/libc.a(errno.o)
                              /usr/lib/gcc/x86_64-unknown-linux-gnu/4.9.2/../../../../lib/libc.a(check_fds.o) (__libc_errno)
/usr/lib/gcc/x86_64-unknown-linux-gnu/4.9.2/../../../../lib/libc.a(assert.o)
                              /usr/lib/gcc/x86_64-unknown-linux-gnu/4.9.2/../../../../lib/libc.a(libc-start.o) (__assert_fail)
/usr/lib/gcc/x86_64-unknown-linux-gnu/4.9.2/../../../../lib/libc.a(dcgettext.o)
                              /usr/lib/gcc/x86_64-unknown-linux-gnu/4.9.2/../../../../lib/libc.a(assert.o) (__dcgettext)
/usr/lib/gcc/x86_64-unknown-linux-gnu/4.9.2/../../../../lib/libc.a(dcigettext.o)
                              /usr/lib/gcc/x86_64-unknown-linux-gnu/4.9.2/../../../../lib/libc.a(dcgettext.o) (__dcigettext)
/usr/lib/gcc/x86_64-unknown-linux-gnu/4.9.2/../../../../lib/libc.a(finddomain.o)
                              /usr/lib/gcc/x86_64-unknown-linux-gnu/4.9.2/../../../../lib/libc.a(dcigettext.o) (_nl_find_domain)
/usr/lib/gcc/x86_64-unknown-linux-gnu/4.9.2/../../../../lib/libc.a(loadmsgcat.o)
                              /usr/lib/gcc/x86_64-unknown-linux-gnu/4.9.2/../../../../lib/libc.a(dcigettext.o) (_nl_load_domain)
/usr/lib/gcc/x86_64-unknown-linux-gnu/4.9.2/../../../../lib/libc.a(localealias.o)
                              /usr/lib/gcc/x86_64-unknown-linux-gnu/4.9.2/../../../../lib/libc.a(finddomain.o) (_nl_expand_alias)
/usr/lib/gcc/x86_64-unknown-linux-gnu/4.9.2/../../../../lib/libc.a(l10nflist.o)
                              /usr/lib/gcc/x86_64-unknown-linux-gnu/4.9.2/../../../../lib/libc.a(finddomain.o) (_nl_make_l10nflist)
/usr/lib/gcc/x86_64-unknown-linux-gnu/4.9.2/../../../../lib/libc.a(explodename.o)
                              /usr/lib/gcc/x86_64-unknown-linux-gnu/4.9.2/../../../../lib/libc.a(finddomain.o) (_nl_explode_name)
/usr/lib/gcc/x86_64-unknown-linux-gnu/4.9.2/../../../../lib/libc.a(plural.o)
                              /usr/lib/gcc/x86_64-unknown-linux-gnu/4.9.2/../../../../lib/libc.a(loadmsgcat.o) (__gettext_free_exp)
/usr/lib/gcc/x86_64-unknown-linux-gnu/4.9.2/../../../../lib/libc.a(plural-exp.o)
                              /usr/lib/gcc/x86_64-unknown-linux-gnu/4.9.2/../../../../lib/libc.a(loadmsgcat.o) (__gettext_extract_plural)
/usr/lib/gcc/x86_64-unknown-linux-gnu/4.9.2/../../../../lib/libc.a(hash-string.o)
                              /usr/lib/gcc/x86_64-unknown-linux-gnu/4.9.2/../../../../lib/libc.a(dcigettext.o) (__hash_string)
/usr/lib/gcc/x86_64-unknown-linux-gnu/4.9.2/../../../../lib/libc.a(bsd-_setjmp.o)
                              /usr/lib/gcc/x86_64-unknown-linux-gnu/4.9.2/../../../../lib/libc.a(libc-start.o) (_setjmp)
/usr/lib/gcc/x86_64-unknown-linux-gnu/4.9.2/../../../../lib/libc.a(raise.o)
                              /usr/lib/gcc/x86_64-unknown-linux-gnu/4.9.2/../../../../lib/libc.a(dcigettext.o) (raise)
/usr/lib/gcc/x86_64-unknown-linux-gnu/4.9.2/../../../../lib/libc.a(abort.o)
                              /usr/lib/gcc/x86_64-unknown-linux-gnu/4.9.2/../../../../lib/libc.a(assert.o) (abort)
/usr/lib/gcc/x86_64-unknown-linux-gnu/4.9.2/../../../../lib/libc.a(msort.o)
                              /usr/lib/gcc/x86_64-unknown-linux-gnu/4.9.2/../../../../lib/libc.a(localealias.o) (qsort)
/usr/lib/gcc/x86_64-unknown-linux-gnu/4.9.2/../../../../lib/libc.a(getenv.o)
                              /usr/lib/gcc/x86_64-unknown-linux-gnu/4.9.2/../../../../lib/libc.a(dcigettext.o) (getenv)
/usr/lib/gcc/x86_64-unknown-linux-gnu/4.9.2/../../../../lib/libc.a(exit.o)
                              /usr/lib/gcc/x86_64-unknown-linux-gnu/4.9.2/../../../../lib/libc.a(libc-start.o) (exit)
/usr/lib/gcc/x86_64-unknown-linux-gnu/4.9.2/../../../../lib/libc.a(cxa_atexit.o)
                              /usr/lib/gcc/x86_64-unknown-linux-gnu/4.9.2/../../../../lib/libc.a(libc-start.o) (__cxa_atexit)
/usr/lib/gcc/x86_64-unknown-linux-gnu/4.9.2/../../../../lib/libc.a(strtoul.o)
                              /usr/lib/gcc/x86_64-unknown-linux-gnu/4.9.2/../../../../lib/libc.a(plural-exp.o) (strtoul)
/usr/lib/gcc/x86_64-unknown-linux-gnu/4.9.2/../../../../lib/libc.a(strtoul_l.o)
                              /usr/lib/gcc/x86_64-unknown-linux-gnu/4.9.2/../../../../lib/libc.a(strtoul.o) (____strtoul_l_internal)
/usr/lib/gcc/x86_64-unknown-linux-gnu/4.9.2/../../../../lib/libc.a(grouping.o)
                              /usr/lib/gcc/x86_64-unknown-linux-gnu/4.9.2/../../../../lib/libc.a(strtoul_l.o) (__correctly_grouped_prefixmb)
/usr/lib/gcc/x86_64-unknown-linux-gnu/4.9.2/../../../../lib/libc.a(asprintf.o)
                              /usr/lib/gcc/x86_64-unknown-linux-gnu/4.9.2/../../../../lib/libc.a(assert.o) (__asprintf)
/usr/lib/gcc/x86_64-unknown-linux-gnu/4.9.2/../../../../lib/libc.a(fxprintf.o)
                              /usr/lib/gcc/x86_64-unknown-linux-gnu/4.9.2/../../../../lib/libc.a(assert.o) (__fxprintf)
/usr/lib/gcc/x86_64-unknown-linux-gnu/4.9.2/../../../../lib/libc.a(iofclose.o)
                              /usr/lib/gcc/x86_64-unknown-linux-gnu/4.9.2/../../../../lib/libc.a(localealias.o) (_IO_new_fclose)
/usr/lib/gcc/x86_64-unknown-linux-gnu/4.9.2/../../../../lib/libc.a(iofflush.o)
                              /usr/lib/gcc/x86_64-unknown-linux-gnu/4.9.2/../../../../lib/libc.a(assert.o) (_IO_fflush)
/usr/lib/gcc/x86_64-unknown-linux-gnu/4.9.2/../../../../lib/libc.a(iofopen.o)
                              /usr/lib/gcc/x86_64-unknown-linux-gnu/4.9.2/../../../../lib/libc.a(localealias.o) (_IO_new_fopen)
/usr/lib/gcc/x86_64-unknown-linux-gnu/4.9.2/../../../../lib/libc.a(wprintf.o)
                              ../lib/libprinter.a(printer.o) (wprintf)
/usr/lib/gcc/x86_64-unknown-linux-gnu/4.9.2/../../../../lib/libc.a(wfileops.o)
                              /usr/lib/gcc/x86_64-unknown-linux-gnu/4.9.2/../../../../lib/libc.a(iofopen.o) (_IO_wfile_jumps_maybe_mmap)
/usr/lib/gcc/x86_64-unknown-linux-gnu/4.9.2/../../../../lib/libc.a(vasprintf.o)
                              /usr/lib/gcc/x86_64-unknown-linux-gnu/4.9.2/../../../../lib/libc.a(asprintf.o) (_IO_vasprintf)
/usr/lib/gcc/x86_64-unknown-linux-gnu/4.9.2/../../../../lib/libc.a(fcloseall.o)
                              /usr/lib/gcc/x86_64-unknown-linux-gnu/4.9.2/../../../../lib/libc.a(abort.o) (__fcloseall)
/usr/lib/gcc/x86_64-unknown-linux-gnu/4.9.2/../../../../lib/libc.a(libc_fatal.o)
                              /usr/lib/gcc/x86_64-unknown-linux-gnu/4.9.2/../../../../lib/libc.a(libc-start.o) (__libc_fatal)
/usr/lib/gcc/x86_64-unknown-linux-gnu/4.9.2/../../../../lib/libc.a(iofgets_u.o)
                              /usr/lib/gcc/x86_64-unknown-linux-gnu/4.9.2/../../../../lib/libc.a(localealias.o) (__fgets_unlocked)
/usr/lib/gcc/x86_64-unknown-linux-gnu/4.9.2/../../../../lib/libc.a(fileops.o)
                              /usr/lib/gcc/x86_64-unknown-linux-gnu/4.9.2/../../../../lib/libc.a(wfileops.o) (_IO_file_close)
/usr/lib/gcc/x86_64-unknown-linux-gnu/4.9.2/../../../../lib/libc.a(genops.o)
                              /usr/lib/gcc/x86_64-unknown-linux-gnu/4.9.2/../../../../lib/libc.a(iofclose.o) (_IO_un_link)
/usr/lib/gcc/x86_64-unknown-linux-gnu/4.9.2/../../../../lib/libc.a(stdfiles.o)
                              /usr/lib/gcc/x86_64-unknown-linux-gnu/4.9.2/../../../../lib/libc.a(genops.o) (_IO_list_all)
/usr/lib/gcc/x86_64-unknown-linux-gnu/4.9.2/../../../../lib/libc.a(stdio.o)
                              /usr/lib/gcc/x86_64-unknown-linux-gnu/4.9.2/../../../../lib/libc.a(assert.o) (stderr)
/usr/lib/gcc/x86_64-unknown-linux-gnu/4.9.2/../../../../lib/libc.a(strops.o)
                              /usr/lib/gcc/x86_64-unknown-linux-gnu/4.9.2/../../../../lib/libc.a(vasprintf.o) (_IO_str_init_static_internal)
/usr/lib/gcc/x86_64-unknown-linux-gnu/4.9.2/../../../../lib/libc.a(malloc.o)
                              /usr/lib/gcc/x86_64-unknown-linux-gnu/4.9.2/../../../../lib/libc.a(dcigettext.o) (malloc)
/usr/lib/gcc/x86_64-unknown-linux-gnu/4.9.2/../../../../lib/libc.a(morecore.o)
                              /usr/lib/gcc/x86_64-unknown-linux-gnu/4.9.2/../../../../lib/libc.a(malloc.o) (__default_morecore)
/usr/lib/gcc/x86_64-unknown-linux-gnu/4.9.2/../../../../lib/libc.a(strchr.o)
                              /usr/lib/gcc/x86_64-unknown-linux-gnu/4.9.2/../../../../lib/libc.a(dcigettext.o) (strchr)
/usr/lib/gcc/x86_64-unknown-linux-gnu/4.9.2/../../../../lib/libc.a(strcmp.o)
                              /usr/lib/gcc/x86_64-unknown-linux-gnu/4.9.2/../../../../lib/libc.a(dcigettext.o) (strcmp)
/usr/lib/gcc/x86_64-unknown-linux-gnu/4.9.2/../../../../lib/libc.a(strcpy.o)
                              /usr/lib/gcc/x86_64-unknown-linux-gnu/4.9.2/../../../../lib/libc.a(assert.o) (strcpy)
/usr/lib/gcc/x86_64-unknown-linux-gnu/4.9.2/../../../../lib/libc.a(strdup.o)
                              /usr/lib/gcc/x86_64-unknown-linux-gnu/4.9.2/../../../../lib/libc.a(dcigettext.o) (__strdup)
/usr/lib/gcc/x86_64-unknown-linux-gnu/4.9.2/../../../../lib/libc.a(strlen.o)
                              /usr/lib/gcc/x86_64-unknown-linux-gnu/4.9.2/../../../../lib/libc.a(dcigettext.o) (strlen)
/usr/lib/gcc/x86_64-unknown-linux-gnu/4.9.2/../../../../lib/libc.a(strncmp.o)
                              /usr/lib/gcc/x86_64-unknown-linux-gnu/4.9.2/../../../../lib/libc.a(getenv.o) (strncmp)
/usr/lib/gcc/x86_64-unknown-linux-gnu/4.9.2/../../../../lib/libc.a(strstr.o)
                              /usr/lib/gcc/x86_64-unknown-linux-gnu/4.9.2/../../../../lib/libc.a(dcigettext.o) (strstr)
/usr/lib/gcc/x86_64-unknown-linux-gnu/4.9.2/../../../../lib/libc.a(memchr.o)
                              /usr/lib/gcc/x86_64-unknown-linux-gnu/4.9.2/../../../../lib/libc.a(strstr.o) (memchr)
/usr/lib/gcc/x86_64-unknown-linux-gnu/4.9.2/../../../../lib/libc.a(memcmp.o)
                              /usr/lib/gcc/x86_64-unknown-linux-gnu/4.9.2/../../../../lib/libc.a(malloc.o) (memcmp)
/usr/lib/gcc/x86_64-unknown-linux-gnu/4.9.2/../../../../lib/libc.a(memmove.o)
                              /usr/lib/gcc/x86_64-unknown-linux-gnu/4.9.2/../../../../lib/libc.a(wfileops.o) (memmove)
/usr/lib/gcc/x86_64-unknown-linux-gnu/4.9.2/../../../../lib/libc.a(memset.o)
                              /usr/lib/gcc/x86_64-unknown-linux-gnu/4.9.2/../../../../lib/libc.a(strops.o) (memset)
/usr/lib/gcc/x86_64-unknown-linux-gnu/4.9.2/../../../../lib/libc.a(mempcpy.o)
                              /usr/lib/gcc/x86_64-unknown-linux-gnu/4.9.2/../../../../lib/libc.a(dcigettext.o) (__mempcpy)
/usr/lib/gcc/x86_64-unknown-linux-gnu/4.9.2/../../../../lib/libc.a(stpcpy.o)
                              /usr/lib/gcc/x86_64-unknown-linux-gnu/4.9.2/../../../../lib/libc.a(dcigettext.o) (__stpcpy)
/usr/lib/gcc/x86_64-unknown-linux-gnu/4.9.2/../../../../lib/libc.a(strcasecmp_l.o)
                              /usr/lib/gcc/x86_64-unknown-linux-gnu/4.9.2/../../../../lib/libc.a(localealias.o) (__strcasecmp_l)
/usr/lib/gcc/x86_64-unknown-linux-gnu/4.9.2/../../../../lib/libc.a(memcpy.o)
                              /usr/lib/gcc/x86_64-unknown-linux-gnu/4.9.2/../../../../lib/libc.a(libc-tls.o) (memcpy)
/usr/lib/gcc/x86_64-unknown-linux-gnu/4.9.2/../../../../lib/libc.a(wordcopy.o)
                              /usr/lib/gcc/x86_64-unknown-linux-gnu/4.9.2/../../../../lib/libc.a(memmove.o) (_wordcopy_fwd_aligned)
/usr/lib/gcc/x86_64-unknown-linux-gnu/4.9.2/../../../../lib/libc.a(rawmemchr.o)
                              /usr/lib/gcc/x86_64-unknown-linux-gnu/4.9.2/../../../../lib/libc.a(dcigettext.o) (__rawmemchr)
/usr/lib/gcc/x86_64-unknown-linux-gnu/4.9.2/../../../../lib/libc.a(strchrnul.o)
                              /usr/lib/gcc/x86_64-unknown-linux-gnu/4.9.2/../../../../lib/libc.a(libc_fatal.o) (__strchrnul)
/usr/lib/gcc/x86_64-unknown-linux-gnu/4.9.2/../../../../lib/libc.a(strcmp-ssse3.o)
                              /usr/lib/gcc/x86_64-unknown-linux-gnu/4.9.2/../../../../lib/libc.a(strcmp.o) (__strcmp_ssse3)
/usr/lib/gcc/x86_64-unknown-linux-gnu/4.9.2/../../../../lib/libc.a(strcmp-sse2-unaligned.o)
                              /usr/lib/gcc/x86_64-unknown-linux-gnu/4.9.2/../../../../lib/libc.a(strcmp.o) (__strcmp_sse2_unaligned)
/usr/lib/gcc/x86_64-unknown-linux-gnu/4.9.2/../../../../lib/libc.a(memcmp-sse4.o)
                              /usr/lib/gcc/x86_64-unknown-linux-gnu/4.9.2/../../../../lib/libc.a(memcmp.o) (__memcmp_sse4_1)
/usr/lib/gcc/x86_64-unknown-linux-gnu/4.9.2/../../../../lib/libc.a(memmove-ssse3.o)
                              /usr/lib/gcc/x86_64-unknown-linux-gnu/4.9.2/../../../../lib/libc.a(memmove.o) (__memmove_ssse3)
/usr/lib/gcc/x86_64-unknown-linux-gnu/4.9.2/../../../../lib/libc.a(memmove-avx-unaligned.o)
                              /usr/lib/gcc/x86_64-unknown-linux-gnu/4.9.2/../../../../lib/libc.a(memmove.o) (__memmove_avx_unaligned)
/usr/lib/gcc/x86_64-unknown-linux-gnu/4.9.2/../../../../lib/libc.a(memmove-ssse3-back.o)
                              /usr/lib/gcc/x86_64-unknown-linux-gnu/4.9.2/../../../../lib/libc.a(memmove.o) (__memmove_ssse3_back)
/usr/lib/gcc/x86_64-unknown-linux-gnu/4.9.2/../../../../lib/libc.a(strcasecmp_l-ssse3.o)
                              /usr/lib/gcc/x86_64-unknown-linux-gnu/4.9.2/../../../../lib/libc.a(strcasecmp_l.o) (__strcasecmp_ssse3)
/usr/lib/gcc/x86_64-unknown-linux-gnu/4.9.2/../../../../lib/libc.a(strcpy-ssse3.o)
                              /usr/lib/gcc/x86_64-unknown-linux-gnu/4.9.2/../../../../lib/libc.a(strcpy.o) (__strcpy_ssse3)
/usr/lib/gcc/x86_64-unknown-linux-gnu/4.9.2/../../../../lib/libc.a(stpcpy-ssse3.o)
                              /usr/lib/gcc/x86_64-unknown-linux-gnu/4.9.2/../../../../lib/libc.a(stpcpy.o) (__stpcpy_ssse3)
/usr/lib/gcc/x86_64-unknown-linux-gnu/4.9.2/../../../../lib/libc.a(strcpy-sse2-unaligned.o)
                              /usr/lib/gcc/x86_64-unknown-linux-gnu/4.9.2/../../../../lib/libc.a(strcpy.o) (__strcpy_sse2_unaligned)
/usr/lib/gcc/x86_64-unknown-linux-gnu/4.9.2/../../../../lib/libc.a(stpcpy-sse2-unaligned.o)
                              /usr/lib/gcc/x86_64-unknown-linux-gnu/4.9.2/../../../../lib/libc.a(stpcpy.o) (__stpcpy_sse2_unaligned)
/usr/lib/gcc/x86_64-unknown-linux-gnu/4.9.2/../../../../lib/libc.a(strchr-sse2-no-bsf.o)
                              /usr/lib/gcc/x86_64-unknown-linux-gnu/4.9.2/../../../../lib/libc.a(strchr.o) (__strchr_sse2_no_bsf)
/usr/lib/gcc/x86_64-unknown-linux-gnu/4.9.2/../../../../lib/libc.a(memcmp-ssse3.o)
                              /usr/lib/gcc/x86_64-unknown-linux-gnu/4.9.2/../../../../lib/libc.a(memcmp.o) (__memcmp_ssse3)
/usr/lib/gcc/x86_64-unknown-linux-gnu/4.9.2/../../../../lib/libc.a(strstr-sse2-unaligned.o)
                              /usr/lib/gcc/x86_64-unknown-linux-gnu/4.9.2/../../../../lib/libc.a(strstr.o) (__strstr_sse2_unaligned)
/usr/lib/gcc/x86_64-unknown-linux-gnu/4.9.2/../../../../lib/libc.a(memset-avx2.o)
                              /usr/lib/gcc/x86_64-unknown-linux-gnu/4.9.2/../../../../lib/libc.a(memset.o) (__memset_avx2)
/usr/lib/gcc/x86_64-unknown-linux-gnu/4.9.2/../../../../lib/libc.a(cacheinfo.o)
                              /usr/lib/gcc/x86_64-unknown-linux-gnu/4.9.2/../../../../lib/libc.a(memmove-ssse3-back.o) (__x86_data_cache_size)
/usr/lib/gcc/x86_64-unknown-linux-gnu/4.9.2/../../../../lib/libc.a(strcasecmp_l-nonascii.o)
                              /usr/lib/gcc/x86_64-unknown-linux-gnu/4.9.2/../../../../lib/libc.a(strcasecmp_l.o) (__strcasecmp_l_nonascii)
/usr/lib/gcc/x86_64-unknown-linux-gnu/4.9.2/../../../../lib/libc.a(wmempcpy.o)
                              /usr/lib/gcc/x86_64-unknown-linux-gnu/4.9.2/../../../../lib/libc.a(wfileops.o) (__wmempcpy)
/usr/lib/gcc/x86_64-unknown-linux-gnu/4.9.2/../../../../lib/libc.a(wcsmbsload.o)
                              /usr/lib/gcc/x86_64-unknown-linux-gnu/4.9.2/../../../../lib/libc.a(fileops.o) (__wcsmbs_named_conv)
/usr/lib/gcc/x86_64-unknown-linux-gnu/4.9.2/../../../../lib/libc.a(_exit.o)
                              /usr/lib/gcc/x86_64-unknown-linux-gnu/4.9.2/../../../../lib/libc.a(abort.o) (_exit)
/usr/lib/gcc/x86_64-unknown-linux-gnu/4.9.2/../../../../lib/libc.a(sysconf.o)
                              /usr/lib/gcc/x86_64-unknown-linux-gnu/4.9.2/../../../../lib/libc.a(msort.o) (__sysconf)
/usr/lib/gcc/x86_64-unknown-linux-gnu/4.9.2/../../../../lib/libc.a(sched_yield.o)
                              /usr/lib/gcc/x86_64-unknown-linux-gnu/4.9.2/../../../../lib/libc.a(genops.o) (__sched_yield)
/usr/lib/gcc/x86_64-unknown-linux-gnu/4.9.2/../../../../lib/libc.a(get_child_max.o)
                              /usr/lib/gcc/x86_64-unknown-linux-gnu/4.9.2/../../../../lib/libc.a(sysconf.o) (__get_child_max)
/usr/lib/gcc/x86_64-unknown-linux-gnu/4.9.2/../../../../lib/libc.a(environ.o)
                              /usr/lib/gcc/x86_64-unknown-linux-gnu/4.9.2/../../../../lib/libc.a(libc-start.o) (__environ)
/usr/lib/gcc/x86_64-unknown-linux-gnu/4.9.2/../../../../lib/libc.a(xstat.o)
                              /usr/lib/gcc/x86_64-unknown-linux-gnu/4.9.2/../../../../lib/libc.a(sysconf.o) (__xstat64)
/usr/lib/gcc/x86_64-unknown-linux-gnu/4.9.2/../../../../lib/libc.a(fxstat.o)
                              /usr/lib/gcc/x86_64-unknown-linux-gnu/4.9.2/../../../../lib/libc.a(check_fds.o) (__fxstat64)
/usr/lib/gcc/x86_64-unknown-linux-gnu/4.9.2/../../../../lib/libc.a(open.o)
                              /usr/lib/gcc/x86_64-unknown-linux-gnu/4.9.2/../../../../lib/libc.a(check_fds.o) (__open_nocancel)
/usr/lib/gcc/x86_64-unknown-linux-gnu/4.9.2/../../../../lib/libc.a(read.o)
                              /usr/lib/gcc/x86_64-unknown-linux-gnu/4.9.2/../../../../lib/libc.a(loadmsgcat.o) (__read_nocancel)
/usr/lib/gcc/x86_64-unknown-linux-gnu/4.9.2/../../../../lib/libc.a(write.o)
                              /usr/lib/gcc/x86_64-unknown-linux-gnu/4.9.2/../../../../lib/libc.a(assert.o) (__libc_write)
/usr/lib/gcc/x86_64-unknown-linux-gnu/4.9.2/../../../../lib/libc.a(fcntl.o)
                              /usr/lib/gcc/x86_64-unknown-linux-gnu/4.9.2/../../../../lib/libc.a(check_fds.o) (__libc_fcntl)
/usr/lib/gcc/x86_64-unknown-linux-gnu/4.9.2/../../../../lib/libc.a(close.o)
                              /usr/lib/gcc/x86_64-unknown-linux-gnu/4.9.2/../../../../lib/libc.a(fileops.o) (__close_nocancel)
/usr/lib/gcc/x86_64-unknown-linux-gnu/4.9.2/../../../../lib/libc.a(getcwd.o)
                              /usr/lib/gcc/x86_64-unknown-linux-gnu/4.9.2/../../../../lib/libc.a(dcigettext.o) (__getcwd)
/usr/lib/gcc/x86_64-unknown-linux-gnu/4.9.2/../../../../lib/libc.a(getrlimit.o)
                              /usr/lib/gcc/x86_64-unknown-linux-gnu/4.9.2/../../../../lib/libc.a(sysconf.o) (__getrlimit)
/usr/lib/gcc/x86_64-unknown-linux-gnu/4.9.2/../../../../lib/libc.a(sbrk.o)
                              /usr/lib/gcc/x86_64-unknown-linux-gnu/4.9.2/../../../../lib/libc.a(libc-tls.o) (__sbrk)
/usr/lib/gcc/x86_64-unknown-linux-gnu/4.9.2/../../../../lib/libc.a(getpagesize.o)
                              /usr/lib/gcc/x86_64-unknown-linux-gnu/4.9.2/../../../../lib/libc.a(fileops.o) (__getpagesize)
/usr/lib/gcc/x86_64-unknown-linux-gnu/4.9.2/../../../../lib/libc.a(getdtsz.o)
                              /usr/lib/gcc/x86_64-unknown-linux-gnu/4.9.2/../../../../lib/libc.a(sysconf.o) (__getdtablesize)
/usr/lib/gcc/x86_64-unknown-linux-gnu/4.9.2/../../../../lib/libc.a(mmap.o)
                              /usr/lib/gcc/x86_64-unknown-linux-gnu/4.9.2/../../../../lib/libc.a(assert.o) (__mmap)
/usr/lib/gcc/x86_64-unknown-linux-gnu/4.9.2/../../../../lib/libc.a(munmap.o)
                              /usr/lib/gcc/x86_64-unknown-linux-gnu/4.9.2/../../../../lib/libc.a(assert.o) (__munmap)
/usr/lib/gcc/x86_64-unknown-linux-gnu/4.9.2/../../../../lib/libc.a(mprotect.o)
                              /usr/lib/gcc/x86_64-unknown-linux-gnu/4.9.2/../../../../lib/libc.a(malloc.o) (__mprotect)
/usr/lib/gcc/x86_64-unknown-linux-gnu/4.9.2/../../../../lib/libc.a(madvise.o)
                              /usr/lib/gcc/x86_64-unknown-linux-gnu/4.9.2/../../../../lib/libc.a(malloc.o) (__madvise)
/usr/lib/gcc/x86_64-unknown-linux-gnu/4.9.2/../../../../lib/libc.a(tsearch.o)
                              /usr/lib/gcc/x86_64-unknown-linux-gnu/4.9.2/../../../../lib/libc.a(dcigettext.o) (__tsearch)
/usr/lib/gcc/x86_64-unknown-linux-gnu/4.9.2/../../../../lib/libc.a(getsysstats.o)
                              /usr/lib/gcc/x86_64-unknown-linux-gnu/4.9.2/../../../../lib/libc.a(malloc.o) (__get_nprocs)
/usr/lib/gcc/x86_64-unknown-linux-gnu/4.9.2/../../../../lib/libc.a(getclktck.o)
                              /usr/lib/gcc/x86_64-unknown-linux-gnu/4.9.2/../../../../lib/libc.a(sysconf.o) (__getclktck)
/usr/lib/gcc/x86_64-unknown-linux-gnu/4.9.2/../../../../lib/libc.a(init-misc.o)
                              /usr/lib/gcc/x86_64-unknown-linux-gnu/4.9.2/../../../../lib/libc.a(assert.o) (__progname)
/usr/lib/gcc/x86_64-unknown-linux-gnu/4.9.2/../../../../lib/libc.a(llseek.o)
                              /usr/lib/gcc/x86_64-unknown-linux-gnu/4.9.2/../../../../lib/libc.a(fileops.o) (__lseek64)
/usr/lib/gcc/x86_64-unknown-linux-gnu/4.9.2/../../../../lib/libc.a(mremap.o)
                              /usr/lib/gcc/x86_64-unknown-linux-gnu/4.9.2/../../../../lib/libc.a(fileops.o) (__mremap)
/usr/lib/gcc/x86_64-unknown-linux-gnu/4.9.2/../../../../lib/libc.a(alloca_cutoff.o)
                              /usr/lib/gcc/x86_64-unknown-linux-gnu/4.9.2/../../../../lib/libc.a(getsysstats.o) (__libc_alloca_cutoff)
/usr/lib/gcc/x86_64-unknown-linux-gnu/4.9.2/../../../../lib/libc.a(libc-lowlevellock.o)
                              /usr/lib/gcc/x86_64-unknown-linux-gnu/4.9.2/../../../../lib/libc.a(dcigettext.o) (__lll_lock_wait_private)
/usr/lib/gcc/x86_64-unknown-linux-gnu/4.9.2/../../../../lib/libc.a(libc-cancellation.o)
                              /usr/lib/gcc/x86_64-unknown-linux-gnu/4.9.2/../../../../lib/libc.a(open.o) (__libc_enable_asynccancel)
/usr/lib/gcc/x86_64-unknown-linux-gnu/4.9.2/../../../../lib/libc.a(libc_multiple_threads.o)
                              /usr/lib/gcc/x86_64-unknown-linux-gnu/4.9.2/../../../../lib/libc.a(dcigettext.o) (__libc_multiple_threads)
/usr/lib/gcc/x86_64-unknown-linux-gnu/4.9.2/../../../../lib/libc.a(register-atfork.o)
                              /usr/lib/gcc/x86_64-unknown-linux-gnu/4.9.2/../../../../lib/libc.a(malloc.o) (__linkin_atfork)
/usr/lib/gcc/x86_64-unknown-linux-gnu/4.9.2/../../../../lib/libc.a(backtrace.o)
                              /usr/lib/gcc/x86_64-unknown-linux-gnu/4.9.2/../../../../lib/libc.a(libc_fatal.o) (__backtrace)
/usr/lib/gcc/x86_64-unknown-linux-gnu/4.9.2/../../../../lib/libc.a(backtracesymsfd.o)
                              /usr/lib/gcc/x86_64-unknown-linux-gnu/4.9.2/../../../../lib/libc.a(libc_fatal.o) (__backtrace_symbols_fd)
/usr/lib/gcc/x86_64-unknown-linux-gnu/4.9.2/../../../../lib/libc.a(chk_fail.o)
                              /usr/lib/gcc/x86_64-unknown-linux-gnu/4.9.2/../../../../lib/libc.a(memmove-ssse3.o) (__chk_fail)
/usr/lib/gcc/x86_64-unknown-linux-gnu/4.9.2/../../../../lib/libc.a(fortify_fail.o)
                              /usr/lib/gcc/x86_64-unknown-linux-gnu/4.9.2/../../../../lib/libc.a(chk_fail.o) (__fortify_fail)
/usr/lib/gcc/x86_64-unknown-linux-gnu/4.9.2/../../../../lib/libc.a(dl-debug.o)
                              /usr/lib/gcc/x86_64-unknown-linux-gnu/4.9.2/../../../../lib/libc.a(libc-start.o) (_dl_debug_initialize)
/usr/lib/gcc/x86_64-unknown-linux-gnu/4.9.2/../../../../lib/libc.a(dl-support.o)
                              /usr/lib/gcc/x86_64-unknown-linux-gnu/4.9.2/../../../../lib/libc.a(libc-start.o) (_dl_aux_init)
/usr/lib/gcc/x86_64-unknown-linux-gnu/4.9.2/../../../../lib/libc.a(dl-addr.o)
                              /usr/lib/gcc/x86_64-unknown-linux-gnu/4.9.2/../../../../lib/libc.a(backtracesymsfd.o) (_dl_addr)
/usr/lib/gcc/x86_64-unknown-linux-gnu/4.9.2/../../../../lib/libc.a(enbl-secure.o)
                              /usr/lib/gcc/x86_64-unknown-linux-gnu/4.9.2/../../../../lib/libc.a(dl-support.o) (__libc_enable_secure_decided)
/usr/lib/gcc/x86_64-unknown-linux-gnu/4.9.2/../../../../lib/libc.a(dl-sysdep.o)
                              /usr/lib/gcc/x86_64-unknown-linux-gnu/4.9.2/../../../../lib/libc.a(libc-start.o) (_dl_discover_osversion)
/usr/lib/gcc/x86_64-unknown-linux-gnu/4.9.2/../../../../lib/libc.a(init-first.o)
                              /usr/lib/gcc/x86_64-unknown-linux-gnu/4.9.2/../../../../lib/libc.a(libc-start.o) (__libc_init_first)
/usr/lib/gcc/x86_64-unknown-linux-gnu/4.9.2/../../../../lib/libc.a(sysdep.o)
                              /usr/lib/gcc/x86_64-unknown-linux-gnu/4.9.2/../../../../lib/libc.a(sched_yield.o) (__syscall_error)
/usr/lib/gcc/x86_64-unknown-linux-gnu/4.9.2/../../../../lib/libc.a(init-arch.o)
                              /usr/lib/gcc/x86_64-unknown-linux-gnu/4.9.2/../../../../lib/libc.a(strchr.o) (__init_cpu_features)
/usr/lib/gcc/x86_64-unknown-linux-gnu/4.9.2/../../../../lib/libc.a(gconv_open.o)
                              /usr/lib/gcc/x86_64-unknown-linux-gnu/4.9.2/../../../../lib/libc.a(dcigettext.o) (__gconv_open)
/usr/lib/gcc/x86_64-unknown-linux-gnu/4.9.2/../../../../lib/libc.a(gconv.o)
                              /usr/lib/gcc/x86_64-unknown-linux-gnu/4.9.2/../../../../lib/libc.a(dcigettext.o) (__gconv)
/usr/lib/gcc/x86_64-unknown-linux-gnu/4.9.2/../../../../lib/libc.a(gconv_close.o)
                              /usr/lib/gcc/x86_64-unknown-linux-gnu/4.9.2/../../../../lib/libc.a(loadmsgcat.o) (__gconv_close)
/usr/lib/gcc/x86_64-unknown-linux-gnu/4.9.2/../../../../lib/libc.a(gconv_db.o)
                              /usr/lib/gcc/x86_64-unknown-linux-gnu/4.9.2/../../../../lib/libc.a(iofclose.o) (__gconv_release_step)
/usr/lib/gcc/x86_64-unknown-linux-gnu/4.9.2/../../../../lib/libc.a(gconv_conf.o)
                              /usr/lib/gcc/x86_64-unknown-linux-gnu/4.9.2/../../../../lib/libc.a(gconv_db.o) (__gconv_read_conf)
/usr/lib/gcc/x86_64-unknown-linux-gnu/4.9.2/../../../../lib/libc.a(gconv_builtin.o)
                              /usr/lib/gcc/x86_64-unknown-linux-gnu/4.9.2/../../../../lib/libc.a(gconv_db.o) (__gconv_get_builtin_trans)
/usr/lib/gcc/x86_64-unknown-linux-gnu/4.9.2/../../../../lib/libc.a(gconv_simple.o)
                              /usr/lib/gcc/x86_64-unknown-linux-gnu/4.9.2/../../../../lib/libc.a(wcsmbsload.o) (__gconv_btwoc_ascii)
/usr/lib/gcc/x86_64-unknown-linux-gnu/4.9.2/../../../../lib/libc.a(gconv_trans.o)
                              /usr/lib/gcc/x86_64-unknown-linux-gnu/4.9.2/../../../../lib/libc.a(gconv_simple.o) (__gconv_transliterate)
/usr/lib/gcc/x86_64-unknown-linux-gnu/4.9.2/../../../../lib/libc.a(gconv_cache.o)
                              /usr/lib/gcc/x86_64-unknown-linux-gnu/4.9.2/../../../../lib/libc.a(gconv_conf.o) (__gconv_load_cache)
/usr/lib/gcc/x86_64-unknown-linux-gnu/4.9.2/../../../../lib/libc.a(gconv_dl.o)
                              /usr/lib/gcc/x86_64-unknown-linux-gnu/4.9.2/../../../../lib/libc.a(gconv_db.o) (__gconv_find_shlib)
/usr/lib/gcc/x86_64-unknown-linux-gnu/4.9.2/../../../../lib/libc.a(setlocale.o)
                              /usr/lib/gcc/x86_64-unknown-linux-gnu/4.9.2/../../../../lib/libc.a(dcigettext.o) (_nl_category_name_idxs)
/usr/lib/gcc/x86_64-unknown-linux-gnu/4.9.2/../../../../lib/libc.a(findlocale.o)
                              /usr/lib/gcc/x86_64-unknown-linux-gnu/4.9.2/../../../../lib/libc.a(setlocale.o) (_nl_find_locale)
/usr/lib/gcc/x86_64-unknown-linux-gnu/4.9.2/../../../../lib/libc.a(loadlocale.o)
                              /usr/lib/gcc/x86_64-unknown-linux-gnu/4.9.2/../../../../lib/libc.a(findlocale.o) (_nl_load_locale)
/usr/lib/gcc/x86_64-unknown-linux-gnu/4.9.2/../../../../lib/libc.a(loadarchive.o)
                              /usr/lib/gcc/x86_64-unknown-linux-gnu/4.9.2/../../../../lib/libc.a(findlocale.o) (_nl_load_locale_from_archive)
/usr/lib/gcc/x86_64-unknown-linux-gnu/4.9.2/../../../../lib/libc.a(lc-ctype.o)
                              /usr/lib/gcc/x86_64-unknown-linux-gnu/4.9.2/../../../../lib/libc.a(dcigettext.o) (_nl_current_LC_CTYPE)
/usr/lib/gcc/x86_64-unknown-linux-gnu/4.9.2/../../../../lib/libc.a(C-ctype.o)
                              /usr/lib/gcc/x86_64-unknown-linux-gnu/4.9.2/../../../../lib/libc.a(wcsmbsload.o) (_nl_C_LC_CTYPE)
/usr/lib/gcc/x86_64-unknown-linux-gnu/4.9.2/../../../../lib/libc.a(SYS_libc.o)
                              /usr/lib/gcc/x86_64-unknown-linux-gnu/4.9.2/../../../../lib/libc.a(assert.o) (_libc_intl_domainname)
/usr/lib/gcc/x86_64-unknown-linux-gnu/4.9.2/../../../../lib/libc.a(C_name.o)
                              /usr/lib/gcc/x86_64-unknown-linux-gnu/4.9.2/../../../../lib/libc.a(C-ctype.o) (_nl_C_codeset)
/usr/lib/gcc/x86_64-unknown-linux-gnu/4.9.2/../../../../lib/libc.a(xlocale.o)
                              /usr/lib/gcc/x86_64-unknown-linux-gnu/4.9.2/../../../../lib/libc.a(dcigettext.o) (_nl_C_locobj)
/usr/lib/gcc/x86_64-unknown-linux-gnu/4.9.2/../../../../lib/libc.a(localename.o)
                              /usr/lib/gcc/x86_64-unknown-linux-gnu/4.9.2/../../../../lib/libc.a(dcigettext.o) (__current_locale_name)
/usr/lib/gcc/x86_64-unknown-linux-gnu/4.9.2/../../../../lib/libc.a(global-locale.o)
                              /usr/lib/gcc/x86_64-unknown-linux-gnu/4.9.2/../../../../lib/libc.a(strtoul.o) (__libc_tsd_LOCALE)
/usr/lib/gcc/x86_64-unknown-linux-gnu/4.9.2/../../../../lib/libc.a(ctype-info.o)
                              /usr/lib/gcc/x86_64-unknown-linux-gnu/4.9.2/../../../../lib/libc.a(localealias.o) (__libc_tsd_CTYPE_B)
/usr/lib/gcc/x86_64-unknown-linux-gnu/4.9.2/../../../../lib/libc.a(setfpucw.o)
                              /usr/lib/gcc/x86_64-unknown-linux-gnu/4.9.2/../../../../lib/libc.a(init-first.o) (__setfpucw)
/usr/lib/gcc/x86_64-unknown-linux-gnu/4.9.2/../../../../lib/libc.a(fpu_control.o)
                              /usr/lib/gcc/x86_64-unknown-linux-gnu/4.9.2/../../../../lib/libc.a(init-first.o) (__fpu_control)
/usr/lib/gcc/x86_64-unknown-linux-gnu/4.9.2/../../../../lib/libc.a(setjmp.o)
                              /usr/lib/gcc/x86_64-unknown-linux-gnu/4.9.2/../../../../lib/libc.a(bsd-_setjmp.o) (__sigsetjmp)
/usr/lib/gcc/x86_64-unknown-linux-gnu/4.9.2/../../../../lib/libc.a(sigjmp.o)
                              /usr/lib/gcc/x86_64-unknown-linux-gnu/4.9.2/../../../../lib/libc.a(setjmp.o) (__sigjmp_save)
/usr/lib/gcc/x86_64-unknown-linux-gnu/4.9.2/../../../../lib/libc.a(sigaction.o)
                              /usr/lib/gcc/x86_64-unknown-linux-gnu/4.9.2/../../../../lib/libc.a(abort.o) (__sigaction)
/usr/lib/gcc/x86_64-unknown-linux-gnu/4.9.2/../../../../lib/libc.a(sigprocmask.o)
                              /usr/lib/gcc/x86_64-unknown-linux-gnu/4.9.2/../../../../lib/libc.a(abort.o) (__sigprocmask)
/usr/lib/gcc/x86_64-unknown-linux-gnu/4.9.2/../../../../lib/libc.a(qsort.o)
                              /usr/lib/gcc/x86_64-unknown-linux-gnu/4.9.2/../../../../lib/libc.a(msort.o) (_quicksort)
/usr/lib/gcc/x86_64-unknown-linux-gnu/4.9.2/../../../../lib/libc.a(setenv.o)
                              /usr/lib/gcc/x86_64-unknown-linux-gnu/4.9.2/../../../../lib/libc.a(dl-support.o) (__unsetenv)
/usr/lib/gcc/x86_64-unknown-linux-gnu/4.9.2/../../../../lib/libc.a(secure-getenv.o)
                              /usr/lib/gcc/x86_64-unknown-linux-gnu/4.9.2/../../../../lib/libc.a(libc_fatal.o) (__libc_secure_getenv)
/usr/lib/gcc/x86_64-unknown-linux-gnu/4.9.2/../../../../lib/libc.a(strtol.o)
                              /usr/lib/gcc/x86_64-unknown-linux-gnu/4.9.2/../../../../lib/libc.a(malloc.o) (strtol)
/usr/lib/gcc/x86_64-unknown-linux-gnu/4.9.2/../../../../lib/libc.a(strtol_l.o)
                              /usr/lib/gcc/x86_64-unknown-linux-gnu/4.9.2/../../../../lib/libc.a(strtol.o) (____strtol_l_internal)
/usr/lib/gcc/x86_64-unknown-linux-gnu/4.9.2/../../../../lib/libc.a(_itoa.o)
                              /usr/lib/gcc/x86_64-unknown-linux-gnu/4.9.2/../../../../lib/libc.a(malloc.o) (_itoa_word)
/usr/lib/gcc/x86_64-unknown-linux-gnu/4.9.2/../../../../lib/libc.a(itoa-digits.o)
                              /usr/lib/gcc/x86_64-unknown-linux-gnu/4.9.2/../../../../lib/libc.a(_itoa.o) (_itoa_lower_digits)
/usr/lib/gcc/x86_64-unknown-linux-gnu/4.9.2/../../../../lib/libc.a(itoa-udigits.o)
                              /usr/lib/gcc/x86_64-unknown-linux-gnu/4.9.2/../../../../lib/libc.a(_itoa.o) (_itoa_upper_digits)
/usr/lib/gcc/x86_64-unknown-linux-gnu/4.9.2/../../../../lib/libc.a(vfprintf.o)
                              /usr/lib/gcc/x86_64-unknown-linux-gnu/4.9.2/../../../../lib/libc.a(fxprintf.o) (_IO_vfprintf)
/usr/lib/gcc/x86_64-unknown-linux-gnu/4.9.2/../../../../lib/libc.a(printf_fp.o)
                              /usr/lib/gcc/x86_64-unknown-linux-gnu/4.9.2/../../../../lib/libc.a(vfprintf.o) (__printf_fp)
/usr/lib/gcc/x86_64-unknown-linux-gnu/4.9.2/../../../../lib/libc.a(reg-printf.o)
                              /usr/lib/gcc/x86_64-unknown-linux-gnu/4.9.2/../../../../lib/libc.a(vfprintf.o) (__printf_function_table)
/usr/lib/gcc/x86_64-unknown-linux-gnu/4.9.2/../../../../lib/libc.a(printf_fphex.o)
                              /usr/lib/gcc/x86_64-unknown-linux-gnu/4.9.2/../../../../lib/libc.a(vfprintf.o) (__printf_fphex)
/usr/lib/gcc/x86_64-unknown-linux-gnu/4.9.2/../../../../lib/libc.a(reg-modifier.o)
                              /usr/lib/gcc/x86_64-unknown-linux-gnu/4.9.2/../../../../lib/libc.a(vfprintf.o) (__printf_modifier_table)
/usr/lib/gcc/x86_64-unknown-linux-gnu/4.9.2/../../../../lib/libc.a(reg-type.o)
                              /usr/lib/gcc/x86_64-unknown-linux-gnu/4.9.2/../../../../lib/libc.a(vfprintf.o) (__printf_va_arg_table)
/usr/lib/gcc/x86_64-unknown-linux-gnu/4.9.2/../../../../lib/libc.a(fprintf.o)
                              /usr/lib/gcc/x86_64-unknown-linux-gnu/4.9.2/../../../../lib/libc.a(malloc.o) (fprintf)
/usr/lib/gcc/x86_64-unknown-linux-gnu/4.9.2/../../../../lib/libc.a(vfwprintf.o)
                              /usr/lib/gcc/x86_64-unknown-linux-gnu/4.9.2/../../../../lib/libc.a(fxprintf.o) (__vfwprintf)
/usr/lib/gcc/x86_64-unknown-linux-gnu/4.9.2/../../../../lib/libc.a(sscanf.o)
                              /usr/lib/gcc/x86_64-unknown-linux-gnu/4.9.2/../../../../lib/libc.a(getsysstats.o) (sscanf)
/usr/lib/gcc/x86_64-unknown-linux-gnu/4.9.2/../../../../lib/libc.a(funlockfile.o)
                              /usr/lib/gcc/x86_64-unknown-linux-gnu/4.9.2/../../../../lib/libc.a(vfprintf.o) (_IO_funlockfile)
/usr/lib/gcc/x86_64-unknown-linux-gnu/4.9.2/../../../../lib/libc.a(printf-parsemb.o)
                              /usr/lib/gcc/x86_64-unknown-linux-gnu/4.9.2/../../../../lib/libc.a(vfprintf.o) (__parse_one_specmb)
/usr/lib/gcc/x86_64-unknown-linux-gnu/4.9.2/../../../../lib/libc.a(printf-parsewc.o)
                              /usr/lib/gcc/x86_64-unknown-linux-gnu/4.9.2/../../../../lib/libc.a(vfwprintf.o) (__parse_one_specwc)
/usr/lib/gcc/x86_64-unknown-linux-gnu/4.9.2/../../../../lib/libc.a(filedoalloc.o)
                              /usr/lib/gcc/x86_64-unknown-linux-gnu/4.9.2/../../../../lib/libc.a(fileops.o) (_IO_file_doallocate)
/usr/lib/gcc/x86_64-unknown-linux-gnu/4.9.2/../../../../lib/libc.a(iofputs.o)
                              /usr/lib/gcc/x86_64-unknown-linux-gnu/4.9.2/../../../../lib/libc.a(malloc.o) (_IO_fputs)
/usr/lib/gcc/x86_64-unknown-linux-gnu/4.9.2/../../../../lib/libc.a(wfiledoalloc.o)
                              /usr/lib/gcc/x86_64-unknown-linux-gnu/4.9.2/../../../../lib/libc.a(wfileops.o) (_IO_wfile_doallocate)
/usr/lib/gcc/x86_64-unknown-linux-gnu/4.9.2/../../../../lib/libc.a(iofwrite.o)
                              /usr/lib/gcc/x86_64-unknown-linux-gnu/4.9.2/../../../../lib/libc.a(malloc.o) (fwrite)
/usr/lib/gcc/x86_64-unknown-linux-gnu/4.9.2/../../../../lib/libc.a(iogetdelim.o)
                              /usr/lib/gcc/x86_64-unknown-linux-gnu/4.9.2/../../../../lib/libc.a(gconv_conf.o) (_IO_getdelim)
/usr/lib/gcc/x86_64-unknown-linux-gnu/4.9.2/../../../../lib/libc.a(iogetline.o)
                              /usr/lib/gcc/x86_64-unknown-linux-gnu/4.9.2/../../../../lib/libc.a(iofgets_u.o) (_IO_getline)
/usr/lib/gcc/x86_64-unknown-linux-gnu/4.9.2/../../../../lib/libc.a(iopadn.o)
                              /usr/lib/gcc/x86_64-unknown-linux-gnu/4.9.2/../../../../lib/libc.a(vfprintf.o) (_IO_padn)
/usr/lib/gcc/x86_64-unknown-linux-gnu/4.9.2/../../../../lib/libc.a(iovsscanf.o)
                              /usr/lib/gcc/x86_64-unknown-linux-gnu/4.9.2/../../../../lib/libc.a(sscanf.o) (_IO_vsscanf)
/usr/lib/gcc/x86_64-unknown-linux-gnu/4.9.2/../../../../lib/libc.a(iowpadn.o)
                              /usr/lib/gcc/x86_64-unknown-linux-gnu/4.9.2/../../../../lib/libc.a(printf_fp.o) (_IO_wpadn)
/usr/lib/gcc/x86_64-unknown-linux-gnu/4.9.2/../../../../lib/libc.a(wgenops.o)
                              /usr/lib/gcc/x86_64-unknown-linux-gnu/4.9.2/../../../../lib/libc.a(fileops.o) (_IO_wsetb)
/usr/lib/gcc/x86_64-unknown-linux-gnu/4.9.2/../../../../lib/libc.a(iofwide.o)
                              /usr/lib/gcc/x86_64-unknown-linux-gnu/4.9.2/../../../../lib/libc.a(vfwprintf.o) (_IO_fwide)
/usr/lib/gcc/x86_64-unknown-linux-gnu/4.9.2/../../../../lib/libc.a(strndup.o)
                              /usr/lib/gcc/x86_64-unknown-linux-gnu/4.9.2/../../../../lib/libc.a(findlocale.o) (__strndup)
/usr/lib/gcc/x86_64-unknown-linux-gnu/4.9.2/../../../../lib/libc.a(_strerror.o)
                              /usr/lib/gcc/x86_64-unknown-linux-gnu/4.9.2/../../../../lib/libc.a(vfprintf.o) (__strerror_r)
/usr/lib/gcc/x86_64-unknown-linux-gnu/4.9.2/../../../../lib/libc.a(strnlen.o)
                              /usr/lib/gcc/x86_64-unknown-linux-gnu/4.9.2/../../../../lib/libc.a(gconv_conf.o) (__strnlen)
/usr/lib/gcc/x86_64-unknown-linux-gnu/4.9.2/../../../../lib/libc.a(strrchr.o)
                              /usr/lib/gcc/x86_64-unknown-linux-gnu/4.9.2/../../../../lib/libc.a(init-misc.o) (strrchr)
/usr/lib/gcc/x86_64-unknown-linux-gnu/4.9.2/../../../../lib/libc.a(memmem.o)
                              /usr/lib/gcc/x86_64-unknown-linux-gnu/4.9.2/../../../../lib/libc.a(findlocale.o) (__memmem)
/usr/lib/gcc/x86_64-unknown-linux-gnu/4.9.2/../../../../lib/libc.a(argz-ctsep.o)
                              /usr/lib/gcc/x86_64-unknown-linux-gnu/4.9.2/../../../../lib/libc.a(setlocale.o) (__argz_create_sep)
/usr/lib/gcc/x86_64-unknown-linux-gnu/4.9.2/../../../../lib/libc.a(argz-addsep.o)
                              /usr/lib/gcc/x86_64-unknown-linux-gnu/4.9.2/../../../../lib/libc.a(setlocale.o) (__argz_add_sep)
/usr/lib/gcc/x86_64-unknown-linux-gnu/4.9.2/../../../../lib/libc.a(wcslen.o)
                              /usr/lib/gcc/x86_64-unknown-linux-gnu/4.9.2/../../../../lib/libc.a(vfwprintf.o) (__wcslen)
/usr/lib/gcc/x86_64-unknown-linux-gnu/4.9.2/../../../../lib/libc.a(wmemcpy.o)
                              /usr/lib/gcc/x86_64-unknown-linux-gnu/4.9.2/../../../../lib/libc.a(printf_fp.o) (__wmemcpy)
/usr/lib/gcc/x86_64-unknown-linux-gnu/4.9.2/../../../../lib/libc.a(wmemmove.o)
                              /usr/lib/gcc/x86_64-unknown-linux-gnu/4.9.2/../../../../lib/libc.a(printf_fp.o) (__wmemmove)
/usr/lib/gcc/x86_64-unknown-linux-gnu/4.9.2/../../../../lib/libc.a(wmemset.o)
                              /usr/lib/gcc/x86_64-unknown-linux-gnu/4.9.2/../../../../lib/libc.a(printf_fp.o) (__wmemset)
/usr/lib/gcc/x86_64-unknown-linux-gnu/4.9.2/../../../../lib/libc.a(btowc.o)
                              /usr/lib/gcc/x86_64-unknown-linux-gnu/4.9.2/../../../../lib/libc.a(vfwprintf.o) (__btowc)
/usr/lib/gcc/x86_64-unknown-linux-gnu/4.9.2/../../../../lib/libc.a(wcrtomb.o)
                              /usr/lib/gcc/x86_64-unknown-linux-gnu/4.9.2/../../../../lib/libc.a(vfprintf.o) (__wcrtomb)
/usr/lib/gcc/x86_64-unknown-linux-gnu/4.9.2/../../../../lib/libc.a(mbsrtowcs.o)
                              /usr/lib/gcc/x86_64-unknown-linux-gnu/4.9.2/../../../../lib/libc.a(vfwprintf.o) (__mbsrtowcs)
/usr/lib/gcc/x86_64-unknown-linux-gnu/4.9.2/../../../../lib/libc.a(wcsrtombs.o)
                              /usr/lib/gcc/x86_64-unknown-linux-gnu/4.9.2/../../../../lib/libc.a(vfprintf.o) (__wcsrtombs)
/usr/lib/gcc/x86_64-unknown-linux-gnu/4.9.2/../../../../lib/libc.a(wcsnlen.o)
                              /usr/lib/gcc/x86_64-unknown-linux-gnu/4.9.2/../../../../lib/libc.a(vfwprintf.o) (__wcsnlen)
/usr/lib/gcc/x86_64-unknown-linux-gnu/4.9.2/../../../../lib/libc.a(wcschrnul.o)
                              /usr/lib/gcc/x86_64-unknown-linux-gnu/4.9.2/../../../../lib/libc.a(vfwprintf.o) (__wcschrnul)
/usr/lib/gcc/x86_64-unknown-linux-gnu/4.9.2/../../../../lib/libc.a(mbsrtowcs_l.o)
                              /usr/lib/gcc/x86_64-unknown-linux-gnu/4.9.2/../../../../lib/libc.a(mbsrtowcs.o) (__mbsrtowcs_l)
/usr/lib/gcc/x86_64-unknown-linux-gnu/4.9.2/../../../../lib/libc.a(time.o)
                              /usr/lib/gcc/x86_64-unknown-linux-gnu/4.9.2/../../../../lib/libc.a(getsysstats.o) (time)
/usr/lib/gcc/x86_64-unknown-linux-gnu/4.9.2/../../../../lib/libc.a(tzset.o)
                              /usr/lib/gcc/x86_64-unknown-linux-gnu/4.9.2/../../../../lib/libc.a(sysconf.o) (__tzname_max)
/usr/lib/gcc/x86_64-unknown-linux-gnu/4.9.2/../../../../lib/libc.a(tzfile.o)
                              /usr/lib/gcc/x86_64-unknown-linux-gnu/4.9.2/../../../../lib/libc.a(tzset.o) (__tzfile_read)
/usr/lib/gcc/x86_64-unknown-linux-gnu/4.9.2/../../../../lib/libc.a(opendir.o)
                              /usr/lib/gcc/x86_64-unknown-linux-gnu/4.9.2/../../../../lib/libc.a(getsysstats.o) (__opendir)
/usr/lib/gcc/x86_64-unknown-linux-gnu/4.9.2/../../../../lib/libc.a(closedir.o)
                              /usr/lib/gcc/x86_64-unknown-linux-gnu/4.9.2/../../../../lib/libc.a(getcwd.o) (__closedir)
/usr/lib/gcc/x86_64-unknown-linux-gnu/4.9.2/../../../../lib/libc.a(readdir.o)
                              /usr/lib/gcc/x86_64-unknown-linux-gnu/4.9.2/../../../../lib/libc.a(getcwd.o) (__readdir)
/usr/lib/gcc/x86_64-unknown-linux-gnu/4.9.2/../../../../lib/libc.a(rewinddir.o)
                              /usr/lib/gcc/x86_64-unknown-linux-gnu/4.9.2/../../../../lib/libc.a(getcwd.o) (__rewinddir)
/usr/lib/gcc/x86_64-unknown-linux-gnu/4.9.2/../../../../lib/libc.a(getdents.o)
                              /usr/lib/gcc/x86_64-unknown-linux-gnu/4.9.2/../../../../lib/libc.a(readdir.o) (__getdents)
/usr/lib/gcc/x86_64-unknown-linux-gnu/4.9.2/../../../../lib/libc.a(fdopendir.o)
                              /usr/lib/gcc/x86_64-unknown-linux-gnu/4.9.2/../../../../lib/libc.a(getcwd.o) (__fdopendir)
/usr/lib/gcc/x86_64-unknown-linux-gnu/4.9.2/../../../../lib/libc.a(uname.o)
                              /usr/lib/gcc/x86_64-unknown-linux-gnu/4.9.2/../../../../lib/libc.a(dl-sysdep.o) (__uname)
/usr/lib/gcc/x86_64-unknown-linux-gnu/4.9.2/../../../../lib/libc.a(getuid.o)
                              /usr/lib/gcc/x86_64-unknown-linux-gnu/4.9.2/../../../../lib/libc.a(enbl-secure.o) (__getuid)
/usr/lib/gcc/x86_64-unknown-linux-gnu/4.9.2/../../../../lib/libc.a(geteuid.o)
                              /usr/lib/gcc/x86_64-unknown-linux-gnu/4.9.2/../../../../lib/libc.a(enbl-secure.o) (__geteuid)
/usr/lib/gcc/x86_64-unknown-linux-gnu/4.9.2/../../../../lib/libc.a(getgid.o)
                              /usr/lib/gcc/x86_64-unknown-linux-gnu/4.9.2/../../../../lib/libc.a(enbl-secure.o) (__getgid)
/usr/lib/gcc/x86_64-unknown-linux-gnu/4.9.2/../../../../lib/libc.a(getegid.o)
                              /usr/lib/gcc/x86_64-unknown-linux-gnu/4.9.2/../../../../lib/libc.a(enbl-secure.o) (__getegid)
/usr/lib/gcc/x86_64-unknown-linux-gnu/4.9.2/../../../../lib/libc.a(lxstat.o)
                              /usr/lib/gcc/x86_64-unknown-linux-gnu/4.9.2/../../../../lib/libc.a(getcwd.o) (__lxstat64)
/usr/lib/gcc/x86_64-unknown-linux-gnu/4.9.2/../../../../lib/libc.a(fxstatat.o)
                              /usr/lib/gcc/x86_64-unknown-linux-gnu/4.9.2/../../../../lib/libc.a(getcwd.o) (__fxstatat64)
/usr/lib/gcc/x86_64-unknown-linux-gnu/4.9.2/../../../../lib/libc.a(openat.o)
                              /usr/lib/gcc/x86_64-unknown-linux-gnu/4.9.2/../../../../lib/libc.a(opendir.o) (__openat_nocancel)
/usr/lib/gcc/x86_64-unknown-linux-gnu/4.9.2/../../../../lib/libc.a(access.o)
                              /usr/lib/gcc/x86_64-unknown-linux-gnu/4.9.2/../../../../lib/libc.a(dl-support.o) (__access)
/usr/lib/gcc/x86_64-unknown-linux-gnu/4.9.2/../../../../lib/libc.a(isatty.o)
                              /usr/lib/gcc/x86_64-unknown-linux-gnu/4.9.2/../../../../lib/libc.a(filedoalloc.o) (__isatty)
/usr/lib/gcc/x86_64-unknown-linux-gnu/4.9.2/../../../../lib/libc.a(tcgetattr.o)
                              /usr/lib/gcc/x86_64-unknown-linux-gnu/4.9.2/../../../../lib/libc.a(isatty.o) (__tcgetattr)
/usr/lib/gcc/x86_64-unknown-linux-gnu/4.9.2/../../../../lib/libc.a(brk.o)
                              /usr/lib/gcc/x86_64-unknown-linux-gnu/4.9.2/../../../../lib/libc.a(sbrk.o) (__brk)
/usr/lib/gcc/x86_64-unknown-linux-gnu/4.9.2/../../../../lib/libc.a(writev.o)
                              /usr/lib/gcc/x86_64-unknown-linux-gnu/4.9.2/../../../../lib/libc.a(backtracesymsfd.o) (__writev)
/usr/lib/gcc/x86_64-unknown-linux-gnu/4.9.2/../../../../lib/libc.a(wctrans.o)
                              /usr/lib/gcc/x86_64-unknown-linux-gnu/4.9.2/../../../../lib/libc.a(vfprintf.o) (__wctrans)
/usr/lib/gcc/x86_64-unknown-linux-gnu/4.9.2/../../../../lib/libc.a(towctrans.o)
                              /usr/lib/gcc/x86_64-unknown-linux-gnu/4.9.2/../../../../lib/libc.a(vfprintf.o) (__towctrans)
/usr/lib/gcc/x86_64-unknown-linux-gnu/4.9.2/../../../../lib/libc.a(readonly-area.o)
                              /usr/lib/gcc/x86_64-unknown-linux-gnu/4.9.2/../../../../lib/libc.a(vfprintf.o) (__readonly_area)
/usr/lib/gcc/x86_64-unknown-linux-gnu/4.9.2/../../../../lib/libc.a(dl-load.o)
                              /usr/lib/gcc/x86_64-unknown-linux-gnu/4.9.2/../../../../lib/libc.a(dl-support.o) (_dl_init_paths)
/usr/lib/gcc/x86_64-unknown-linux-gnu/4.9.2/../../../../lib/libc.a(dl-lookup.o)
                              /usr/lib/gcc/x86_64-unknown-linux-gnu/4.9.2/../../../../lib/libc.a(dl-support.o) (_dl_setup_hash)
/usr/lib/gcc/x86_64-unknown-linux-gnu/4.9.2/../../../../lib/libc.a(dl-object.o)
                              /usr/lib/gcc/x86_64-unknown-linux-gnu/4.9.2/../../../../lib/libc.a(dl-support.o) (_dl_add_to_namespace_list)
/usr/lib/gcc/x86_64-unknown-linux-gnu/4.9.2/../../../../lib/libc.a(dl-reloc.o)
                              /usr/lib/gcc/x86_64-unknown-linux-gnu/4.9.2/../../../../lib/libc.a(dl-support.o) (_dl_nothread_init_static_tls)
/usr/lib/gcc/x86_64-unknown-linux-gnu/4.9.2/../../../../lib/libc.a(dl-hwcaps.o)
                              /usr/lib/gcc/x86_64-unknown-linux-gnu/4.9.2/../../../../lib/libc.a(dl-load.o) (_dl_important_hwcaps)
/usr/lib/gcc/x86_64-unknown-linux-gnu/4.9.2/../../../../lib/libc.a(dl-error.o)
                              /usr/lib/gcc/x86_64-unknown-linux-gnu/4.9.2/../../../../lib/libc.a(dl-load.o) (_dl_signal_error)
/usr/lib/gcc/x86_64-unknown-linux-gnu/4.9.2/../../../../lib/libc.a(dl-misc.o)
                              /usr/lib/gcc/x86_64-unknown-linux-gnu/4.9.2/../../../../lib/libc.a(dl-support.o) (_dl_debug_printf)
/usr/lib/gcc/x86_64-unknown-linux-gnu/4.9.2/../../../../lib/libc.a(dl-tls.o)
                              /usr/lib/gcc/x86_64-unknown-linux-gnu/4.9.2/../../../../lib/libc.a(dl-load.o) (_dl_next_tls_modid)
/usr/lib/gcc/x86_64-unknown-linux-gnu/4.9.2/../../../../lib/libc.a(dl-origin.o)
                              /usr/lib/gcc/x86_64-unknown-linux-gnu/4.9.2/../../../../lib/libc.a(dl-support.o) (_dl_get_origin)
/usr/lib/gcc/x86_64-unknown-linux-gnu/4.9.2/../../../../lib/libc.a(dl-scope.o)
                              /usr/lib/gcc/x86_64-unknown-linux-gnu/4.9.2/../../../../lib/libc.a(dl-lookup.o) (_dl_scope_free)
/usr/lib/gcc/x86_64-unknown-linux-gnu/4.9.2/../../../../lib/libc.a(dl-execstack.o)
                              /usr/lib/gcc/x86_64-unknown-linux-gnu/4.9.2/../../../../lib/libc.a(dl-support.o) (_dl_make_stack_executable)
/usr/lib/gcc/x86_64-unknown-linux-gnu/4.9.2/../../../../lib/libc.a(dl-open.o)
                              /usr/lib/gcc/x86_64-unknown-linux-gnu/4.9.2/../../../../lib/libc.a(dl-addr.o) (_dl_find_dso_for_object)
/usr/lib/gcc/x86_64-unknown-linux-gnu/4.9.2/../../../../lib/libc.a(dl-close.o)
                              /usr/lib/gcc/x86_64-unknown-linux-gnu/4.9.2/../../../../lib/libc.a(dl-open.o) (_dl_close_worker)
/usr/lib/gcc/x86_64-unknown-linux-gnu/4.9.2/../../../../lib/libc.a(dl-trampoline.o)
                              /usr/lib/gcc/x86_64-unknown-linux-gnu/4.9.2/../../../../lib/libc.a(dl-reloc.o) (_dl_runtime_resolve)
/usr/lib/gcc/x86_64-unknown-linux-gnu/4.9.2/../../../../lib/libc.a(dl-cache.o)
                              /usr/lib/gcc/x86_64-unknown-linux-gnu/4.9.2/../../../../lib/libc.a(dl-load.o) (_dl_load_cache_lookup)
/usr/lib/gcc/x86_64-unknown-linux-gnu/4.9.2/../../../../lib/libc.a(dl-profstub.o)
                              /usr/lib/gcc/x86_64-unknown-linux-gnu/4.9.2/../../../../lib/libc.a(gconv.o) (_dl_mcount_wrapper_check)
/usr/lib/gcc/x86_64-unknown-linux-gnu/4.9.2/../../../../lib/libc.a(dl-libc.o)
                              /usr/lib/gcc/x86_64-unknown-linux-gnu/4.9.2/../../../../lib/libc.a(gconv_dl.o) (__libc_dlsym)
/usr/lib/gcc/x86_64-unknown-linux-gnu/4.9.2/../../../../lib/libc.a(dl-tsd.o)
                              /usr/lib/gcc/x86_64-unknown-linux-gnu/4.9.2/../../../../lib/libc.a(dl-error.o) (_dl_error_catch_tsd)
/usr/lib/gcc/x86_64-unknown-linux-gnu/4.9.2/../../../../lib/libc.a(tlsdesc.o)
                              /usr/lib/gcc/x86_64-unknown-linux-gnu/4.9.2/../../../../lib/libc.a(dl-close.o) (_dl_unmap)
/usr/lib/gcc/x86_64-unknown-linux-gnu/4.9.2/../../../../lib/libc.a(dl-tlsdesc.o)
                              /usr/lib/gcc/x86_64-unknown-linux-gnu/4.9.2/../../../../lib/libc.a(dl-reloc.o) (_dl_tlsdesc_return)
/usr/lib/gcc/x86_64-unknown-linux-gnu/4.9.2/../../../../lib/libc.a(lc-monetary.o)
                              /usr/lib/gcc/x86_64-unknown-linux-gnu/4.9.2/../../../../lib/libc.a(printf_fp.o) (_nl_current_LC_MONETARY)
/usr/lib/gcc/x86_64-unknown-linux-gnu/4.9.2/../../../../lib/libc.a(lc-numeric.o)
                              /usr/lib/gcc/x86_64-unknown-linux-gnu/4.9.2/../../../../lib/libc.a(vfprintf.o) (_nl_current_LC_NUMERIC)
/usr/lib/gcc/x86_64-unknown-linux-gnu/4.9.2/../../../../lib/libc.a(C-messages.o)
                              /usr/lib/gcc/x86_64-unknown-linux-gnu/4.9.2/../../../../lib/libc.a(xlocale.o) (_nl_C_LC_MESSAGES)
/usr/lib/gcc/x86_64-unknown-linux-gnu/4.9.2/../../../../lib/libc.a(C-monetary.o)
                              /usr/lib/gcc/x86_64-unknown-linux-gnu/4.9.2/../../../../lib/libc.a(xlocale.o) (_nl_C_LC_MONETARY)
/usr/lib/gcc/x86_64-unknown-linux-gnu/4.9.2/../../../../lib/libc.a(C-numeric.o)
                              /usr/lib/gcc/x86_64-unknown-linux-gnu/4.9.2/../../../../lib/libc.a(xlocale.o) (_nl_C_LC_NUMERIC)
/usr/lib/gcc/x86_64-unknown-linux-gnu/4.9.2/../../../../lib/libc.a(C-time.o)
                              /usr/lib/gcc/x86_64-unknown-linux-gnu/4.9.2/../../../../lib/libc.a(xlocale.o) (_nl_C_LC_TIME)
/usr/lib/gcc/x86_64-unknown-linux-gnu/4.9.2/../../../../lib/libc.a(C-paper.o)
                              /usr/lib/gcc/x86_64-unknown-linux-gnu/4.9.2/../../../../lib/libc.a(xlocale.o) (_nl_C_LC_PAPER)
/usr/lib/gcc/x86_64-unknown-linux-gnu/4.9.2/../../../../lib/libc.a(C-name.o)
                              /usr/lib/gcc/x86_64-unknown-linux-gnu/4.9.2/../../../../lib/libc.a(xlocale.o) (_nl_C_LC_NAME)
/usr/lib/gcc/x86_64-unknown-linux-gnu/4.9.2/../../../../lib/libc.a(C-address.o)
                              /usr/lib/gcc/x86_64-unknown-linux-gnu/4.9.2/../../../../lib/libc.a(xlocale.o) (_nl_C_LC_ADDRESS)
/usr/lib/gcc/x86_64-unknown-linux-gnu/4.9.2/../../../../lib/libc.a(C-telephone.o)
                              /usr/lib/gcc/x86_64-unknown-linux-gnu/4.9.2/../../../../lib/libc.a(xlocale.o) (_nl_C_LC_TELEPHONE)
/usr/lib/gcc/x86_64-unknown-linux-gnu/4.9.2/../../../../lib/libc.a(C-measurement.o)
                              /usr/lib/gcc/x86_64-unknown-linux-gnu/4.9.2/../../../../lib/libc.a(xlocale.o) (_nl_C_LC_MEASUREMENT)
/usr/lib/gcc/x86_64-unknown-linux-gnu/4.9.2/../../../../lib/libc.a(C-identification.o)
                              /usr/lib/gcc/x86_64-unknown-linux-gnu/4.9.2/../../../../lib/libc.a(xlocale.o) (_nl_C_LC_IDENTIFICATION)
/usr/lib/gcc/x86_64-unknown-linux-gnu/4.9.2/../../../../lib/libc.a(C-collate.o)
                              /usr/lib/gcc/x86_64-unknown-linux-gnu/4.9.2/../../../../lib/libc.a(xlocale.o) (_nl_C_LC_COLLATE)
/usr/lib/gcc/x86_64-unknown-linux-gnu/4.9.2/../../../../lib/libc.a(s_isinf.o)
                              /usr/lib/gcc/x86_64-unknown-linux-gnu/4.9.2/../../../../lib/libc.a(printf_fp.o) (__isinf)
/usr/lib/gcc/x86_64-unknown-linux-gnu/4.9.2/../../../../lib/libc.a(s_isnan.o)
                              /usr/lib/gcc/x86_64-unknown-linux-gnu/4.9.2/../../../../lib/libc.a(printf_fp.o) (__isnan)
/usr/lib/gcc/x86_64-unknown-linux-gnu/4.9.2/../../../../lib/libc.a(s_isinfl.o)
                              /usr/lib/gcc/x86_64-unknown-linux-gnu/4.9.2/../../../../lib/libc.a(printf_fp.o) (__isinfl)
/usr/lib/gcc/x86_64-unknown-linux-gnu/4.9.2/../../../../lib/libc.a(s_isnanl.o)
                              /usr/lib/gcc/x86_64-unknown-linux-gnu/4.9.2/../../../../lib/libc.a(printf_fp.o) (__isnanl)
/usr/lib/gcc/x86_64-unknown-linux-gnu/4.9.2/../../../../lib/libc.a(__longjmp.o)
                              /usr/lib/gcc/x86_64-unknown-linux-gnu/4.9.2/../../../../lib/libc.a(dl-error.o) (__longjmp)
/usr/lib/gcc/x86_64-unknown-linux-gnu/4.9.2/../../../../lib/libc.a(cmp.o)
                              /usr/lib/gcc/x86_64-unknown-linux-gnu/4.9.2/../../../../lib/libc.a(printf_fp.o) (__mpn_cmp)
/usr/lib/gcc/x86_64-unknown-linux-gnu/4.9.2/../../../../lib/libc.a(divrem.o)
                              /usr/lib/gcc/x86_64-unknown-linux-gnu/4.9.2/../../../../lib/libc.a(printf_fp.o) (__mpn_divrem)
/usr/lib/gcc/x86_64-unknown-linux-gnu/4.9.2/../../../../lib/libc.a(lshift.o)
                              /usr/lib/gcc/x86_64-unknown-linux-gnu/4.9.2/../../../../lib/libc.a(printf_fp.o) (__mpn_lshift)
/usr/lib/gcc/x86_64-unknown-linux-gnu/4.9.2/../../../../lib/libc.a(rshift.o)
                              /usr/lib/gcc/x86_64-unknown-linux-gnu/4.9.2/../../../../lib/libc.a(printf_fp.o) (__mpn_rshift)
/usr/lib/gcc/x86_64-unknown-linux-gnu/4.9.2/../../../../lib/libc.a(mul.o)
                              /usr/lib/gcc/x86_64-unknown-linux-gnu/4.9.2/../../../../lib/libc.a(printf_fp.o) (__mpn_mul)
/usr/lib/gcc/x86_64-unknown-linux-gnu/4.9.2/../../../../lib/libc.a(mul_1.o)
                              /usr/lib/gcc/x86_64-unknown-linux-gnu/4.9.2/../../../../lib/libc.a(printf_fp.o) (__mpn_mul_1)
/usr/lib/gcc/x86_64-unknown-linux-gnu/4.9.2/../../../../lib/libc.a(mul_n.o)
                              /usr/lib/gcc/x86_64-unknown-linux-gnu/4.9.2/../../../../lib/libc.a(mul.o) (__mpn_impn_mul_n)
/usr/lib/gcc/x86_64-unknown-linux-gnu/4.9.2/../../../../lib/libc.a(sub_n.o)
                              /usr/lib/gcc/x86_64-unknown-linux-gnu/4.9.2/../../../../lib/libc.a(divrem.o) (__mpn_sub_n)
/usr/lib/gcc/x86_64-unknown-linux-gnu/4.9.2/../../../../lib/libc.a(submul_1.o)
                              /usr/lib/gcc/x86_64-unknown-linux-gnu/4.9.2/../../../../lib/libc.a(divrem.o) (__mpn_submul_1)
/usr/lib/gcc/x86_64-unknown-linux-gnu/4.9.2/../../../../lib/libc.a(dbl2mpn.o)
                              /usr/lib/gcc/x86_64-unknown-linux-gnu/4.9.2/../../../../lib/libc.a(printf_fp.o) (__mpn_extract_double)
/usr/lib/gcc/x86_64-unknown-linux-gnu/4.9.2/../../../../lib/libc.a(ldbl2mpn.o)
                              /usr/lib/gcc/x86_64-unknown-linux-gnu/4.9.2/../../../../lib/libc.a(printf_fp.o) (__mpn_extract_long_double)
/usr/lib/gcc/x86_64-unknown-linux-gnu/4.9.2/../../../../lib/libc.a(fpioconst.o)
                              /usr/lib/gcc/x86_64-unknown-linux-gnu/4.9.2/../../../../lib/libc.a(printf_fp.o) (_fpioconst_pow10)
/usr/lib/gcc/x86_64-unknown-linux-gnu/4.9.2/../../../../lib/libc.a(itowa-digits.o)
                              /usr/lib/gcc/x86_64-unknown-linux-gnu/4.9.2/../../../../lib/libc.a(printf_fphex.o) (_itowa_upper_digits)
/usr/lib/gcc/x86_64-unknown-linux-gnu/4.9.2/../../../../lib/libc.a(vfscanf.o)
                              /usr/lib/gcc/x86_64-unknown-linux-gnu/4.9.2/../../../../lib/libc.a(iovsscanf.o) (_IO_vfscanf)
/usr/lib/gcc/x86_64-unknown-linux-gnu/4.9.2/../../../../lib/libc.a(errlist.o)
                              /usr/lib/gcc/x86_64-unknown-linux-gnu/4.9.2/../../../../lib/libc.a(_strerror.o) (_sys_errlist_internal)
/usr/lib/gcc/x86_64-unknown-linux-gnu/4.9.2/../../../../lib/libc.a(fileno.o)
                              /usr/lib/gcc/x86_64-unknown-linux-gnu/4.9.2/../../../../lib/libc.a(tzfile.o) (__fileno)
/usr/lib/gcc/x86_64-unknown-linux-gnu/4.9.2/../../../../lib/libc.a(fseek.o)
                              /usr/lib/gcc/x86_64-unknown-linux-gnu/4.9.2/../../../../lib/libc.a(tzfile.o) (fseek)
/usr/lib/gcc/x86_64-unknown-linux-gnu/4.9.2/../../../../lib/libc.a(ftello.o)
                              /usr/lib/gcc/x86_64-unknown-linux-gnu/4.9.2/../../../../lib/libc.a(tzfile.o) (__ftello)
/usr/lib/gcc/x86_64-unknown-linux-gnu/4.9.2/../../../../lib/libc.a(iofread_u.o)
                              /usr/lib/gcc/x86_64-unknown-linux-gnu/4.9.2/../../../../lib/libc.a(tzfile.o) (__fread_unlocked)
/usr/lib/gcc/x86_64-unknown-linux-gnu/4.9.2/../../../../lib/libc.a(sdlerror.o)
                              /usr/lib/gcc/x86_64-unknown-linux-gnu/4.9.2/../../../../lib/libc.a(dl-libc.o) (__libc_register_dlfcn_hook)
/usr/lib/gcc/x86_64-unknown-linux-gnu/4.9.2/../../../../lib/libc.a(sdladdr.o)
                              /usr/lib/gcc/x86_64-unknown-linux-gnu/4.9.2/../../../../lib/libc.a(sdlerror.o) (__dladdr)
/usr/lib/gcc/x86_64-unknown-linux-gnu/4.9.2/../../../../lib/libc.a(sdladdr1.o)
                              /usr/lib/gcc/x86_64-unknown-linux-gnu/4.9.2/../../../../lib/libc.a(sdlerror.o) (__dladdr1)
/usr/lib/gcc/x86_64-unknown-linux-gnu/4.9.2/../../../../lib/libc.a(sdlinfo.o)
                              /usr/lib/gcc/x86_64-unknown-linux-gnu/4.9.2/../../../../lib/libc.a(sdlerror.o) (__dlinfo)
/usr/lib/gcc/x86_64-unknown-linux-gnu/4.9.2/../../../../lib/libc.a(sdlmopen.o)
                              /usr/lib/gcc/x86_64-unknown-linux-gnu/4.9.2/../../../../lib/libc.a(sdlerror.o) (__dlmopen)
/usr/lib/gcc/x86_64-unknown-linux-gnu/4.9.2/../../../../lib/libc.a(strerror.o)
                              /usr/lib/gcc/x86_64-unknown-linux-gnu/4.9.2/../../../../lib/libc.a(sdlerror.o) (strerror)
/usr/lib/gcc/x86_64-unknown-linux-gnu/4.9.2/../../../../lib/libc.a(strsep.o)
                              /usr/lib/gcc/x86_64-unknown-linux-gnu/4.9.2/../../../../lib/libc.a(dl-load.o) (__strsep_g)
/usr/lib/gcc/x86_64-unknown-linux-gnu/4.9.2/../../../../lib/libc.a(mbrlen.o)
                              /usr/lib/gcc/x86_64-unknown-linux-gnu/4.9.2/../../../../lib/libc.a(vfscanf.o) (__mbrlen)
/usr/lib/gcc/x86_64-unknown-linux-gnu/4.9.2/../../../../lib/libc.a(mbrtowc.o)
                              /usr/lib/gcc/x86_64-unknown-linux-gnu/4.9.2/../../../../lib/libc.a(vfscanf.o) (__mbrtowc)
/usr/lib/gcc/x86_64-unknown-linux-gnu/4.9.2/../../../../lib/libc.a(offtime.o)
                              /usr/lib/gcc/x86_64-unknown-linux-gnu/4.9.2/../../../../lib/libc.a(tzset.o) (__offtime)
/usr/lib/gcc/x86_64-unknown-linux-gnu/4.9.2/../../../../lib/libc.a(localtime.o)
                              /usr/lib/gcc/x86_64-unknown-linux-gnu/4.9.2/../../../../lib/libc.a(tzset.o) (_tmbuf)
/usr/lib/gcc/x86_64-unknown-linux-gnu/4.9.2/../../../../lib/libc.a(mktime.o)
                              /usr/lib/gcc/x86_64-unknown-linux-gnu/4.9.2/../../../../lib/libc.a(tzset.o) (__mon_yday)
/usr/lib/gcc/x86_64-unknown-linux-gnu/4.9.2/../../../../lib/libc.a(getpid.o)
                              /usr/lib/gcc/x86_64-unknown-linux-gnu/4.9.2/../../../../lib/libc.a(dl-misc.o) (__getpid)
/usr/lib/gcc/x86_64-unknown-linux-gnu/4.9.2/../../../../lib/libc.a(dl-deps.o)
                              /usr/lib/gcc/x86_64-unknown-linux-gnu/4.9.2/../../../../lib/libc.a(dl-open.o) (_dl_map_object_deps)
/usr/lib/gcc/x86_64-unknown-linux-gnu/4.9.2/../../../../lib/libc.a(dl-runtime.o)
                              /usr/lib/gcc/x86_64-unknown-linux-gnu/4.9.2/../../../../lib/libc.a(dl-trampoline.o) (_dl_fixup)
/usr/lib/gcc/x86_64-unknown-linux-gnu/4.9.2/../../../../lib/libc.a(dl-init.o)
                              /usr/lib/gcc/x86_64-unknown-linux-gnu/4.9.2/../../../../lib/libc.a(dl-open.o) (_dl_init)
/usr/lib/gcc/x86_64-unknown-linux-gnu/4.9.2/../../../../lib/libc.a(dl-fini.o)
                              /usr/lib/gcc/x86_64-unknown-linux-gnu/4.9.2/../../../../lib/libc.a(dl-close.o) (_dl_sort_fini)
/usr/lib/gcc/x86_64-unknown-linux-gnu/4.9.2/../../../../lib/libc.a(dl-version.o)
                              /usr/lib/gcc/x86_64-unknown-linux-gnu/4.9.2/../../../../lib/libc.a(dl-open.o) (_dl_check_map_versions)
/usr/lib/gcc/x86_64-unknown-linux-gnu/4.9.2/../../../../lib/libc.a(dl-profile.o)
                              /usr/lib/gcc/x86_64-unknown-linux-gnu/4.9.2/../../../../lib/libc.a(dl-profstub.o) (_dl_mcount)
/usr/lib/gcc/x86_64-unknown-linux-gnu/4.9.2/../../../../lib/libc.a(strtof.o)
                              /usr/lib/gcc/x86_64-unknown-linux-gnu/4.9.2/../../../../lib/libc.a(vfscanf.o) (__strtof_internal)
/usr/lib/gcc/x86_64-unknown-linux-gnu/4.9.2/../../../../lib/libc.a(strtod.o)
                              /usr/lib/gcc/x86_64-unknown-linux-gnu/4.9.2/../../../../lib/libc.a(vfscanf.o) (__strtod_internal)
/usr/lib/gcc/x86_64-unknown-linux-gnu/4.9.2/../../../../lib/libc.a(strtold.o)
                              /usr/lib/gcc/x86_64-unknown-linux-gnu/4.9.2/../../../../lib/libc.a(vfscanf.o) (__strtold_internal)
/usr/lib/gcc/x86_64-unknown-linux-gnu/4.9.2/../../../../lib/libc.a(strtof_l.o)
                              /usr/lib/gcc/x86_64-unknown-linux-gnu/4.9.2/../../../../lib/libc.a(strtof.o) (____strtof_l_internal)
/usr/lib/gcc/x86_64-unknown-linux-gnu/4.9.2/../../../../lib/libc.a(strtod_l.o)
                              /usr/lib/gcc/x86_64-unknown-linux-gnu/4.9.2/../../../../lib/libc.a(strtod.o) (____strtod_l_internal)
/usr/lib/gcc/x86_64-unknown-linux-gnu/4.9.2/../../../../lib/libc.a(strtold_l.o)
                              /usr/lib/gcc/x86_64-unknown-linux-gnu/4.9.2/../../../../lib/libc.a(strtold.o) (____strtold_l_internal)
/usr/lib/gcc/x86_64-unknown-linux-gnu/4.9.2/../../../../lib/libc.a(add_n.o)
                              /usr/lib/gcc/x86_64-unknown-linux-gnu/4.9.2/../../../../lib/libc.a(divrem.o) (__mpn_add_n)
/usr/lib/gcc/x86_64-unknown-linux-gnu/4.9.2/../../../../lib/libc.a(addmul_1.o)
                              /usr/lib/gcc/x86_64-unknown-linux-gnu/4.9.2/../../../../lib/libc.a(mul.o) (__mpn_addmul_1)
/usr/lib/gcc/x86_64-unknown-linux-gnu/4.9.2/../../../../lib/libc.a(mpn2flt.o)
                              /usr/lib/gcc/x86_64-unknown-linux-gnu/4.9.2/../../../../lib/libc.a(strtof_l.o) (__mpn_construct_float)
/usr/lib/gcc/x86_64-unknown-linux-gnu/4.9.2/../../../../lib/libc.a(mpn2dbl.o)
                              /usr/lib/gcc/x86_64-unknown-linux-gnu/4.9.2/../../../../lib/libc.a(strtod_l.o) (__mpn_construct_double)
/usr/lib/gcc/x86_64-unknown-linux-gnu/4.9.2/../../../../lib/libc.a(mpn2ldbl.o)
                              /usr/lib/gcc/x86_64-unknown-linux-gnu/4.9.2/../../../../lib/libc.a(strtold_l.o) (__mpn_construct_long_double)
/usr/lib/gcc/x86_64-unknown-linux-gnu/4.9.2/../../../../lib/libc.a(tens_in_limb.o)
                              /usr/lib/gcc/x86_64-unknown-linux-gnu/4.9.2/../../../../lib/libc.a(strtof_l.o) (_tens_in_limb)
/usr/lib/gcc/x86_64-unknown-linux-gnu/4.9.2/../../../../lib/libc.a(ioseekoff.o)
                              /usr/lib/gcc/x86_64-unknown-linux-gnu/4.9.2/../../../../lib/libc.a(fseek.o) (_IO_seekoff_unlocked)
/usr/lib/gcc/x86_64-unknown-linux-gnu/4.9.2/../../../../lib/libc.a(sdlopen.o)
                              /usr/lib/gcc/x86_64-unknown-linux-gnu/4.9.2/../../../../lib/libc.a(sdlerror.o) (__dlopen)
/usr/lib/gcc/x86_64-unknown-linux-gnu/4.9.2/../../../../lib/libc.a(sdlclose.o)
                              /usr/lib/gcc/x86_64-unknown-linux-gnu/4.9.2/../../../../lib/libc.a(sdlerror.o) (__dlclose)
/usr/lib/gcc/x86_64-unknown-linux-gnu/4.9.2/../../../../lib/libc.a(sdlsym.o)
                              /usr/lib/gcc/x86_64-unknown-linux-gnu/4.9.2/../../../../lib/libc.a(sdlerror.o) (__dlsym)
/usr/lib/gcc/x86_64-unknown-linux-gnu/4.9.2/../../../../lib/libc.a(sdlvsym.o)
                              /usr/lib/gcc/x86_64-unknown-linux-gnu/4.9.2/../../../../lib/libc.a(sdlerror.o) (__dlvsym)
/usr/lib/gcc/x86_64-unknown-linux-gnu/4.9.2/../../../../lib/libc.a(strpbrk.o)
                              /usr/lib/gcc/x86_64-unknown-linux-gnu/4.9.2/../../../../lib/libc.a(strsep.o) (strpbrk)
/usr/lib/gcc/x86_64-unknown-linux-gnu/4.9.2/../../../../lib/libc.a(strncase_l.o)
                              /usr/lib/gcc/x86_64-unknown-linux-gnu/4.9.2/../../../../lib/libc.a(strtof_l.o) (__strncasecmp_l)
/usr/lib/gcc/x86_64-unknown-linux-gnu/4.9.2/../../../../lib/libc.a(strncase_l-ssse3.o)
                              /usr/lib/gcc/x86_64-unknown-linux-gnu/4.9.2/../../../../lib/libc.a(strncase_l.o) (__strncasecmp_ssse3)
/usr/lib/gcc/x86_64-unknown-linux-gnu/4.9.2/../../../../lib/libc.a(strncase_l-nonascii.o)
                              /usr/lib/gcc/x86_64-unknown-linux-gnu/4.9.2/../../../../lib/libc.a(strncase_l.o) (__strncasecmp_l_nonascii)
/usr/lib/gcc/x86_64-unknown-linux-gnu/4.9.2/../../../../lib/libc.a(profil.o)
                              /usr/lib/gcc/x86_64-unknown-linux-gnu/4.9.2/../../../../lib/libc.a(dl-profile.o) (__profil)
/usr/lib/gcc/x86_64-unknown-linux-gnu/4.9.2/../../../../lib/libc.a(prof-freq.o)
                              /usr/lib/gcc/x86_64-unknown-linux-gnu/4.9.2/../../../../lib/libc.a(dl-profile.o) (__profile_frequency)
/usr/lib/gcc/x86_64-unknown-linux-gnu/4.9.2/../../../../lib/libc.a(dl-sym.o)
                              /usr/lib/gcc/x86_64-unknown-linux-gnu/4.9.2/../../../../lib/libc.a(sdlvsym.o) (_dl_vsym)
/usr/lib/gcc/x86_64-unknown-linux-gnu/4.9.2/../../../../lib/libc.a(setitimer.o)
                              /usr/lib/gcc/x86_64-unknown-linux-gnu/4.9.2/../../../../lib/libc.a(profil.o) (__setitimer)
/usr/lib/gcc/x86_64-unknown-linux-gnu/4.9.2/libgcc_eh.a(unwind-dw2.o)
                              /usr/lib/gcc/x86_64-unknown-linux-gnu/4.9.2/../../../../lib/libc.a(backtrace.o) (_Unwind_GetCFA)
/usr/lib/gcc/x86_64-unknown-linux-gnu/4.9.2/libgcc_eh.a(unwind-dw2-fde-dip.o)
                              /usr/lib/gcc/x86_64-unknown-linux-gnu/4.9.2/libgcc_eh.a(unwind-dw2.o) (_Unwind_Find_FDE)
/usr/lib/gcc/x86_64-unknown-linux-gnu/4.9.2/libgcc_eh.a(unwind-c.o)
                              /usr/lib/gcc/x86_64-unknown-linux-gnu/4.9.2/../../../../lib/libc.a(iofclose.o) (__gcc_personality_v0)
/usr/lib/gcc/x86_64-unknown-linux-gnu/4.9.2/../../../../lib/libc.a(dl-iteratephdr.o)
                              /usr/lib/gcc/x86_64-unknown-linux-gnu/4.9.2/libgcc_eh.a(unwind-dw2-fde-dip.o) (dl_iterate_phdr)

Allocating common symbols
Common symbol       size              file

__libc_argc         0x4               /usr/lib/gcc/x86_64-unknown-linux-gnu/4.9.2/../../../../lib/libc.a(init-first.o)
_dl_profile_output  0x8               /usr/lib/gcc/x86_64-unknown-linux-gnu/4.9.2/../../../../lib/libc.a(dl-support.o)
__printf_modifier_table
                    0x8               /usr/lib/gcc/x86_64-unknown-linux-gnu/4.9.2/../../../../lib/libc.a(reg-modifier.o)
_nl_domain_bindings
                    0x8               /usr/lib/gcc/x86_64-unknown-linux-gnu/4.9.2/../../../../lib/libc.a(dcigettext.o)
__gconv_path_envvar
                    0x8               /usr/lib/gcc/x86_64-unknown-linux-gnu/4.9.2/../../../../lib/libc.a(gconv_conf.o)
__gconv_modules_db  0x8               /usr/lib/gcc/x86_64-unknown-linux-gnu/4.9.2/../../../../lib/libc.a(gconv_db.o)
_dl_platformlen     0x8               /usr/lib/gcc/x86_64-unknown-linux-gnu/4.9.2/../../../../lib/libc.a(dl-support.o)
_dl_tls_static_used
                    0x8               /usr/lib/gcc/x86_64-unknown-linux-gnu/4.9.2/../../../../lib/libc.a(libc-tls.o)
_dl_debug_mask      0x4               /usr/lib/gcc/x86_64-unknown-linux-gnu/4.9.2/../../../../lib/libc.a(dl-support.o)
_nl_msg_cat_cntr    0x4               /usr/lib/gcc/x86_64-unknown-linux-gnu/4.9.2/../../../../lib/libc.a(loadmsgcat.o)
_dl_wait_lookup_done
                    0x8               /usr/lib/gcc/x86_64-unknown-linux-gnu/4.9.2/../../../../lib/libc.a(dl-support.o)
_dl_profile         0x8               /usr/lib/gcc/x86_64-unknown-linux-gnu/4.9.2/../../../../lib/libc.a(dl-support.o)
_dl_cpuclock_offset
                    0x8               /usr/lib/gcc/x86_64-unknown-linux-gnu/4.9.2/../../../../lib/libc.a(dl-support.o)
_dl_tls_static_align
                    0x8               /usr/lib/gcc/x86_64-unknown-linux-gnu/4.9.2/../../../../lib/libc.a(libc-tls.o)
_dl_tls_max_dtv_idx
                    0x8               /usr/lib/gcc/x86_64-unknown-linux-gnu/4.9.2/../../../../lib/libc.a(libc-tls.o)
_dl_static_dtv      0x400             /usr/lib/gcc/x86_64-unknown-linux-gnu/4.9.2/../../../../lib/libc.a(libc-tls.o)
_dl_bind_not        0x4               /usr/lib/gcc/x86_64-unknown-linux-gnu/4.9.2/../../../../lib/libc.a(dl-support.o)
_dl_auxv            0x8               /usr/lib/gcc/x86_64-unknown-linux-gnu/4.9.2/../../../../lib/libc.a(dl-support.o)
__gconv_max_path_elem_len
                    0x8               /usr/lib/gcc/x86_64-unknown-linux-gnu/4.9.2/../../../../lib/libc.a(gconv_conf.o)
_dl_platform        0x8               /usr/lib/gcc/x86_64-unknown-linux-gnu/4.9.2/../../../../lib/libc.a(dl-support.o)
__libc_enable_secure_decided
                    0x4               /usr/lib/gcc/x86_64-unknown-linux-gnu/4.9.2/../../../../lib/libc.a(enbl-secure.o)
_dl_lazy            0x4               /usr/lib/gcc/x86_64-unknown-linux-gnu/4.9.2/../../../../lib/libc.a(dl-support.o)
_dl_tls_dtv_slotinfo_list
                    0x8               /usr/lib/gcc/x86_64-unknown-linux-gnu/4.9.2/../../../../lib/libc.a(libc-tls.o)
__tzname_cur_max    0x8               /usr/lib/gcc/x86_64-unknown-linux-gnu/4.9.2/../../../../lib/libc.a(tzset.o)
_dl_sysinfo_map     0x8               /usr/lib/gcc/x86_64-unknown-linux-gnu/4.9.2/../../../../lib/libc.a(dl-support.o)
_dl_inhibit_cache   0x4               /usr/lib/gcc/x86_64-unknown-linux-gnu/4.9.2/../../../../lib/libc.a(dl-support.o)
_dl_tls_dtv_gaps    0x1               /usr/lib/gcc/x86_64-unknown-linux-gnu/4.9.2/../../../../lib/libc.a(libc-tls.o)
_dl_phdr            0x8               /usr/lib/gcc/x86_64-unknown-linux-gnu/4.9.2/../../../../lib/libc.a(dl-support.o)
_dl_scope_free_list
                    0x8               /usr/lib/gcc/x86_64-unknown-linux-gnu/4.9.2/../../../../lib/libc.a(dl-support.o)
_dl_origin_path     0x8               /usr/lib/gcc/x86_64-unknown-linux-gnu/4.9.2/../../../../lib/libc.a(dl-support.o)
__cpu_features      0x44              /usr/lib/gcc/x86_64-unknown-linux-gnu/4.9.2/../../../../lib/libc.a(init-arch.o)
_dl_tls_generation  0x8               /usr/lib/gcc/x86_64-unknown-linux-gnu/4.9.2/../../../../lib/libc.a(libc-tls.o)
__gconv_lock        0x4               /usr/lib/gcc/x86_64-unknown-linux-gnu/4.9.2/../../../../lib/libc.a(gconv_db.o)
_dl_clktck          0x4               /usr/lib/gcc/x86_64-unknown-linux-gnu/4.9.2/../../../../lib/libc.a(dl-support.o)
_dl_dynamic_weak    0x4               /usr/lib/gcc/x86_64-unknown-linux-gnu/4.9.2/../../../../lib/libc.a(dl-support.o)
_tmbuf              0x38              /usr/lib/gcc/x86_64-unknown-linux-gnu/4.9.2/../../../../lib/libc.a(localtime.o)
__fork_handlers     0x8               /usr/lib/gcc/x86_64-unknown-linux-gnu/4.9.2/../../../../lib/libc.a(register-atfork.o)
__printf_function_table
                    0x8               /usr/lib/gcc/x86_64-unknown-linux-gnu/4.9.2/../../../../lib/libc.a(reg-printf.o)
_dl_sysinfo_dso     0x8               /usr/lib/gcc/x86_64-unknown-linux-gnu/4.9.2/../../../../lib/libc.a(dl-support.o)
__gconv_path_elem   0x8               /usr/lib/gcc/x86_64-unknown-linux-gnu/4.9.2/../../../../lib/libc.a(gconv_conf.o)
__libc_multiple_threads
                    0x4               /usr/lib/gcc/x86_64-unknown-linux-gnu/4.9.2/../../../../lib/libc.a(libc_multiple_threads.o)
__x86_prefetchw     0x4               /usr/lib/gcc/x86_64-unknown-linux-gnu/4.9.2/../../../../lib/libc.a(cacheinfo.o)
__new_exitfn_called
                    0x8               /usr/lib/gcc/x86_64-unknown-linux-gnu/4.9.2/../../../../lib/libc.a(cxa_atexit.o)
_dl_init_all_dirs   0x8               /usr/lib/gcc/x86_64-unknown-linux-gnu/4.9.2/../../../../lib/libc.a(dl-support.o)
_dl_tls_static_nelem
                    0x8               /usr/lib/gcc/x86_64-unknown-linux-gnu/4.9.2/../../../../lib/libc.a(libc-tls.o)
_nl_locale_file_list
                    0x68              /usr/lib/gcc/x86_64-unknown-linux-gnu/4.9.2/../../../../lib/libc.a(findlocale.o)
_dl_verbose         0x4               /usr/lib/gcc/x86_64-unknown-linux-gnu/4.9.2/../../../../lib/libc.a(dl-support.o)
_dl_phnum           0x8               /usr/lib/gcc/x86_64-unknown-linux-gnu/4.9.2/../../../../lib/libc.a(dl-support.o)
_dl_profile_map     0x8               /usr/lib/gcc/x86_64-unknown-linux-gnu/4.9.2/../../../../lib/libc.a(dl-support.o)
__use_tzfile        0x4               /usr/lib/gcc/x86_64-unknown-linux-gnu/4.9.2/../../../../lib/libc.a(tzfile.o)
_dl_initfirst       0x8               /usr/lib/gcc/x86_64-unknown-linux-gnu/4.9.2/../../../../lib/libc.a(dl-support.o)
__libc_argv         0x8               /usr/lib/gcc/x86_64-unknown-linux-gnu/4.9.2/../../../../lib/libc.a(init-first.o)
_dl_all_dirs        0x8               /usr/lib/gcc/x86_64-unknown-linux-gnu/4.9.2/../../../../lib/libc.a(dl-support.o)
__gconv_alias_db    0x8               /usr/lib/gcc/x86_64-unknown-linux-gnu/4.9.2/../../../../lib/libc.a(gconv_db.o)
_r_debug            0x28              /usr/lib/gcc/x86_64-unknown-linux-gnu/4.9.2/../../../../lib/libc.a(dl-debug.o)
_dl_osversion       0x4               /usr/lib/gcc/x86_64-unknown-linux-gnu/4.9.2/../../../../lib/libc.a(dl-support.o)
_dl_inhibit_rpath   0x8               /usr/lib/gcc/x86_64-unknown-linux-gnu/4.9.2/../../../../lib/libc.a(dl-support.o)

Discarded input sections

 .note.GNU-stack
                0x0000000000000000        0x0 /usr/lib/gcc/x86_64-unknown-linux-gnu/4.9.2/../../../../lib/crt1.o
 .note.GNU-stack
                0x0000000000000000        0x0 /usr/lib/gcc/x86_64-unknown-linux-gnu/4.9.2/../../../../lib/crti.o
 .note.GNU-stack
                0x0000000000000000        0x0 /usr/lib/gcc/x86_64-unknown-linux-gnu/4.9.2/crtbeginT.o
 .note.GNU-stack
                0x0000000000000000        0x0 src/main.o
 .note.GNU-stack
                0x0000000000000000        0x0 ../lib/libprinter.a(printer.o)
 .note.GNU-stack
                0x0000000000000000        0x0 /usr/lib/gcc/x86_64-unknown-linux-gnu/4.9.2/../../../../lib/libc.a(libc-start.o)
 .note.GNU-stack
                0x0000000000000000        0x0 /usr/lib/gcc/x86_64-unknown-linux-gnu/4.9.2/../../../../lib/libc.a(check_fds.o)
 .note.GNU-stack
                0x0000000000000000        0x0 /usr/lib/gcc/x86_64-unknown-linux-gnu/4.9.2/../../../../lib/libc.a(libc-tls.o)
 .note.GNU-stack
                0x0000000000000000        0x0 /usr/lib/gcc/x86_64-unknown-linux-gnu/4.9.2/../../../../lib/libc.a(elf-init.o)
 .note.GNU-stack
                0x0000000000000000        0x0 /usr/lib/gcc/x86_64-unknown-linux-gnu/4.9.2/../../../../lib/libc.a(errno.o)
 .note.GNU-stack
                0x0000000000000000        0x0 /usr/lib/gcc/x86_64-unknown-linux-gnu/4.9.2/../../../../lib/libc.a(assert.o)
 .note.GNU-stack
                0x0000000000000000        0x0 /usr/lib/gcc/x86_64-unknown-linux-gnu/4.9.2/../../../../lib/libc.a(dcgettext.o)
 .note.GNU-stack
                0x0000000000000000        0x0 /usr/lib/gcc/x86_64-unknown-linux-gnu/4.9.2/../../../../lib/libc.a(dcigettext.o)
 .note.GNU-stack
                0x0000000000000000        0x0 /usr/lib/gcc/x86_64-unknown-linux-gnu/4.9.2/../../../../lib/libc.a(finddomain.o)
 .note.GNU-stack
                0x0000000000000000        0x0 /usr/lib/gcc/x86_64-unknown-linux-gnu/4.9.2/../../../../lib/libc.a(loadmsgcat.o)
 .note.GNU-stack
                0x0000000000000000        0x0 /usr/lib/gcc/x86_64-unknown-linux-gnu/4.9.2/../../../../lib/libc.a(localealias.o)
 .note.GNU-stack
                0x0000000000000000        0x0 /usr/lib/gcc/x86_64-unknown-linux-gnu/4.9.2/../../../../lib/libc.a(l10nflist.o)
 .note.GNU-stack
                0x0000000000000000        0x0 /usr/lib/gcc/x86_64-unknown-linux-gnu/4.9.2/../../../../lib/libc.a(explodename.o)
 .note.GNU-stack
                0x0000000000000000        0x0 /usr/lib/gcc/x86_64-unknown-linux-gnu/4.9.2/../../../../lib/libc.a(plural.o)
 .note.GNU-stack
                0x0000000000000000        0x0 /usr/lib/gcc/x86_64-unknown-linux-gnu/4.9.2/../../../../lib/libc.a(plural-exp.o)
 .note.GNU-stack
                0x0000000000000000        0x0 /usr/lib/gcc/x86_64-unknown-linux-gnu/4.9.2/../../../../lib/libc.a(hash-string.o)
 .note.GNU-stack
                0x0000000000000000        0x0 /usr/lib/gcc/x86_64-unknown-linux-gnu/4.9.2/../../../../lib/libc.a(bsd-_setjmp.o)
 .note.GNU-stack
                0x0000000000000000        0x0 /usr/lib/gcc/x86_64-unknown-linux-gnu/4.9.2/../../../../lib/libc.a(raise.o)
 .note.GNU-stack
                0x0000000000000000        0x0 /usr/lib/gcc/x86_64-unknown-linux-gnu/4.9.2/../../../../lib/libc.a(abort.o)
 .note.GNU-stack
                0x0000000000000000        0x0 /usr/lib/gcc/x86_64-unknown-linux-gnu/4.9.2/../../../../lib/libc.a(msort.o)
 .note.GNU-stack
                0x0000000000000000        0x0 /usr/lib/gcc/x86_64-unknown-linux-gnu/4.9.2/../../../../lib/libc.a(getenv.o)
 .note.GNU-stack
                0x0000000000000000        0x0 /usr/lib/gcc/x86_64-unknown-linux-gnu/4.9.2/../../../../lib/libc.a(exit.o)
 .note.GNU-stack
                0x0000000000000000        0x0 /usr/lib/gcc/x86_64-unknown-linux-gnu/4.9.2/../../../../lib/libc.a(cxa_atexit.o)
 .note.GNU-stack
                0x0000000000000000        0x0 /usr/lib/gcc/x86_64-unknown-linux-gnu/4.9.2/../../../../lib/libc.a(strtoul.o)
 .note.GNU-stack
                0x0000000000000000        0x0 /usr/lib/gcc/x86_64-unknown-linux-gnu/4.9.2/../../../../lib/libc.a(strtoul_l.o)
 .note.GNU-stack
                0x0000000000000000        0x0 /usr/lib/gcc/x86_64-unknown-linux-gnu/4.9.2/../../../../lib/libc.a(grouping.o)
 .note.GNU-stack
                0x0000000000000000        0x0 /usr/lib/gcc/x86_64-unknown-linux-gnu/4.9.2/../../../../lib/libc.a(asprintf.o)
 .note.GNU-stack
                0x0000000000000000        0x0 /usr/lib/gcc/x86_64-unknown-linux-gnu/4.9.2/../../../../lib/libc.a(fxprintf.o)
 .note.GNU-stack
                0x0000000000000000        0x0 /usr/lib/gcc/x86_64-unknown-linux-gnu/4.9.2/../../../../lib/libc.a(iofclose.o)
 .note.GNU-stack
                0x0000000000000000        0x0 /usr/lib/gcc/x86_64-unknown-linux-gnu/4.9.2/../../../../lib/libc.a(iofflush.o)
 .note.GNU-stack
                0x0000000000000000        0x0 /usr/lib/gcc/x86_64-unknown-linux-gnu/4.9.2/../../../../lib/libc.a(iofopen.o)
 .note.GNU-stack
                0x0000000000000000        0x0 /usr/lib/gcc/x86_64-unknown-linux-gnu/4.9.2/../../../../lib/libc.a(wprintf.o)
 .note.GNU-stack
                0x0000000000000000        0x0 /usr/lib/gcc/x86_64-unknown-linux-gnu/4.9.2/../../../../lib/libc.a(wfileops.o)
 .note.GNU-stack
                0x0000000000000000        0x0 /usr/lib/gcc/x86_64-unknown-linux-gnu/4.9.2/../../../../lib/libc.a(vasprintf.o)
 .note.GNU-stack
                0x0000000000000000        0x0 /usr/lib/gcc/x86_64-unknown-linux-gnu/4.9.2/../../../../lib/libc.a(fcloseall.o)
 .note.GNU-stack
                0x0000000000000000        0x0 /usr/lib/gcc/x86_64-unknown-linux-gnu/4.9.2/../../../../lib/libc.a(libc_fatal.o)
 .note.GNU-stack
                0x0000000000000000        0x0 /usr/lib/gcc/x86_64-unknown-linux-gnu/4.9.2/../../../../lib/libc.a(iofgets_u.o)
 .note.GNU-stack
                0x0000000000000000        0x0 /usr/lib/gcc/x86_64-unknown-linux-gnu/4.9.2/../../../../lib/libc.a(fileops.o)
 .note.GNU-stack
                0x0000000000000000        0x0 /usr/lib/gcc/x86_64-unknown-linux-gnu/4.9.2/../../../../lib/libc.a(genops.o)
 .note.GNU-stack
                0x0000000000000000        0x0 /usr/lib/gcc/x86_64-unknown-linux-gnu/4.9.2/../../../../lib/libc.a(stdfiles.o)
 .note.GNU-stack
                0x0000000000000000        0x0 /usr/lib/gcc/x86_64-unknown-linux-gnu/4.9.2/../../../../lib/libc.a(stdio.o)
 .note.GNU-stack
                0x0000000000000000        0x0 /usr/lib/gcc/x86_64-unknown-linux-gnu/4.9.2/../../../../lib/libc.a(strops.o)
 .note.GNU-stack
                0x0000000000000000        0x0 /usr/lib/gcc/x86_64-unknown-linux-gnu/4.9.2/../../../../lib/libc.a(malloc.o)
 .note.GNU-stack
                0x0000000000000000        0x0 /usr/lib/gcc/x86_64-unknown-linux-gnu/4.9.2/../../../../lib/libc.a(morecore.o)
 .note.GNU-stack
                0x0000000000000000        0x0 /usr/lib/gcc/x86_64-unknown-linux-gnu/4.9.2/../../../../lib/libc.a(strchr.o)
 .note.GNU-stack
                0x0000000000000000        0x0 /usr/lib/gcc/x86_64-unknown-linux-gnu/4.9.2/../../../../lib/libc.a(strcmp.o)
 .note.GNU-stack
                0x0000000000000000        0x0 /usr/lib/gcc/x86_64-unknown-linux-gnu/4.9.2/../../../../lib/libc.a(strcpy.o)
 .note.GNU-stack
                0x0000000000000000        0x0 /usr/lib/gcc/x86_64-unknown-linux-gnu/4.9.2/../../../../lib/libc.a(strdup.o)
 .note.GNU-stack
                0x0000000000000000        0x0 /usr/lib/gcc/x86_64-unknown-linux-gnu/4.9.2/../../../../lib/libc.a(strlen.o)
 .note.GNU-stack
                0x0000000000000000        0x0 /usr/lib/gcc/x86_64-unknown-linux-gnu/4.9.2/../../../../lib/libc.a(strncmp.o)
 .note.GNU-stack
                0x0000000000000000        0x0 /usr/lib/gcc/x86_64-unknown-linux-gnu/4.9.2/../../../../lib/libc.a(strstr.o)
 .note.GNU-stack
                0x0000000000000000        0x0 /usr/lib/gcc/x86_64-unknown-linux-gnu/4.9.2/../../../../lib/libc.a(memchr.o)
 .note.GNU-stack
                0x0000000000000000        0x0 /usr/lib/gcc/x86_64-unknown-linux-gnu/4.9.2/../../../../lib/libc.a(memcmp.o)
 .note.GNU-stack
                0x0000000000000000        0x0 /usr/lib/gcc/x86_64-unknown-linux-gnu/4.9.2/../../../../lib/libc.a(memmove.o)
 .note.GNU-stack
                0x0000000000000000        0x0 /usr/lib/gcc/x86_64-unknown-linux-gnu/4.9.2/../../../../lib/libc.a(memset.o)
 .note.GNU-stack
                0x0000000000000000        0x0 /usr/lib/gcc/x86_64-unknown-linux-gnu/4.9.2/../../../../lib/libc.a(mempcpy.o)
 .note.GNU-stack
                0x0000000000000000        0x0 /usr/lib/gcc/x86_64-unknown-linux-gnu/4.9.2/../../../../lib/libc.a(stpcpy.o)
 .note.GNU-stack
                0x0000000000000000        0x0 /usr/lib/gcc/x86_64-unknown-linux-gnu/4.9.2/../../../../lib/libc.a(strcasecmp_l.o)
 .note.GNU-stack
                0x0000000000000000        0x0 /usr/lib/gcc/x86_64-unknown-linux-gnu/4.9.2/../../../../lib/libc.a(memcpy.o)
 .note.GNU-stack
                0x0000000000000000        0x0 /usr/lib/gcc/x86_64-unknown-linux-gnu/4.9.2/../../../../lib/libc.a(wordcopy.o)
 .note.GNU-stack
                0x0000000000000000        0x0 /usr/lib/gcc/x86_64-unknown-linux-gnu/4.9.2/../../../../lib/libc.a(rawmemchr.o)
 .note.GNU-stack
                0x0000000000000000        0x0 /usr/lib/gcc/x86_64-unknown-linux-gnu/4.9.2/../../../../lib/libc.a(strchrnul.o)
 .note.GNU-stack
                0x0000000000000000        0x0 /usr/lib/gcc/x86_64-unknown-linux-gnu/4.9.2/../../../../lib/libc.a(strcmp-ssse3.o)
 .note.GNU-stack
                0x0000000000000000        0x0 /usr/lib/gcc/x86_64-unknown-linux-gnu/4.9.2/../../../../lib/libc.a(strcmp-sse2-unaligned.o)
 .note.GNU-stack
                0x0000000000000000        0x0 /usr/lib/gcc/x86_64-unknown-linux-gnu/4.9.2/../../../../lib/libc.a(memcmp-sse4.o)
 .note.GNU-stack
                0x0000000000000000        0x0 /usr/lib/gcc/x86_64-unknown-linux-gnu/4.9.2/../../../../lib/libc.a(memmove-ssse3.o)
 .note.GNU-stack
                0x0000000000000000        0x0 /usr/lib/gcc/x86_64-unknown-linux-gnu/4.9.2/../../../../lib/libc.a(memmove-avx-unaligned.o)
 .note.GNU-stack
                0x0000000000000000        0x0 /usr/lib/gcc/x86_64-unknown-linux-gnu/4.9.2/../../../../lib/libc.a(memmove-ssse3-back.o)
 .note.GNU-stack
                0x0000000000000000        0x0 /usr/lib/gcc/x86_64-unknown-linux-gnu/4.9.2/../../../../lib/libc.a(strcasecmp_l-ssse3.o)
 .note.GNU-stack
                0x0000000000000000        0x0 /usr/lib/gcc/x86_64-unknown-linux-gnu/4.9.2/../../../../lib/libc.a(strcpy-ssse3.o)
 .note.GNU-stack
                0x0000000000000000        0x0 /usr/lib/gcc/x86_64-unknown-linux-gnu/4.9.2/../../../../lib/libc.a(stpcpy-ssse3.o)
 .note.GNU-stack
                0x0000000000000000        0x0 /usr/lib/gcc/x86_64-unknown-linux-gnu/4.9.2/../../../../lib/libc.a(strcpy-sse2-unaligned.o)
 .note.GNU-stack
                0x0000000000000000        0x0 /usr/lib/gcc/x86_64-unknown-linux-gnu/4.9.2/../../../../lib/libc.a(stpcpy-sse2-unaligned.o)
 .note.GNU-stack
                0x0000000000000000        0x0 /usr/lib/gcc/x86_64-unknown-linux-gnu/4.9.2/../../../../lib/libc.a(strchr-sse2-no-bsf.o)
 .note.GNU-stack
                0x0000000000000000        0x0 /usr/lib/gcc/x86_64-unknown-linux-gnu/4.9.2/../../../../lib/libc.a(memcmp-ssse3.o)
 .note.GNU-stack
                0x0000000000000000        0x0 /usr/lib/gcc/x86_64-unknown-linux-gnu/4.9.2/../../../../lib/libc.a(strstr-sse2-unaligned.o)
 .note.GNU-stack
                0x0000000000000000        0x0 /usr/lib/gcc/x86_64-unknown-linux-gnu/4.9.2/../../../../lib/libc.a(memset-avx2.o)
 .note.GNU-stack
                0x0000000000000000        0x0 /usr/lib/gcc/x86_64-unknown-linux-gnu/4.9.2/../../../../lib/libc.a(cacheinfo.o)
 .note.GNU-stack
                0x0000000000000000        0x0 /usr/lib/gcc/x86_64-unknown-linux-gnu/4.9.2/../../../../lib/libc.a(strcasecmp_l-nonascii.o)
 .note.GNU-stack
                0x0000000000000000        0x0 /usr/lib/gcc/x86_64-unknown-linux-gnu/4.9.2/../../../../lib/libc.a(wmempcpy.o)
 .note.GNU-stack
                0x0000000000000000        0x0 /usr/lib/gcc/x86_64-unknown-linux-gnu/4.9.2/../../../../lib/libc.a(wcsmbsload.o)
 .note.GNU-stack
                0x0000000000000000        0x0 /usr/lib/gcc/x86_64-unknown-linux-gnu/4.9.2/../../../../lib/libc.a(_exit.o)
 .note.GNU-stack
                0x0000000000000000        0x0 /usr/lib/gcc/x86_64-unknown-linux-gnu/4.9.2/../../../../lib/libc.a(sysconf.o)
 .note.GNU-stack
                0x0000000000000000        0x0 /usr/lib/gcc/x86_64-unknown-linux-gnu/4.9.2/../../../../lib/libc.a(sched_yield.o)
 .note.GNU-stack
                0x0000000000000000        0x0 /usr/lib/gcc/x86_64-unknown-linux-gnu/4.9.2/../../../../lib/libc.a(get_child_max.o)
 .note.GNU-stack
                0x0000000000000000        0x0 /usr/lib/gcc/x86_64-unknown-linux-gnu/4.9.2/../../../../lib/libc.a(environ.o)
 .note.GNU-stack
                0x0000000000000000        0x0 /usr/lib/gcc/x86_64-unknown-linux-gnu/4.9.2/../../../../lib/libc.a(xstat.o)
 .note.GNU-stack
                0x0000000000000000        0x0 /usr/lib/gcc/x86_64-unknown-linux-gnu/4.9.2/../../../../lib/libc.a(fxstat.o)
 .note.GNU-stack
                0x0000000000000000        0x0 /usr/lib/gcc/x86_64-unknown-linux-gnu/4.9.2/../../../../lib/libc.a(open.o)
 .note.GNU-stack
                0x0000000000000000        0x0 /usr/lib/gcc/x86_64-unknown-linux-gnu/4.9.2/../../../../lib/libc.a(read.o)
 .note.GNU-stack
                0x0000000000000000        0x0 /usr/lib/gcc/x86_64-unknown-linux-gnu/4.9.2/../../../../lib/libc.a(write.o)
 .note.GNU-stack
                0x0000000000000000        0x0 /usr/lib/gcc/x86_64-unknown-linux-gnu/4.9.2/../../../../lib/libc.a(fcntl.o)
 .note.GNU-stack
                0x0000000000000000        0x0 /usr/lib/gcc/x86_64-unknown-linux-gnu/4.9.2/../../../../lib/libc.a(close.o)
 .note.GNU-stack
                0x0000000000000000        0x0 /usr/lib/gcc/x86_64-unknown-linux-gnu/4.9.2/../../../../lib/libc.a(getcwd.o)
 .note.GNU-stack
                0x0000000000000000        0x0 /usr/lib/gcc/x86_64-unknown-linux-gnu/4.9.2/../../../../lib/libc.a(getrlimit.o)
 .note.GNU-stack
                0x0000000000000000        0x0 /usr/lib/gcc/x86_64-unknown-linux-gnu/4.9.2/../../../../lib/libc.a(sbrk.o)
 .note.GNU-stack
                0x0000000000000000        0x0 /usr/lib/gcc/x86_64-unknown-linux-gnu/4.9.2/../../../../lib/libc.a(getpagesize.o)
 .note.GNU-stack
                0x0000000000000000        0x0 /usr/lib/gcc/x86_64-unknown-linux-gnu/4.9.2/../../../../lib/libc.a(getdtsz.o)
 .note.GNU-stack
                0x0000000000000000        0x0 /usr/lib/gcc/x86_64-unknown-linux-gnu/4.9.2/../../../../lib/libc.a(mmap.o)
 .note.GNU-stack
                0x0000000000000000        0x0 /usr/lib/gcc/x86_64-unknown-linux-gnu/4.9.2/../../../../lib/libc.a(munmap.o)
 .note.GNU-stack
                0x0000000000000000        0x0 /usr/lib/gcc/x86_64-unknown-linux-gnu/4.9.2/../../../../lib/libc.a(mprotect.o)
 .note.GNU-stack
                0x0000000000000000        0x0 /usr/lib/gcc/x86_64-unknown-linux-gnu/4.9.2/../../../../lib/libc.a(madvise.o)
 .note.GNU-stack
                0x0000000000000000        0x0 /usr/lib/gcc/x86_64-unknown-linux-gnu/4.9.2/../../../../lib/libc.a(tsearch.o)
 .note.GNU-stack
                0x0000000000000000        0x0 /usr/lib/gcc/x86_64-unknown-linux-gnu/4.9.2/../../../../lib/libc.a(getsysstats.o)
 .note.GNU-stack
                0x0000000000000000        0x0 /usr/lib/gcc/x86_64-unknown-linux-gnu/4.9.2/../../../../lib/libc.a(getclktck.o)
 .note.GNU-stack
                0x0000000000000000        0x0 /usr/lib/gcc/x86_64-unknown-linux-gnu/4.9.2/../../../../lib/libc.a(init-misc.o)
 .note.GNU-stack
                0x0000000000000000        0x0 /usr/lib/gcc/x86_64-unknown-linux-gnu/4.9.2/../../../../lib/libc.a(llseek.o)
 .note.GNU-stack
                0x0000000000000000        0x0 /usr/lib/gcc/x86_64-unknown-linux-gnu/4.9.2/../../../../lib/libc.a(mremap.o)
 .note.GNU-stack
                0x0000000000000000        0x0 /usr/lib/gcc/x86_64-unknown-linux-gnu/4.9.2/../../../../lib/libc.a(alloca_cutoff.o)
 .note.GNU-stack
                0x0000000000000000        0x0 /usr/lib/gcc/x86_64-unknown-linux-gnu/4.9.2/../../../../lib/libc.a(libc-lowlevellock.o)
 .note.GNU-stack
                0x0000000000000000        0x0 /usr/lib/gcc/x86_64-unknown-linux-gnu/4.9.2/../../../../lib/libc.a(libc-cancellation.o)
 .note.GNU-stack
                0x0000000000000000        0x0 /usr/lib/gcc/x86_64-unknown-linux-gnu/4.9.2/../../../../lib/libc.a(libc_multiple_threads.o)
 .note.GNU-stack
                0x0000000000000000        0x0 /usr/lib/gcc/x86_64-unknown-linux-gnu/4.9.2/../../../../lib/libc.a(register-atfork.o)
 .note.GNU-stack
                0x0000000000000000        0x0 /usr/lib/gcc/x86_64-unknown-linux-gnu/4.9.2/../../../../lib/libc.a(backtrace.o)
 .note.GNU-stack
                0x0000000000000000        0x0 /usr/lib/gcc/x86_64-unknown-linux-gnu/4.9.2/../../../../lib/libc.a(backtracesymsfd.o)
 .note.GNU-stack
                0x0000000000000000        0x0 /usr/lib/gcc/x86_64-unknown-linux-gnu/4.9.2/../../../../lib/libc.a(chk_fail.o)
 .note.GNU-stack
                0x0000000000000000        0x0 /usr/lib/gcc/x86_64-unknown-linux-gnu/4.9.2/../../../../lib/libc.a(fortify_fail.o)
 .note.GNU-stack
                0x0000000000000000        0x0 /usr/lib/gcc/x86_64-unknown-linux-gnu/4.9.2/../../../../lib/libc.a(dl-debug.o)
 .note.GNU-stack
                0x0000000000000000        0x0 /usr/lib/gcc/x86_64-unknown-linux-gnu/4.9.2/../../../../lib/libc.a(dl-support.o)
 .note.GNU-stack
                0x0000000000000000        0x0 /usr/lib/gcc/x86_64-unknown-linux-gnu/4.9.2/../../../../lib/libc.a(dl-addr.o)
 .note.GNU-stack
                0x0000000000000000        0x0 /usr/lib/gcc/x86_64-unknown-linux-gnu/4.9.2/../../../../lib/libc.a(enbl-secure.o)
 .note.GNU-stack
                0x0000000000000000        0x0 /usr/lib/gcc/x86_64-unknown-linux-gnu/4.9.2/../../../../lib/libc.a(dl-sysdep.o)
 .note.GNU-stack
                0x0000000000000000        0x0 /usr/lib/gcc/x86_64-unknown-linux-gnu/4.9.2/../../../../lib/libc.a(init-first.o)
 .note.GNU-stack
                0x0000000000000000        0x0 /usr/lib/gcc/x86_64-unknown-linux-gnu/4.9.2/../../../../lib/libc.a(sysdep.o)
 .note.GNU-stack
                0x0000000000000000        0x0 /usr/lib/gcc/x86_64-unknown-linux-gnu/4.9.2/../../../../lib/libc.a(init-arch.o)
 .note.GNU-stack
                0x0000000000000000        0x0 /usr/lib/gcc/x86_64-unknown-linux-gnu/4.9.2/../../../../lib/libc.a(gconv_open.o)
 .note.GNU-stack
                0x0000000000000000        0x0 /usr/lib/gcc/x86_64-unknown-linux-gnu/4.9.2/../../../../lib/libc.a(gconv.o)
 .note.GNU-stack
                0x0000000000000000        0x0 /usr/lib/gcc/x86_64-unknown-linux-gnu/4.9.2/../../../../lib/libc.a(gconv_close.o)
 .note.GNU-stack
                0x0000000000000000        0x0 /usr/lib/gcc/x86_64-unknown-linux-gnu/4.9.2/../../../../lib/libc.a(gconv_db.o)
 .note.GNU-stack
                0x0000000000000000        0x0 /usr/lib/gcc/x86_64-unknown-linux-gnu/4.9.2/../../../../lib/libc.a(gconv_conf.o)
 .note.GNU-stack
                0x0000000000000000        0x0 /usr/lib/gcc/x86_64-unknown-linux-gnu/4.9.2/../../../../lib/libc.a(gconv_builtin.o)
 .note.GNU-stack
                0x0000000000000000        0x0 /usr/lib/gcc/x86_64-unknown-linux-gnu/4.9.2/../../../../lib/libc.a(gconv_simple.o)
 .note.GNU-stack
                0x0000000000000000        0x0 /usr/lib/gcc/x86_64-unknown-linux-gnu/4.9.2/../../../../lib/libc.a(gconv_trans.o)
 .note.GNU-stack
                0x0000000000000000        0x0 /usr/lib/gcc/x86_64-unknown-linux-gnu/4.9.2/../../../../lib/libc.a(gconv_cache.o)
 .note.GNU-stack
                0x0000000000000000        0x0 /usr/lib/gcc/x86_64-unknown-linux-gnu/4.9.2/../../../../lib/libc.a(gconv_dl.o)
 .note.GNU-stack
                0x0000000000000000        0x0 /usr/lib/gcc/x86_64-unknown-linux-gnu/4.9.2/../../../../lib/libc.a(setlocale.o)
 .note.GNU-stack
                0x0000000000000000        0x0 /usr/lib/gcc/x86_64-unknown-linux-gnu/4.9.2/../../../../lib/libc.a(findlocale.o)
 .note.GNU-stack
                0x0000000000000000        0x0 /usr/lib/gcc/x86_64-unknown-linux-gnu/4.9.2/../../../../lib/libc.a(loadlocale.o)
 .note.GNU-stack
                0x0000000000000000        0x0 /usr/lib/gcc/x86_64-unknown-linux-gnu/4.9.2/../../../../lib/libc.a(loadarchive.o)
 .note.GNU-stack
                0x0000000000000000        0x0 /usr/lib/gcc/x86_64-unknown-linux-gnu/4.9.2/../../../../lib/libc.a(lc-ctype.o)
 .note.GNU-stack
                0x0000000000000000        0x0 /usr/lib/gcc/x86_64-unknown-linux-gnu/4.9.2/../../../../lib/libc.a(C-ctype.o)
 .note.GNU-stack
                0x0000000000000000        0x0 /usr/lib/gcc/x86_64-unknown-linux-gnu/4.9.2/../../../../lib/libc.a(SYS_libc.o)
 .note.GNU-stack
                0x0000000000000000        0x0 /usr/lib/gcc/x86_64-unknown-linux-gnu/4.9.2/../../../../lib/libc.a(C_name.o)
 .note.GNU-stack
                0x0000000000000000        0x0 /usr/lib/gcc/x86_64-unknown-linux-gnu/4.9.2/../../../../lib/libc.a(xlocale.o)
 .note.GNU-stack
                0x0000000000000000        0x0 /usr/lib/gcc/x86_64-unknown-linux-gnu/4.9.2/../../../../lib/libc.a(localename.o)
 .note.GNU-stack
                0x0000000000000000        0x0 /usr/lib/gcc/x86_64-unknown-linux-gnu/4.9.2/../../../../lib/libc.a(global-locale.o)
 .note.GNU-stack
                0x0000000000000000        0x0 /usr/lib/gcc/x86_64-unknown-linux-gnu/4.9.2/../../../../lib/libc.a(ctype-info.o)
 .note.GNU-stack
                0x0000000000000000        0x0 /usr/lib/gcc/x86_64-unknown-linux-gnu/4.9.2/../../../../lib/libc.a(setfpucw.o)
 .note.GNU-stack
                0x0000000000000000        0x0 /usr/lib/gcc/x86_64-unknown-linux-gnu/4.9.2/../../../../lib/libc.a(fpu_control.o)
 .note.GNU-stack
                0x0000000000000000        0x0 /usr/lib/gcc/x86_64-unknown-linux-gnu/4.9.2/../../../../lib/libc.a(setjmp.o)
 .note.GNU-stack
                0x0000000000000000        0x0 /usr/lib/gcc/x86_64-unknown-linux-gnu/4.9.2/../../../../lib/libc.a(sigjmp.o)
 .note.GNU-stack
                0x0000000000000000        0x0 /usr/lib/gcc/x86_64-unknown-linux-gnu/4.9.2/../../../../lib/libc.a(sigaction.o)
 .note.GNU-stack
                0x0000000000000000        0x0 /usr/lib/gcc/x86_64-unknown-linux-gnu/4.9.2/../../../../lib/libc.a(sigprocmask.o)
 .note.GNU-stack
                0x0000000000000000        0x0 /usr/lib/gcc/x86_64-unknown-linux-gnu/4.9.2/../../../../lib/libc.a(qsort.o)
 .note.GNU-stack
                0x0000000000000000        0x0 /usr/lib/gcc/x86_64-unknown-linux-gnu/4.9.2/../../../../lib/libc.a(setenv.o)
 .note.GNU-stack
                0x0000000000000000        0x0 /usr/lib/gcc/x86_64-unknown-linux-gnu/4.9.2/../../../../lib/libc.a(secure-getenv.o)
 .note.GNU-stack
                0x0000000000000000        0x0 /usr/lib/gcc/x86_64-unknown-linux-gnu/4.9.2/../../../../lib/libc.a(strtol.o)
 .note.GNU-stack
                0x0000000000000000        0x0 /usr/lib/gcc/x86_64-unknown-linux-gnu/4.9.2/../../../../lib/libc.a(strtol_l.o)
 .note.GNU-stack
                0x0000000000000000        0x0 /usr/lib/gcc/x86_64-unknown-linux-gnu/4.9.2/../../../../lib/libc.a(_itoa.o)
 .note.GNU-stack
                0x0000000000000000        0x0 /usr/lib/gcc/x86_64-unknown-linux-gnu/4.9.2/../../../../lib/libc.a(itoa-digits.o)
 .note.GNU-stack
                0x0000000000000000        0x0 /usr/lib/gcc/x86_64-unknown-linux-gnu/4.9.2/../../../../lib/libc.a(itoa-udigits.o)
 .note.GNU-stack
                0x0000000000000000        0x0 /usr/lib/gcc/x86_64-unknown-linux-gnu/4.9.2/../../../../lib/libc.a(vfprintf.o)
 .note.GNU-stack
                0x0000000000000000        0x0 /usr/lib/gcc/x86_64-unknown-linux-gnu/4.9.2/../../../../lib/libc.a(printf_fp.o)
 .note.GNU-stack
                0x0000000000000000        0x0 /usr/lib/gcc/x86_64-unknown-linux-gnu/4.9.2/../../../../lib/libc.a(reg-printf.o)
 .note.GNU-stack
                0x0000000000000000        0x0 /usr/lib/gcc/x86_64-unknown-linux-gnu/4.9.2/../../../../lib/libc.a(printf_fphex.o)
 .note.GNU-stack
                0x0000000000000000        0x0 /usr/lib/gcc/x86_64-unknown-linux-gnu/4.9.2/../../../../lib/libc.a(reg-modifier.o)
 .note.GNU-stack
                0x0000000000000000        0x0 /usr/lib/gcc/x86_64-unknown-linux-gnu/4.9.2/../../../../lib/libc.a(reg-type.o)
 .note.GNU-stack
                0x0000000000000000        0x0 /usr/lib/gcc/x86_64-unknown-linux-gnu/4.9.2/../../../../lib/libc.a(fprintf.o)
 .note.GNU-stack
                0x0000000000000000        0x0 /usr/lib/gcc/x86_64-unknown-linux-gnu/4.9.2/../../../../lib/libc.a(vfwprintf.o)
 .note.GNU-stack
                0x0000000000000000        0x0 /usr/lib/gcc/x86_64-unknown-linux-gnu/4.9.2/../../../../lib/libc.a(sscanf.o)
 .note.GNU-stack
                0x0000000000000000        0x0 /usr/lib/gcc/x86_64-unknown-linux-gnu/4.9.2/../../../../lib/libc.a(funlockfile.o)
 .note.GNU-stack
                0x0000000000000000        0x0 /usr/lib/gcc/x86_64-unknown-linux-gnu/4.9.2/../../../../lib/libc.a(printf-parsemb.o)
 .note.GNU-stack
                0x0000000000000000        0x0 /usr/lib/gcc/x86_64-unknown-linux-gnu/4.9.2/../../../../lib/libc.a(printf-parsewc.o)
 .note.GNU-stack
                0x0000000000000000        0x0 /usr/lib/gcc/x86_64-unknown-linux-gnu/4.9.2/../../../../lib/libc.a(filedoalloc.o)
 .note.GNU-stack
                0x0000000000000000        0x0 /usr/lib/gcc/x86_64-unknown-linux-gnu/4.9.2/../../../../lib/libc.a(iofputs.o)
 .note.GNU-stack
                0x0000000000000000        0x0 /usr/lib/gcc/x86_64-unknown-linux-gnu/4.9.2/../../../../lib/libc.a(wfiledoalloc.o)
 .note.GNU-stack
                0x0000000000000000        0x0 /usr/lib/gcc/x86_64-unknown-linux-gnu/4.9.2/../../../../lib/libc.a(iofwrite.o)
 .note.GNU-stack
                0x0000000000000000        0x0 /usr/lib/gcc/x86_64-unknown-linux-gnu/4.9.2/../../../../lib/libc.a(iogetdelim.o)
 .note.GNU-stack
                0x0000000000000000        0x0 /usr/lib/gcc/x86_64-unknown-linux-gnu/4.9.2/../../../../lib/libc.a(iogetline.o)
 .note.GNU-stack
                0x0000000000000000        0x0 /usr/lib/gcc/x86_64-unknown-linux-gnu/4.9.2/../../../../lib/libc.a(iopadn.o)
 .note.GNU-stack
                0x0000000000000000        0x0 /usr/lib/gcc/x86_64-unknown-linux-gnu/4.9.2/../../../../lib/libc.a(iovsscanf.o)
 .note.GNU-stack
                0x0000000000000000        0x0 /usr/lib/gcc/x86_64-unknown-linux-gnu/4.9.2/../../../../lib/libc.a(iowpadn.o)
 .note.GNU-stack
                0x0000000000000000        0x0 /usr/lib/gcc/x86_64-unknown-linux-gnu/4.9.2/../../../../lib/libc.a(wgenops.o)
 .note.GNU-stack
                0x0000000000000000        0x0 /usr/lib/gcc/x86_64-unknown-linux-gnu/4.9.2/../../../../lib/libc.a(iofwide.o)
 .note.GNU-stack
                0x0000000000000000        0x0 /usr/lib/gcc/x86_64-unknown-linux-gnu/4.9.2/../../../../lib/libc.a(strndup.o)
 .note.GNU-stack
                0x0000000000000000        0x0 /usr/lib/gcc/x86_64-unknown-linux-gnu/4.9.2/../../../../lib/libc.a(_strerror.o)
 .note.GNU-stack
                0x0000000000000000        0x0 /usr/lib/gcc/x86_64-unknown-linux-gnu/4.9.2/../../../../lib/libc.a(strnlen.o)
 .note.GNU-stack
                0x0000000000000000        0x0 /usr/lib/gcc/x86_64-unknown-linux-gnu/4.9.2/../../../../lib/libc.a(strrchr.o)
 .note.GNU-stack
                0x0000000000000000        0x0 /usr/lib/gcc/x86_64-unknown-linux-gnu/4.9.2/../../../../lib/libc.a(memmem.o)
 .note.GNU-stack
                0x0000000000000000        0x0 /usr/lib/gcc/x86_64-unknown-linux-gnu/4.9.2/../../../../lib/libc.a(argz-ctsep.o)
 .note.GNU-stack
                0x0000000000000000        0x0 /usr/lib/gcc/x86_64-unknown-linux-gnu/4.9.2/../../../../lib/libc.a(argz-addsep.o)
 .note.GNU-stack
                0x0000000000000000        0x0 /usr/lib/gcc/x86_64-unknown-linux-gnu/4.9.2/../../../../lib/libc.a(wcslen.o)
 .note.GNU-stack
                0x0000000000000000        0x0 /usr/lib/gcc/x86_64-unknown-linux-gnu/4.9.2/../../../../lib/libc.a(wmemcpy.o)
 .note.GNU-stack
                0x0000000000000000        0x0 /usr/lib/gcc/x86_64-unknown-linux-gnu/4.9.2/../../../../lib/libc.a(wmemmove.o)
 .note.GNU-stack
                0x0000000000000000        0x0 /usr/lib/gcc/x86_64-unknown-linux-gnu/4.9.2/../../../../lib/libc.a(wmemset.o)
 .note.GNU-stack
                0x0000000000000000        0x0 /usr/lib/gcc/x86_64-unknown-linux-gnu/4.9.2/../../../../lib/libc.a(btowc.o)
 .note.GNU-stack
                0x0000000000000000        0x0 /usr/lib/gcc/x86_64-unknown-linux-gnu/4.9.2/../../../../lib/libc.a(wcrtomb.o)
 .note.GNU-stack
                0x0000000000000000        0x0 /usr/lib/gcc/x86_64-unknown-linux-gnu/4.9.2/../../../../lib/libc.a(mbsrtowcs.o)
 .note.GNU-stack
                0x0000000000000000        0x0 /usr/lib/gcc/x86_64-unknown-linux-gnu/4.9.2/../../../../lib/libc.a(wcsrtombs.o)
 .note.GNU-stack
                0x0000000000000000        0x0 /usr/lib/gcc/x86_64-unknown-linux-gnu/4.9.2/../../../../lib/libc.a(wcsnlen.o)
 .note.GNU-stack
                0x0000000000000000        0x0 /usr/lib/gcc/x86_64-unknown-linux-gnu/4.9.2/../../../../lib/libc.a(wcschrnul.o)
 .note.GNU-stack
                0x0000000000000000        0x0 /usr/lib/gcc/x86_64-unknown-linux-gnu/4.9.2/../../../../lib/libc.a(mbsrtowcs_l.o)
 .note.GNU-stack
                0x0000000000000000        0x0 /usr/lib/gcc/x86_64-unknown-linux-gnu/4.9.2/../../../../lib/libc.a(time.o)
 .note.GNU-stack
                0x0000000000000000        0x0 /usr/lib/gcc/x86_64-unknown-linux-gnu/4.9.2/../../../../lib/libc.a(tzset.o)
 .note.GNU-stack
                0x0000000000000000        0x0 /usr/lib/gcc/x86_64-unknown-linux-gnu/4.9.2/../../../../lib/libc.a(tzfile.o)
 .note.GNU-stack
                0x0000000000000000        0x0 /usr/lib/gcc/x86_64-unknown-linux-gnu/4.9.2/../../../../lib/libc.a(opendir.o)
 .note.GNU-stack
                0x0000000000000000        0x0 /usr/lib/gcc/x86_64-unknown-linux-gnu/4.9.2/../../../../lib/libc.a(closedir.o)
 .note.GNU-stack
                0x0000000000000000        0x0 /usr/lib/gcc/x86_64-unknown-linux-gnu/4.9.2/../../../../lib/libc.a(readdir.o)
 .note.GNU-stack
                0x0000000000000000        0x0 /usr/lib/gcc/x86_64-unknown-linux-gnu/4.9.2/../../../../lib/libc.a(rewinddir.o)
 .note.GNU-stack
                0x0000000000000000        0x0 /usr/lib/gcc/x86_64-unknown-linux-gnu/4.9.2/../../../../lib/libc.a(getdents.o)
 .note.GNU-stack
                0x0000000000000000        0x0 /usr/lib/gcc/x86_64-unknown-linux-gnu/4.9.2/../../../../lib/libc.a(fdopendir.o)
 .note.GNU-stack
                0x0000000000000000        0x0 /usr/lib/gcc/x86_64-unknown-linux-gnu/4.9.2/../../../../lib/libc.a(uname.o)
 .note.GNU-stack
                0x0000000000000000        0x0 /usr/lib/gcc/x86_64-unknown-linux-gnu/4.9.2/../../../../lib/libc.a(getuid.o)
 .note.GNU-stack
                0x0000000000000000        0x0 /usr/lib/gcc/x86_64-unknown-linux-gnu/4.9.2/../../../../lib/libc.a(geteuid.o)
 .note.GNU-stack
                0x0000000000000000        0x0 /usr/lib/gcc/x86_64-unknown-linux-gnu/4.9.2/../../../../lib/libc.a(getgid.o)
 .note.GNU-stack
                0x0000000000000000        0x0 /usr/lib/gcc/x86_64-unknown-linux-gnu/4.9.2/../../../../lib/libc.a(getegid.o)
 .note.GNU-stack
                0x0000000000000000        0x0 /usr/lib/gcc/x86_64-unknown-linux-gnu/4.9.2/../../../../lib/libc.a(lxstat.o)
 .note.GNU-stack
                0x0000000000000000        0x0 /usr/lib/gcc/x86_64-unknown-linux-gnu/4.9.2/../../../../lib/libc.a(fxstatat.o)
 .note.GNU-stack
                0x0000000000000000        0x0 /usr/lib/gcc/x86_64-unknown-linux-gnu/4.9.2/../../../../lib/libc.a(openat.o)
 .note.GNU-stack
                0x0000000000000000        0x0 /usr/lib/gcc/x86_64-unknown-linux-gnu/4.9.2/../../../../lib/libc.a(access.o)
 .note.GNU-stack
                0x0000000000000000        0x0 /usr/lib/gcc/x86_64-unknown-linux-gnu/4.9.2/../../../../lib/libc.a(isatty.o)
 .note.GNU-stack
                0x0000000000000000        0x0 /usr/lib/gcc/x86_64-unknown-linux-gnu/4.9.2/../../../../lib/libc.a(tcgetattr.o)
 .note.GNU-stack
                0x0000000000000000        0x0 /usr/lib/gcc/x86_64-unknown-linux-gnu/4.9.2/../../../../lib/libc.a(brk.o)
 .note.GNU-stack
                0x0000000000000000        0x0 /usr/lib/gcc/x86_64-unknown-linux-gnu/4.9.2/../../../../lib/libc.a(writev.o)
 .note.GNU-stack
                0x0000000000000000        0x0 /usr/lib/gcc/x86_64-unknown-linux-gnu/4.9.2/../../../../lib/libc.a(wctrans.o)
 .note.GNU-stack
                0x0000000000000000        0x0 /usr/lib/gcc/x86_64-unknown-linux-gnu/4.9.2/../../../../lib/libc.a(towctrans.o)
 .note.GNU-stack
                0x0000000000000000        0x0 /usr/lib/gcc/x86_64-unknown-linux-gnu/4.9.2/../../../../lib/libc.a(readonly-area.o)
 .note.GNU-stack
                0x0000000000000000        0x0 /usr/lib/gcc/x86_64-unknown-linux-gnu/4.9.2/../../../../lib/libc.a(dl-load.o)
 .note.GNU-stack
                0x0000000000000000        0x0 /usr/lib/gcc/x86_64-unknown-linux-gnu/4.9.2/../../../../lib/libc.a(dl-lookup.o)
 .note.GNU-stack
                0x0000000000000000        0x0 /usr/lib/gcc/x86_64-unknown-linux-gnu/4.9.2/../../../../lib/libc.a(dl-object.o)
 .note.GNU-stack
                0x0000000000000000        0x0 /usr/lib/gcc/x86_64-unknown-linux-gnu/4.9.2/../../../../lib/libc.a(dl-reloc.o)
 .note.GNU-stack
                0x0000000000000000        0x0 /usr/lib/gcc/x86_64-unknown-linux-gnu/4.9.2/../../../../lib/libc.a(dl-hwcaps.o)
 .note.GNU-stack
                0x0000000000000000        0x0 /usr/lib/gcc/x86_64-unknown-linux-gnu/4.9.2/../../../../lib/libc.a(dl-error.o)
 .note.GNU-stack
                0x0000000000000000        0x0 /usr/lib/gcc/x86_64-unknown-linux-gnu/4.9.2/../../../../lib/libc.a(dl-misc.o)
 .note.GNU-stack
                0x0000000000000000        0x0 /usr/lib/gcc/x86_64-unknown-linux-gnu/4.9.2/../../../../lib/libc.a(dl-tls.o)
 .note.GNU-stack
                0x0000000000000000        0x0 /usr/lib/gcc/x86_64-unknown-linux-gnu/4.9.2/../../../../lib/libc.a(dl-origin.o)
 .note.GNU-stack
                0x0000000000000000        0x0 /usr/lib/gcc/x86_64-unknown-linux-gnu/4.9.2/../../../../lib/libc.a(dl-scope.o)
 .note.GNU-stack
                0x0000000000000000        0x0 /usr/lib/gcc/x86_64-unknown-linux-gnu/4.9.2/../../../../lib/libc.a(dl-execstack.o)
 .note.GNU-stack
                0x0000000000000000        0x0 /usr/lib/gcc/x86_64-unknown-linux-gnu/4.9.2/../../../../lib/libc.a(dl-open.o)
 .note.GNU-stack
                0x0000000000000000        0x0 /usr/lib/gcc/x86_64-unknown-linux-gnu/4.9.2/../../../../lib/libc.a(dl-close.o)
 .note.GNU-stack
                0x0000000000000000        0x0 /usr/lib/gcc/x86_64-unknown-linux-gnu/4.9.2/../../../../lib/libc.a(dl-trampoline.o)
 .note.GNU-stack
                0x0000000000000000        0x0 /usr/lib/gcc/x86_64-unknown-linux-gnu/4.9.2/../../../../lib/libc.a(dl-cache.o)
 .note.GNU-stack
                0x0000000000000000        0x0 /usr/lib/gcc/x86_64-unknown-linux-gnu/4.9.2/../../../../lib/libc.a(dl-profstub.o)
 .note.GNU-stack
                0x0000000000000000        0x0 /usr/lib/gcc/x86_64-unknown-linux-gnu/4.9.2/../../../../lib/libc.a(dl-libc.o)
 .note.GNU-stack
                0x0000000000000000        0x0 /usr/lib/gcc/x86_64-unknown-linux-gnu/4.9.2/../../../../lib/libc.a(dl-tsd.o)
 .note.GNU-stack
                0x0000000000000000        0x0 /usr/lib/gcc/x86_64-unknown-linux-gnu/4.9.2/../../../../lib/libc.a(tlsdesc.o)
 .note.GNU-stack
                0x0000000000000000        0x0 /usr/lib/gcc/x86_64-unknown-linux-gnu/4.9.2/../../../../lib/libc.a(dl-tlsdesc.o)
 .note.GNU-stack
                0x0000000000000000        0x0 /usr/lib/gcc/x86_64-unknown-linux-gnu/4.9.2/../../../../lib/libc.a(lc-monetary.o)
 .note.GNU-stack
                0x0000000000000000        0x0 /usr/lib/gcc/x86_64-unknown-linux-gnu/4.9.2/../../../../lib/libc.a(lc-numeric.o)
 .note.GNU-stack
                0x0000000000000000        0x0 /usr/lib/gcc/x86_64-unknown-linux-gnu/4.9.2/../../../../lib/libc.a(C-messages.o)
 .note.GNU-stack
                0x0000000000000000        0x0 /usr/lib/gcc/x86_64-unknown-linux-gnu/4.9.2/../../../../lib/libc.a(C-monetary.o)
 .note.GNU-stack
                0x0000000000000000        0x0 /usr/lib/gcc/x86_64-unknown-linux-gnu/4.9.2/../../../../lib/libc.a(C-numeric.o)
 .note.GNU-stack
                0x0000000000000000        0x0 /usr/lib/gcc/x86_64-unknown-linux-gnu/4.9.2/../../../../lib/libc.a(C-time.o)
 .note.GNU-stack
                0x0000000000000000        0x0 /usr/lib/gcc/x86_64-unknown-linux-gnu/4.9.2/../../../../lib/libc.a(C-paper.o)
 .note.GNU-stack
                0x0000000000000000        0x0 /usr/lib/gcc/x86_64-unknown-linux-gnu/4.9.2/../../../../lib/libc.a(C-name.o)
 .note.GNU-stack
                0x0000000000000000        0x0 /usr/lib/gcc/x86_64-unknown-linux-gnu/4.9.2/../../../../lib/libc.a(C-address.o)
 .note.GNU-stack
                0x0000000000000000        0x0 /usr/lib/gcc/x86_64-unknown-linux-gnu/4.9.2/../../../../lib/libc.a(C-telephone.o)
 .note.GNU-stack
                0x0000000000000000        0x0 /usr/lib/gcc/x86_64-unknown-linux-gnu/4.9.2/../../../../lib/libc.a(C-measurement.o)
 .note.GNU-stack
                0x0000000000000000        0x0 /usr/lib/gcc/x86_64-unknown-linux-gnu/4.9.2/../../../../lib/libc.a(C-identification.o)
 .note.GNU-stack
                0x0000000000000000        0x0 /usr/lib/gcc/x86_64-unknown-linux-gnu/4.9.2/../../../../lib/libc.a(C-collate.o)
 .note.GNU-stack
                0x0000000000000000        0x0 /usr/lib/gcc/x86_64-unknown-linux-gnu/4.9.2/../../../../lib/libc.a(s_isinf.o)
 .note.GNU-stack
                0x0000000000000000        0x0 /usr/lib/gcc/x86_64-unknown-linux-gnu/4.9.2/../../../../lib/libc.a(s_isnan.o)
 .note.GNU-stack
                0x0000000000000000        0x0 /usr/lib/gcc/x86_64-unknown-linux-gnu/4.9.2/../../../../lib/libc.a(s_isinfl.o)
 .note.GNU-stack
                0x0000000000000000        0x0 /usr/lib/gcc/x86_64-unknown-linux-gnu/4.9.2/../../../../lib/libc.a(s_isnanl.o)
 .note.GNU-stack
                0x0000000000000000        0x0 /usr/lib/gcc/x86_64-unknown-linux-gnu/4.9.2/../../../../lib/libc.a(__longjmp.o)
 .note.GNU-stack
                0x0000000000000000        0x0 /usr/lib/gcc/x86_64-unknown-linux-gnu/4.9.2/../../../../lib/libc.a(cmp.o)
 .note.GNU-stack
                0x0000000000000000        0x0 /usr/lib/gcc/x86_64-unknown-linux-gnu/4.9.2/../../../../lib/libc.a(divrem.o)
 .note.GNU-stack
                0x0000000000000000        0x0 /usr/lib/gcc/x86_64-unknown-linux-gnu/4.9.2/../../../../lib/libc.a(lshift.o)
 .note.GNU-stack
                0x0000000000000000        0x0 /usr/lib/gcc/x86_64-unknown-linux-gnu/4.9.2/../../../../lib/libc.a(rshift.o)
 .note.GNU-stack
                0x0000000000000000        0x0 /usr/lib/gcc/x86_64-unknown-linux-gnu/4.9.2/../../../../lib/libc.a(mul.o)
 .note.GNU-stack
                0x0000000000000000        0x0 /usr/lib/gcc/x86_64-unknown-linux-gnu/4.9.2/../../../../lib/libc.a(mul_1.o)
 .note.GNU-stack
                0x0000000000000000        0x0 /usr/lib/gcc/x86_64-unknown-linux-gnu/4.9.2/../../../../lib/libc.a(mul_n.o)
 .note.GNU-stack
                0x0000000000000000        0x0 /usr/lib/gcc/x86_64-unknown-linux-gnu/4.9.2/../../../../lib/libc.a(sub_n.o)
 .note.GNU-stack
                0x0000000000000000        0x0 /usr/lib/gcc/x86_64-unknown-linux-gnu/4.9.2/../../../../lib/libc.a(submul_1.o)
 .note.GNU-stack
                0x0000000000000000        0x0 /usr/lib/gcc/x86_64-unknown-linux-gnu/4.9.2/../../../../lib/libc.a(dbl2mpn.o)
 .note.GNU-stack
                0x0000000000000000        0x0 /usr/lib/gcc/x86_64-unknown-linux-gnu/4.9.2/../../../../lib/libc.a(ldbl2mpn.o)
 .note.GNU-stack
                0x0000000000000000        0x0 /usr/lib/gcc/x86_64-unknown-linux-gnu/4.9.2/../../../../lib/libc.a(fpioconst.o)
 .note.GNU-stack
                0x0000000000000000        0x0 /usr/lib/gcc/x86_64-unknown-linux-gnu/4.9.2/../../../../lib/libc.a(itowa-digits.o)
 .note.GNU-stack
                0x0000000000000000        0x0 /usr/lib/gcc/x86_64-unknown-linux-gnu/4.9.2/../../../../lib/libc.a(vfscanf.o)
 .gnu.warning.sys_errlist
                0x0000000000000000        0x0 /usr/lib/gcc/x86_64-unknown-linux-gnu/4.9.2/../../../../lib/libc.a(errlist.o)
 .gnu.warning.sys_nerr
                0x0000000000000000        0x0 /usr/lib/gcc/x86_64-unknown-linux-gnu/4.9.2/../../../../lib/libc.a(errlist.o)
 .note.GNU-stack
                0x0000000000000000        0x0 /usr/lib/gcc/x86_64-unknown-linux-gnu/4.9.2/../../../../lib/libc.a(errlist.o)
 .note.GNU-stack
                0x0000000000000000        0x0 /usr/lib/gcc/x86_64-unknown-linux-gnu/4.9.2/../../../../lib/libc.a(fileno.o)
 .note.GNU-stack
                0x0000000000000000        0x0 /usr/lib/gcc/x86_64-unknown-linux-gnu/4.9.2/../../../../lib/libc.a(fseek.o)
 .note.GNU-stack
                0x0000000000000000        0x0 /usr/lib/gcc/x86_64-unknown-linux-gnu/4.9.2/../../../../lib/libc.a(ftello.o)
 .note.GNU-stack
                0x0000000000000000        0x0 /usr/lib/gcc/x86_64-unknown-linux-gnu/4.9.2/../../../../lib/libc.a(iofread_u.o)
 .note.GNU-stack
                0x0000000000000000        0x0 /usr/lib/gcc/x86_64-unknown-linux-gnu/4.9.2/../../../../lib/libc.a(sdlerror.o)
 .note.GNU-stack
                0x0000000000000000        0x0 /usr/lib/gcc/x86_64-unknown-linux-gnu/4.9.2/../../../../lib/libc.a(sdladdr.o)
 .note.GNU-stack
                0x0000000000000000        0x0 /usr/lib/gcc/x86_64-unknown-linux-gnu/4.9.2/../../../../lib/libc.a(sdladdr1.o)
 .note.GNU-stack
                0x0000000000000000        0x0 /usr/lib/gcc/x86_64-unknown-linux-gnu/4.9.2/../../../../lib/libc.a(sdlinfo.o)
 .note.GNU-stack
                0x0000000000000000        0x0 /usr/lib/gcc/x86_64-unknown-linux-gnu/4.9.2/../../../../lib/libc.a(sdlmopen.o)
 .note.GNU-stack
                0x0000000000000000        0x0 /usr/lib/gcc/x86_64-unknown-linux-gnu/4.9.2/../../../../lib/libc.a(strerror.o)
 .note.GNU-stack
                0x0000000000000000        0x0 /usr/lib/gcc/x86_64-unknown-linux-gnu/4.9.2/../../../../lib/libc.a(strsep.o)
 .note.GNU-stack
                0x0000000000000000        0x0 /usr/lib/gcc/x86_64-unknown-linux-gnu/4.9.2/../../../../lib/libc.a(mbrlen.o)
 .note.GNU-stack
                0x0000000000000000        0x0 /usr/lib/gcc/x86_64-unknown-linux-gnu/4.9.2/../../../../lib/libc.a(mbrtowc.o)
 .note.GNU-stack
                0x0000000000000000        0x0 /usr/lib/gcc/x86_64-unknown-linux-gnu/4.9.2/../../../../lib/libc.a(offtime.o)
 .note.GNU-stack
                0x0000000000000000        0x0 /usr/lib/gcc/x86_64-unknown-linux-gnu/4.9.2/../../../../lib/libc.a(localtime.o)
 .note.GNU-stack
                0x0000000000000000        0x0 /usr/lib/gcc/x86_64-unknown-linux-gnu/4.9.2/../../../../lib/libc.a(mktime.o)
 .note.GNU-stack
                0x0000000000000000        0x0 /usr/lib/gcc/x86_64-unknown-linux-gnu/4.9.2/../../../../lib/libc.a(getpid.o)
 .note.GNU-stack
                0x0000000000000000        0x0 /usr/lib/gcc/x86_64-unknown-linux-gnu/4.9.2/../../../../lib/libc.a(dl-deps.o)
 .note.GNU-stack
                0x0000000000000000        0x0 /usr/lib/gcc/x86_64-unknown-linux-gnu/4.9.2/../../../../lib/libc.a(dl-runtime.o)
 .note.GNU-stack
                0x0000000000000000        0x0 /usr/lib/gcc/x86_64-unknown-linux-gnu/4.9.2/../../../../lib/libc.a(dl-init.o)
 .note.GNU-stack
                0x0000000000000000        0x0 /usr/lib/gcc/x86_64-unknown-linux-gnu/4.9.2/../../../../lib/libc.a(dl-fini.o)
 .note.GNU-stack
                0x0000000000000000        0x0 /usr/lib/gcc/x86_64-unknown-linux-gnu/4.9.2/../../../../lib/libc.a(dl-version.o)
 .note.GNU-stack
                0x0000000000000000        0x0 /usr/lib/gcc/x86_64-unknown-linux-gnu/4.9.2/../../../../lib/libc.a(dl-profile.o)
 .note.GNU-stack
                0x0000000000000000        0x0 /usr/lib/gcc/x86_64-unknown-linux-gnu/4.9.2/../../../../lib/libc.a(strtof.o)
 .note.GNU-stack
                0x0000000000000000        0x0 /usr/lib/gcc/x86_64-unknown-linux-gnu/4.9.2/../../../../lib/libc.a(strtod.o)
 .note.GNU-stack
                0x0000000000000000        0x0 /usr/lib/gcc/x86_64-unknown-linux-gnu/4.9.2/../../../../lib/libc.a(strtold.o)
 .note.GNU-stack
                0x0000000000000000        0x0 /usr/lib/gcc/x86_64-unknown-linux-gnu/4.9.2/../../../../lib/libc.a(strtof_l.o)
 .note.GNU-stack
                0x0000000000000000        0x0 /usr/lib/gcc/x86_64-unknown-linux-gnu/4.9.2/../../../../lib/libc.a(strtod_l.o)
 .note.GNU-stack
                0x0000000000000000        0x0 /usr/lib/gcc/x86_64-unknown-linux-gnu/4.9.2/../../../../lib/libc.a(strtold_l.o)
 .note.GNU-stack
                0x0000000000000000        0x0 /usr/lib/gcc/x86_64-unknown-linux-gnu/4.9.2/../../../../lib/libc.a(add_n.o)
 .note.GNU-stack
                0x0000000000000000        0x0 /usr/lib/gcc/x86_64-unknown-linux-gnu/4.9.2/../../../../lib/libc.a(addmul_1.o)
 .note.GNU-stack
                0x0000000000000000        0x0 /usr/lib/gcc/x86_64-unknown-linux-gnu/4.9.2/../../../../lib/libc.a(mpn2flt.o)
 .note.GNU-stack
                0x0000000000000000        0x0 /usr/lib/gcc/x86_64-unknown-linux-gnu/4.9.2/../../../../lib/libc.a(mpn2dbl.o)
 .note.GNU-stack
                0x0000000000000000        0x0 /usr/lib/gcc/x86_64-unknown-linux-gnu/4.9.2/../../../../lib/libc.a(mpn2ldbl.o)
 .note.GNU-stack
                0x0000000000000000        0x0 /usr/lib/gcc/x86_64-unknown-linux-gnu/4.9.2/../../../../lib/libc.a(tens_in_limb.o)
 .note.GNU-stack
                0x0000000000000000        0x0 /usr/lib/gcc/x86_64-unknown-linux-gnu/4.9.2/../../../../lib/libc.a(ioseekoff.o)
 .note.GNU-stack
                0x0000000000000000        0x0 /usr/lib/gcc/x86_64-unknown-linux-gnu/4.9.2/../../../../lib/libc.a(sdlopen.o)
 .note.GNU-stack
                0x0000000000000000        0x0 /usr/lib/gcc/x86_64-unknown-linux-gnu/4.9.2/../../../../lib/libc.a(sdlclose.o)
 .note.GNU-stack
                0x0000000000000000        0x0 /usr/lib/gcc/x86_64-unknown-linux-gnu/4.9.2/../../../../lib/libc.a(sdlsym.o)
 .note.GNU-stack
                0x0000000000000000        0x0 /usr/lib/gcc/x86_64-unknown-linux-gnu/4.9.2/../../../../lib/libc.a(sdlvsym.o)
 .note.GNU-stack
                0x0000000000000000        0x0 /usr/lib/gcc/x86_64-unknown-linux-gnu/4.9.2/../../../../lib/libc.a(strpbrk.o)
 .note.GNU-stack
                0x0000000000000000        0x0 /usr/lib/gcc/x86_64-unknown-linux-gnu/4.9.2/../../../../lib/libc.a(strncase_l.o)
 .note.GNU-stack
                0x0000000000000000        0x0 /usr/lib/gcc/x86_64-unknown-linux-gnu/4.9.2/../../../../lib/libc.a(strncase_l-ssse3.o)
 .note.GNU-stack
                0x0000000000000000        0x0 /usr/lib/gcc/x86_64-unknown-linux-gnu/4.9.2/../../../../lib/libc.a(strncase_l-nonascii.o)
 .note.GNU-stack
                0x0000000000000000        0x0 /usr/lib/gcc/x86_64-unknown-linux-gnu/4.9.2/../../../../lib/libc.a(profil.o)
 .note.GNU-stack
                0x0000000000000000        0x0 /usr/lib/gcc/x86_64-unknown-linux-gnu/4.9.2/../../../../lib/libc.a(prof-freq.o)
 .note.GNU-stack
                0x0000000000000000        0x0 /usr/lib/gcc/x86_64-unknown-linux-gnu/4.9.2/../../../../lib/libc.a(dl-sym.o)
 .note.GNU-stack
                0x0000000000000000        0x0 /usr/lib/gcc/x86_64-unknown-linux-gnu/4.9.2/../../../../lib/libc.a(setitimer.o)
 .note.GNU-stack
                0x0000000000000000        0x0 /usr/lib/gcc/x86_64-unknown-linux-gnu/4.9.2/libgcc_eh.a(unwind-dw2.o)
 .note.GNU-stack
                0x0000000000000000        0x0 /usr/lib/gcc/x86_64-unknown-linux-gnu/4.9.2/libgcc_eh.a(unwind-dw2-fde-dip.o)
 .note.GNU-stack
                0x0000000000000000        0x0 /usr/lib/gcc/x86_64-unknown-linux-gnu/4.9.2/libgcc_eh.a(unwind-c.o)
 .note.GNU-stack
                0x0000000000000000        0x0 /usr/lib/gcc/x86_64-unknown-linux-gnu/4.9.2/../../../../lib/libc.a(dl-iteratephdr.o)
 .note.GNU-stack
                0x0000000000000000        0x0 /usr/lib/gcc/x86_64-unknown-linux-gnu/4.9.2/crtend.o
 .note.GNU-stack
                0x0000000000000000        0x0 /usr/lib/gcc/x86_64-unknown-linux-gnu/4.9.2/../../../../lib/crtn.o

Memory Configuration

Name             Origin             Length             Attributes
*default*        0x0000000000000000 0xffffffffffffffff

Linker script and memory map

LOAD /usr/lib/gcc/x86_64-unknown-linux-gnu/4.9.2/../../../../lib/crt1.o
LOAD /usr/lib/gcc/x86_64-unknown-linux-gnu/4.9.2/../../../../lib/crti.o
LOAD /usr/lib/gcc/x86_64-unknown-linux-gnu/4.9.2/crtbeginT.o
LOAD src/main.o
LOAD ../lib/libprinter.a
LOAD /usr/lib/gcc/x86_64-unknown-linux-gnu/4.9.2/../../../../lib/libc.a
LOAD /usr/lib/gcc/x86_64-unknown-linux-gnu/4.9.2/libgcc.a
LOAD /usr/lib/gcc/x86_64-unknown-linux-gnu/4.9.2/libgcc_eh.a
LOAD /usr/lib/gcc/x86_64-unknown-linux-gnu/4.9.2/../../../../lib/libc.a
LOAD /usr/lib/gcc/x86_64-unknown-linux-gnu/4.9.2/crtend.o
LOAD /usr/lib/gcc/x86_64-unknown-linux-gnu/4.9.2/../../../../lib/crtn.o
                0x0000000000400000                PROVIDE (__executable_start, 0x400000)
                0x0000000000400158                . = (0x400000 + SIZEOF_HEADERS)

.interp
 *(.interp)

.note.ABI-tag   0x0000000000400158       0x20
 .note.ABI-tag  0x0000000000400158       0x20 /usr/lib/gcc/x86_64-unknown-linux-gnu/4.9.2/../../../../lib/crt1.o

.note.gnu.build-id
 *(.note.gnu.build-id)

.hash
 *(.hash)

.gnu.hash
 *(.gnu.hash)

.dynsym
 *(.dynsym)

.dynstr
 *(.dynstr)

.gnu.version
 *(.gnu.version)

.gnu.version_d
 *(.gnu.version_d)

.gnu.version_r
 *(.gnu.version_r)

.rela.dyn       0x0000000000400178        0x0
 *(.rela.init)
 *(.rela.text .rela.text.* .rela.gnu.linkonce.t.*)
 .rela.text     0x0000000000400178        0x0 /usr/lib/gcc/x86_64-unknown-linux-gnu/4.9.2/../../../../lib/crt1.o
 .rela.text.startup
                0x0000000000400178        0x0 /usr/lib/gcc/x86_64-unknown-linux-gnu/4.9.2/../../../../lib/crt1.o
 .rela.text.unlikely
                0x0000000000400178        0x0 /usr/lib/gcc/x86_64-unknown-linux-gnu/4.9.2/../../../../lib/crt1.o
 .rela.text.sse4.2
                0x0000000000400178        0x0 /usr/lib/gcc/x86_64-unknown-linux-gnu/4.9.2/../../../../lib/crt1.o
 .rela.text.avx
                0x0000000000400178        0x0 /usr/lib/gcc/x86_64-unknown-linux-gnu/4.9.2/../../../../lib/crt1.o
 .rela.text.sse4.1
                0x0000000000400178        0x0 /usr/lib/gcc/x86_64-unknown-linux-gnu/4.9.2/../../../../lib/crt1.o
 .rela.text.ssse3
                0x0000000000400178        0x0 /usr/lib/gcc/x86_64-unknown-linux-gnu/4.9.2/../../../../lib/crt1.o
 *(.rela.fini)
 *(.rela.rodata .rela.rodata.* .rela.gnu.linkonce.r.*)
 .rela.rodata   0x0000000000400178        0x0 /usr/lib/gcc/x86_64-unknown-linux-gnu/4.9.2/../../../../lib/crt1.o
 *(.rela.data .rela.data.* .rela.gnu.linkonce.d.*)
 .rela.data     0x0000000000400178        0x0 /usr/lib/gcc/x86_64-unknown-linux-gnu/4.9.2/../../../../lib/crt1.o
 *(.rela.tdata .rela.tdata.* .rela.gnu.linkonce.td.*)
 .rela.tdata    0x0000000000400178        0x0 /usr/lib/gcc/x86_64-unknown-linux-gnu/4.9.2/../../../../lib/crt1.o
 *(.rela.tbss .rela.tbss.* .rela.gnu.linkonce.tb.*)
 *(.rela.ctors)
 *(.rela.dtors)
 *(.rela.got)
 .rela.got      0x0000000000400178        0x0 /usr/lib/gcc/x86_64-unknown-linux-gnu/4.9.2/../../../../lib/crt1.o
 *(.rela.bss .rela.bss.* .rela.gnu.linkonce.b.*)
 *(.rela.ldata .rela.ldata.* .rela.gnu.linkonce.l.*)
 *(.rela.lbss .rela.lbss.* .rela.gnu.linkonce.lb.*)
 *(.rela.lrodata .rela.lrodata.* .rela.gnu.linkonce.lr.*)
 *(.rela.ifunc)
 .rela__libc_freeres_fn
                0x0000000000400178        0x0 /usr/lib/gcc/x86_64-unknown-linux-gnu/4.9.2/../../../../lib/crt1.o
 .rela.eh_frame
                0x0000000000400178        0x0 /usr/lib/gcc/x86_64-unknown-linux-gnu/4.9.2/../../../../lib/crt1.o
 .rela__libc_thread_freeres_fn
                0x0000000000400178        0x0 /usr/lib/gcc/x86_64-unknown-linux-gnu/4.9.2/../../../../lib/crt1.o

.rela.plt       0x0000000000400178       0xf0
 *(.rela.plt)
                0x0000000000400178                PROVIDE (__rela_iplt_start, .)
 *(.rela.iplt)
 .rela.iplt     0x0000000000400178       0xf0 /usr/lib/gcc/x86_64-unknown-linux-gnu/4.9.2/../../../../lib/crt1.o
                0x0000000000400268                PROVIDE (__rela_iplt_end, .)

.init           0x0000000000400268       0x1a
 *(SORT(.init))
 .init          0x0000000000400268       0x15 /usr/lib/gcc/x86_64-unknown-linux-gnu/4.9.2/../../../../lib/crti.o
                0x0000000000400268                _init
 .init          0x000000000040027d        0x5 /usr/lib/gcc/x86_64-unknown-linux-gnu/4.9.2/../../../../lib/crtn.o

.plt            0x0000000000400290       0xa0
 *(.plt)
 *(.iplt)
 .iplt          0x0000000000400290       0xa0 /usr/lib/gcc/x86_64-unknown-linux-gnu/4.9.2/../../../../lib/crt1.o

.plt.bnd
 *(.plt.bnd)

.text           0x0000000000400330    0x86894
 *(.text.unlikely .text.*_unlikely .text.unlikely.*)
 .text.unlikely
                0x0000000000400330        0x0 /usr/lib/gcc/x86_64-unknown-linux-gnu/4.9.2/crtbeginT.o
 .text.unlikely
                0x0000000000400330        0x0 src/main.o
 .text.unlikely
                0x0000000000400330        0x0 ../lib/libprinter.a(printer.o)
 .text.unlikely
                0x0000000000400330        0x0 /usr/lib/gcc/x86_64-unknown-linux-gnu/4.9.2/../../../../lib/libc.a(libc-start.o)
 .text.unlikely
                0x0000000000400330        0x0 /usr/lib/gcc/x86_64-unknown-linux-gnu/4.9.2/../../../../lib/libc.a(check_fds.o)
 .text.unlikely
                0x0000000000400330        0x0 /usr/lib/gcc/x86_64-unknown-linux-gnu/4.9.2/../../../../lib/libc.a(libc-tls.o)
 .text.unlikely
                0x0000000000400330        0x0 /usr/lib/gcc/x86_64-unknown-linux-gnu/4.9.2/../../../../lib/libc.a(elf-init.o)
 .text.unlikely
                0x0000000000400330        0x0 /usr/lib/gcc/x86_64-unknown-linux-gnu/4.9.2/../../../../lib/libc.a(assert.o)
 .text.unlikely
                0x0000000000400330        0x0 /usr/lib/gcc/x86_64-unknown-linux-gnu/4.9.2/../../../../lib/libc.a(dcgettext.o)
 .text.unlikely
                0x0000000000400330        0x0 /usr/lib/gcc/x86_64-unknown-linux-gnu/4.9.2/../../../../lib/libc.a(dcigettext.o)
 .text.unlikely
                0x0000000000400330        0x0 /usr/lib/gcc/x86_64-unknown-linux-gnu/4.9.2/../../../../lib/libc.a(finddomain.o)
 .text.unlikely
                0x0000000000400330        0x0 /usr/lib/gcc/x86_64-unknown-linux-gnu/4.9.2/../../../../lib/libc.a(loadmsgcat.o)
 .text.unlikely
                0x0000000000400330        0x0 /usr/lib/gcc/x86_64-unknown-linux-gnu/4.9.2/../../../../lib/libc.a(localealias.o)
 .text.unlikely
                0x0000000000400330        0x0 /usr/lib/gcc/x86_64-unknown-linux-gnu/4.9.2/../../../../lib/libc.a(l10nflist.o)
 .text.unlikely
                0x0000000000400330        0x0 /usr/lib/gcc/x86_64-unknown-linux-gnu/4.9.2/../../../../lib/libc.a(explodename.o)
 .text.unlikely
                0x0000000000400330        0x0 /usr/lib/gcc/x86_64-unknown-linux-gnu/4.9.2/../../../../lib/libc.a(plural.o)
 .text.unlikely
                0x0000000000400330        0x0 /usr/lib/gcc/x86_64-unknown-linux-gnu/4.9.2/../../../../lib/libc.a(plural-exp.o)
 .text.unlikely
                0x0000000000400330        0x0 /usr/lib/gcc/x86_64-unknown-linux-gnu/4.9.2/../../../../lib/libc.a(hash-string.o)
 .text.unlikely
                0x0000000000400330        0x0 /usr/lib/gcc/x86_64-unknown-linux-gnu/4.9.2/../../../../lib/libc.a(raise.o)
 .text.unlikely
                0x0000000000400330        0x0 /usr/lib/gcc/x86_64-unknown-linux-gnu/4.9.2/../../../../lib/libc.a(abort.o)
 .text.unlikely
                0x0000000000400330        0x0 /usr/lib/gcc/x86_64-unknown-linux-gnu/4.9.2/../../../../lib/libc.a(msort.o)
 .text.unlikely
                0x0000000000400330        0x0 /usr/lib/gcc/x86_64-unknown-linux-gnu/4.9.2/../../../../lib/libc.a(getenv.o)
 .text.unlikely
                0x0000000000400330        0x0 /usr/lib/gcc/x86_64-unknown-linux-gnu/4.9.2/../../../../lib/libc.a(exit.o)
 .text.unlikely
                0x0000000000400330        0x0 /usr/lib/gcc/x86_64-unknown-linux-gnu/4.9.2/../../../../lib/libc.a(cxa_atexit.o)
 .text.unlikely
                0x0000000000400330        0x0 /usr/lib/gcc/x86_64-unknown-linux-gnu/4.9.2/../../../../lib/libc.a(strtoul.o)
 .text.unlikely
                0x0000000000400330        0x0 /usr/lib/gcc/x86_64-unknown-linux-gnu/4.9.2/../../../../lib/libc.a(strtoul_l.o)
 .text.unlikely
                0x0000000000400330        0x0 /usr/lib/gcc/x86_64-unknown-linux-gnu/4.9.2/../../../../lib/libc.a(grouping.o)
 .text.unlikely
                0x0000000000400330        0x0 /usr/lib/gcc/x86_64-unknown-linux-gnu/4.9.2/../../../../lib/libc.a(asprintf.o)
 .text.unlikely
                0x0000000000400330        0x0 /usr/lib/gcc/x86_64-unknown-linux-gnu/4.9.2/../../../../lib/libc.a(fxprintf.o)
 .text.unlikely
                0x0000000000400330        0x0 /usr/lib/gcc/x86_64-unknown-linux-gnu/4.9.2/../../../../lib/libc.a(iofclose.o)
 .text.unlikely
                0x0000000000400330        0x0 /usr/lib/gcc/x86_64-unknown-linux-gnu/4.9.2/../../../../lib/libc.a(iofflush.o)
 .text.unlikely
                0x0000000000400330        0x0 /usr/lib/gcc/x86_64-unknown-linux-gnu/4.9.2/../../../../lib/libc.a(iofopen.o)
 .text.unlikely
                0x0000000000400330        0x0 /usr/lib/gcc/x86_64-unknown-linux-gnu/4.9.2/../../../../lib/libc.a(wprintf.o)
 .text.unlikely
                0x0000000000400330        0x0 /usr/lib/gcc/x86_64-unknown-linux-gnu/4.9.2/../../../../lib/libc.a(wfileops.o)
 .text.unlikely
                0x0000000000400330        0x0 /usr/lib/gcc/x86_64-unknown-linux-gnu/4.9.2/../../../../lib/libc.a(vasprintf.o)
 .text.unlikely
                0x0000000000400330        0x0 /usr/lib/gcc/x86_64-unknown-linux-gnu/4.9.2/../../../../lib/libc.a(fcloseall.o)
 .text.unlikely
                0x0000000000400330       0xc5 /usr/lib/gcc/x86_64-unknown-linux-gnu/4.9.2/../../../../lib/libc.a(libc_fatal.o)
 .text.unlikely
                0x00000000004003f5        0x0 /usr/lib/gcc/x86_64-unknown-linux-gnu/4.9.2/../../../../lib/libc.a(iofgets_u.o)
 .text.unlikely
                0x00000000004003f5        0x0 /usr/lib/gcc/x86_64-unknown-linux-gnu/4.9.2/../../../../lib/libc.a(fileops.o)
 .text.unlikely
                0x00000000004003f5        0x0 /usr/lib/gcc/x86_64-unknown-linux-gnu/4.9.2/../../../../lib/libc.a(genops.o)
 .text.unlikely
                0x00000000004003f5        0x0 /usr/lib/gcc/x86_64-unknown-linux-gnu/4.9.2/../../../../lib/libc.a(strops.o)
 .text.unlikely
                0x00000000004003f5        0x0 /usr/lib/gcc/x86_64-unknown-linux-gnu/4.9.2/../../../../lib/libc.a(malloc.o)
 .text.unlikely
                0x00000000004003f5        0x0 /usr/lib/gcc/x86_64-unknown-linux-gnu/4.9.2/../../../../lib/libc.a(morecore.o)
 .text.unlikely
                0x00000000004003f5        0x0 /usr/lib/gcc/x86_64-unknown-linux-gnu/4.9.2/../../../../lib/libc.a(strdup.o)
 .text.unlikely
                0x00000000004003f5        0x0 /usr/lib/gcc/x86_64-unknown-linux-gnu/4.9.2/../../../../lib/libc.a(strstr.o)
 .text.unlikely
                0x00000000004003f5        0x0 /usr/lib/gcc/x86_64-unknown-linux-gnu/4.9.2/../../../../lib/libc.a(memmove.o)
 .text.unlikely
                0x00000000004003f5        0x0 /usr/lib/gcc/x86_64-unknown-linux-gnu/4.9.2/../../../../lib/libc.a(wordcopy.o)
 .text.unlikely
                0x00000000004003f5        0x0 /usr/lib/gcc/x86_64-unknown-linux-gnu/4.9.2/../../../../lib/libc.a(cacheinfo.o)
 .text.unlikely
                0x00000000004003f5        0x0 /usr/lib/gcc/x86_64-unknown-linux-gnu/4.9.2/../../../../lib/libc.a(strcasecmp_l-nonascii.o)
 .text.unlikely
                0x00000000004003f5        0x0 /usr/lib/gcc/x86_64-unknown-linux-gnu/4.9.2/../../../../lib/libc.a(wmempcpy.o)
 .text.unlikely
                0x00000000004003f5        0x0 /usr/lib/gcc/x86_64-unknown-linux-gnu/4.9.2/../../../../lib/libc.a(wcsmbsload.o)
 .text.unlikely
                0x00000000004003f5        0x0 /usr/lib/gcc/x86_64-unknown-linux-gnu/4.9.2/../../../../lib/libc.a(_exit.o)
 .text.unlikely
                0x00000000004003f5        0x0 /usr/lib/gcc/x86_64-unknown-linux-gnu/4.9.2/../../../../lib/libc.a(sysconf.o)
 .text.unlikely
                0x00000000004003f5        0x0 /usr/lib/gcc/x86_64-unknown-linux-gnu/4.9.2/../../../../lib/libc.a(get_child_max.o)
 .text.unlikely
                0x00000000004003f5        0x0 /usr/lib/gcc/x86_64-unknown-linux-gnu/4.9.2/../../../../lib/libc.a(xstat.o)
 .text.unlikely
                0x00000000004003f5        0x0 /usr/lib/gcc/x86_64-unknown-linux-gnu/4.9.2/../../../../lib/libc.a(fxstat.o)
 .text.unlikely
                0x00000000004003f5        0x0 /usr/lib/gcc/x86_64-unknown-linux-gnu/4.9.2/../../../../lib/libc.a(fcntl.o)
 .text.unlikely
                0x00000000004003f5        0x0 /usr/lib/gcc/x86_64-unknown-linux-gnu/4.9.2/../../../../lib/libc.a(getcwd.o)
 .text.unlikely
                0x00000000004003f5        0x0 /usr/lib/gcc/x86_64-unknown-linux-gnu/4.9.2/../../../../lib/libc.a(sbrk.o)
 .text.unlikely
                0x00000000004003f5        0x0 /usr/lib/gcc/x86_64-unknown-linux-gnu/4.9.2/../../../../lib/libc.a(getpagesize.o)
 .text.unlikely
                0x00000000004003f5        0x0 /usr/lib/gcc/x86_64-unknown-linux-gnu/4.9.2/../../../../lib/libc.a(getdtsz.o)
 .text.unlikely
                0x00000000004003f5        0x0 /usr/lib/gcc/x86_64-unknown-linux-gnu/4.9.2/../../../../lib/libc.a(tsearch.o)
 .text.unlikely
                0x00000000004003f5        0x0 /usr/lib/gcc/x86_64-unknown-linux-gnu/4.9.2/../../../../lib/libc.a(getsysstats.o)
 .text.unlikely
                0x00000000004003f5        0x0 /usr/lib/gcc/x86_64-unknown-linux-gnu/4.9.2/../../../../lib/libc.a(getclktck.o)
 .text.unlikely
                0x00000000004003f5        0x0 /usr/lib/gcc/x86_64-unknown-linux-gnu/4.9.2/../../../../lib/libc.a(init-misc.o)
 .text.unlikely
                0x00000000004003f5        0x0 /usr/lib/gcc/x86_64-unknown-linux-gnu/4.9.2/../../../../lib/libc.a(alloca_cutoff.o)
 .text.unlikely
                0x00000000004003f5        0x0 /usr/lib/gcc/x86_64-unknown-linux-gnu/4.9.2/../../../../lib/libc.a(register-atfork.o)
 .text.unlikely
                0x00000000004003f5        0x0 /usr/lib/gcc/x86_64-unknown-linux-gnu/4.9.2/../../../../lib/libc.a(backtrace.o)
 .text.unlikely
                0x00000000004003f5        0x0 /usr/lib/gcc/x86_64-unknown-linux-gnu/4.9.2/../../../../lib/libc.a(backtracesymsfd.o)
 .text.unlikely
                0x00000000004003f5        0x0 /usr/lib/gcc/x86_64-unknown-linux-gnu/4.9.2/../../../../lib/libc.a(chk_fail.o)
 .text.unlikely
                0x00000000004003f5        0x0 /usr/lib/gcc/x86_64-unknown-linux-gnu/4.9.2/../../../../lib/libc.a(fortify_fail.o)
 .text.unlikely
                0x00000000004003f5        0x0 /usr/lib/gcc/x86_64-unknown-linux-gnu/4.9.2/../../../../lib/libc.a(dl-debug.o)
 .text.unlikely
                0x00000000004003f5        0x0 /usr/lib/gcc/x86_64-unknown-linux-gnu/4.9.2/../../../../lib/libc.a(dl-support.o)
 .text.unlikely
                0x00000000004003f5        0x0 /usr/lib/gcc/x86_64-unknown-linux-gnu/4.9.2/../../../../lib/libc.a(dl-addr.o)
 .text.unlikely
                0x00000000004003f5        0x0 /usr/lib/gcc/x86_64-unknown-linux-gnu/4.9.2/../../../../lib/libc.a(enbl-secure.o)
 .text.unlikely
                0x00000000004003f5        0x0 /usr/lib/gcc/x86_64-unknown-linux-gnu/4.9.2/../../../../lib/libc.a(dl-sysdep.o)
 .text.unlikely
                0x00000000004003f5        0x0 /usr/lib/gcc/x86_64-unknown-linux-gnu/4.9.2/../../../../lib/libc.a(init-first.o)
 .text.unlikely
                0x00000000004003f5        0x0 /usr/lib/gcc/x86_64-unknown-linux-gnu/4.9.2/../../../../lib/libc.a(init-arch.o)
 .text.unlikely
                0x00000000004003f5        0x0 /usr/lib/gcc/x86_64-unknown-linux-gnu/4.9.2/../../../../lib/libc.a(gconv_open.o)
 .text.unlikely
                0x00000000004003f5        0x0 /usr/lib/gcc/x86_64-unknown-linux-gnu/4.9.2/../../../../lib/libc.a(gconv.o)
 .text.unlikely
                0x00000000004003f5        0x0 /usr/lib/gcc/x86_64-unknown-linux-gnu/4.9.2/../../../../lib/libc.a(gconv_close.o)
 .text.unlikely
                0x00000000004003f5        0x0 /usr/lib/gcc/x86_64-unknown-linux-gnu/4.9.2/../../../../lib/libc.a(gconv_db.o)
 .text.unlikely
                0x00000000004003f5        0x0 /usr/lib/gcc/x86_64-unknown-linux-gnu/4.9.2/../../../../lib/libc.a(gconv_conf.o)
 .text.unlikely
                0x00000000004003f5        0x0 /usr/lib/gcc/x86_64-unknown-linux-gnu/4.9.2/../../../../lib/libc.a(gconv_builtin.o)
 .text.unlikely
                0x00000000004003f5        0x0 /usr/lib/gcc/x86_64-unknown-linux-gnu/4.9.2/../../../../lib/libc.a(gconv_simple.o)
 .text.unlikely
                0x00000000004003f5        0x0 /usr/lib/gcc/x86_64-unknown-linux-gnu/4.9.2/../../../../lib/libc.a(gconv_trans.o)
 .text.unlikely
                0x00000000004003f5        0x0 /usr/lib/gcc/x86_64-unknown-linux-gnu/4.9.2/../../../../lib/libc.a(gconv_cache.o)
 .text.unlikely
                0x00000000004003f5        0x0 /usr/lib/gcc/x86_64-unknown-linux-gnu/4.9.2/../../../../lib/libc.a(gconv_dl.o)
 .text.unlikely
                0x00000000004003f5        0x0 /usr/lib/gcc/x86_64-unknown-linux-gnu/4.9.2/../../../../lib/libc.a(setlocale.o)
 .text.unlikely
                0x00000000004003f5        0x0 /usr/lib/gcc/x86_64-unknown-linux-gnu/4.9.2/../../../../lib/libc.a(findlocale.o)
 .text.unlikely
                0x00000000004003f5        0x0 /usr/lib/gcc/x86_64-unknown-linux-gnu/4.9.2/../../../../lib/libc.a(loadlocale.o)
 .text.unlikely
                0x00000000004003f5        0x0 /usr/lib/gcc/x86_64-unknown-linux-gnu/4.9.2/../../../../lib/libc.a(loadarchive.o)
 .text.unlikely
                0x00000000004003f5        0x0 /usr/lib/gcc/x86_64-unknown-linux-gnu/4.9.2/../../../../lib/libc.a(lc-ctype.o)
 .text.unlikely
                0x00000000004003f5        0x0 /usr/lib/gcc/x86_64-unknown-linux-gnu/4.9.2/../../../../lib/libc.a(localename.o)
 .text.unlikely
                0x00000000004003f5        0x0 /usr/lib/gcc/x86_64-unknown-linux-gnu/4.9.2/../../../../lib/libc.a(ctype-info.o)
 .text.unlikely
                0x00000000004003f5        0x0 /usr/lib/gcc/x86_64-unknown-linux-gnu/4.9.2/../../../../lib/libc.a(setfpucw.o)
 .text.unlikely
                0x00000000004003f5        0x0 /usr/lib/gcc/x86_64-unknown-linux-gnu/4.9.2/../../../../lib/libc.a(sigjmp.o)
 .text.unlikely
                0x00000000004003f5        0x0 /usr/lib/gcc/x86_64-unknown-linux-gnu/4.9.2/../../../../lib/libc.a(sigaction.o)
 .text.unlikely
                0x00000000004003f5        0x0 /usr/lib/gcc/x86_64-unknown-linux-gnu/4.9.2/../../../../lib/libc.a(sigprocmask.o)
 .text.unlikely
                0x00000000004003f5        0x0 /usr/lib/gcc/x86_64-unknown-linux-gnu/4.9.2/../../../../lib/libc.a(qsort.o)
 .text.unlikely
                0x00000000004003f5        0x0 /usr/lib/gcc/x86_64-unknown-linux-gnu/4.9.2/../../../../lib/libc.a(setenv.o)
 .text.unlikely
                0x00000000004003f5        0x0 /usr/lib/gcc/x86_64-unknown-linux-gnu/4.9.2/../../../../lib/libc.a(secure-getenv.o)
 .text.unlikely
                0x00000000004003f5        0x0 /usr/lib/gcc/x86_64-unknown-linux-gnu/4.9.2/../../../../lib/libc.a(strtol.o)
 .text.unlikely
                0x00000000004003f5        0x0 /usr/lib/gcc/x86_64-unknown-linux-gnu/4.9.2/../../../../lib/libc.a(strtol_l.o)
 .text.unlikely
                0x00000000004003f5        0x0 /usr/lib/gcc/x86_64-unknown-linux-gnu/4.9.2/../../../../lib/libc.a(_itoa.o)
 .text.unlikely
                0x00000000004003f5      0x337 /usr/lib/gcc/x86_64-unknown-linux-gnu/4.9.2/../../../../lib/libc.a(vfprintf.o)
 .text.unlikely
                0x000000000040072c        0x0 /usr/lib/gcc/x86_64-unknown-linux-gnu/4.9.2/../../../../lib/libc.a(printf_fp.o)
 .text.unlikely
                0x000000000040072c        0x0 /usr/lib/gcc/x86_64-unknown-linux-gnu/4.9.2/../../../../lib/libc.a(reg-printf.o)
 .text.unlikely
                0x000000000040072c        0x0 /usr/lib/gcc/x86_64-unknown-linux-gnu/4.9.2/../../../../lib/libc.a(printf_fphex.o)
 .text.unlikely
                0x000000000040072c        0x0 /usr/lib/gcc/x86_64-unknown-linux-gnu/4.9.2/../../../../lib/libc.a(reg-modifier.o)
 .text.unlikely
                0x000000000040072c        0x0 /usr/lib/gcc/x86_64-unknown-linux-gnu/4.9.2/../../../../lib/libc.a(reg-type.o)
 .text.unlikely
                0x000000000040072c        0x0 /usr/lib/gcc/x86_64-unknown-linux-gnu/4.9.2/../../../../lib/libc.a(fprintf.o)
 .text.unlikely
                0x000000000040072c      0x252 /usr/lib/gcc/x86_64-unknown-linux-gnu/4.9.2/../../../../lib/libc.a(vfwprintf.o)
 .text.unlikely
                0x000000000040097e        0x0 /usr/lib/gcc/x86_64-unknown-linux-gnu/4.9.2/../../../../lib/libc.a(sscanf.o)
 .text.unlikely
                0x000000000040097e        0x0 /usr/lib/gcc/x86_64-unknown-linux-gnu/4.9.2/../../../../lib/libc.a(funlockfile.o)
 .text.unlikely
                0x000000000040097e        0x0 /usr/lib/gcc/x86_64-unknown-linux-gnu/4.9.2/../../../../lib/libc.a(printf-parsemb.o)
 .text.unlikely
                0x000000000040097e        0x0 /usr/lib/gcc/x86_64-unknown-linux-gnu/4.9.2/../../../../lib/libc.a(printf-parsewc.o)
 .text.unlikely
                0x000000000040097e        0x0 /usr/lib/gcc/x86_64-unknown-linux-gnu/4.9.2/../../../../lib/libc.a(filedoalloc.o)
 .text.unlikely
                0x000000000040097e        0x0 /usr/lib/gcc/x86_64-unknown-linux-gnu/4.9.2/../../../../lib/libc.a(iofputs.o)
 .text.unlikely
                0x000000000040097e        0x0 /usr/lib/gcc/x86_64-unknown-linux-gnu/4.9.2/../../../../lib/libc.a(wfiledoalloc.o)
 .text.unlikely
                0x000000000040097e        0x0 /usr/lib/gcc/x86_64-unknown-linux-gnu/4.9.2/../../../../lib/libc.a(iofwrite.o)
 .text.unlikely
                0x000000000040097e        0x0 /usr/lib/gcc/x86_64-unknown-linux-gnu/4.9.2/../../../../lib/libc.a(iogetdelim.o)
 .text.unlikely
                0x000000000040097e        0x0 /usr/lib/gcc/x86_64-unknown-linux-gnu/4.9.2/../../../../lib/libc.a(iogetline.o)
 .text.unlikely
                0x000000000040097e        0x0 /usr/lib/gcc/x86_64-unknown-linux-gnu/4.9.2/../../../../lib/libc.a(iopadn.o)
 .text.unlikely
                0x000000000040097e        0x0 /usr/lib/gcc/x86_64-unknown-linux-gnu/4.9.2/../../../../lib/libc.a(iovsscanf.o)
 .text.unlikely
                0x000000000040097e        0x0 /usr/lib/gcc/x86_64-unknown-linux-gnu/4.9.2/../../../../lib/libc.a(iowpadn.o)
 .text.unlikely
                0x000000000040097e        0x0 /usr/lib/gcc/x86_64-unknown-linux-gnu/4.9.2/../../../../lib/libc.a(wgenops.o)
 .text.unlikely
                0x000000000040097e        0x0 /usr/lib/gcc/x86_64-unknown-linux-gnu/4.9.2/../../../../lib/libc.a(iofwide.o)
 .text.unlikely
                0x000000000040097e        0x0 /usr/lib/gcc/x86_64-unknown-linux-gnu/4.9.2/../../../../lib/libc.a(strndup.o)
 .text.unlikely
                0x000000000040097e        0x0 /usr/lib/gcc/x86_64-unknown-linux-gnu/4.9.2/../../../../lib/libc.a(_strerror.o)
 .text.unlikely
                0x000000000040097e        0x0 /usr/lib/gcc/x86_64-unknown-linux-gnu/4.9.2/../../../../lib/libc.a(memmem.o)
 .text.unlikely
                0x000000000040097e        0x0 /usr/lib/gcc/x86_64-unknown-linux-gnu/4.9.2/../../../../lib/libc.a(argz-ctsep.o)
 .text.unlikely
                0x000000000040097e        0x0 /usr/lib/gcc/x86_64-unknown-linux-gnu/4.9.2/../../../../lib/libc.a(argz-addsep.o)
 .text.unlikely
                0x000000000040097e        0x0 /usr/lib/gcc/x86_64-unknown-linux-gnu/4.9.2/../../../../lib/libc.a(wmemcpy.o)
 .text.unlikely
                0x000000000040097e        0x0 /usr/lib/gcc/x86_64-unknown-linux-gnu/4.9.2/../../../../lib/libc.a(wmemmove.o)
 .text.unlikely
                0x000000000040097e        0x0 /usr/lib/gcc/x86_64-unknown-linux-gnu/4.9.2/../../../../lib/libc.a(wmemset.o)
 .text.unlikely
                0x000000000040097e        0x0 /usr/lib/gcc/x86_64-unknown-linux-gnu/4.9.2/../../../../lib/libc.a(btowc.o)
 .text.unlikely
                0x000000000040097e        0x0 /usr/lib/gcc/x86_64-unknown-linux-gnu/4.9.2/../../../../lib/libc.a(wcrtomb.o)
 .text.unlikely
                0x000000000040097e        0x0 /usr/lib/gcc/x86_64-unknown-linux-gnu/4.9.2/../../../../lib/libc.a(mbsrtowcs.o)
 .text.unlikely
                0x000000000040097e        0x0 /usr/lib/gcc/x86_64-unknown-linux-gnu/4.9.2/../../../../lib/libc.a(wcsrtombs.o)
 .text.unlikely
                0x000000000040097e        0x0 /usr/lib/gcc/x86_64-unknown-linux-gnu/4.9.2/../../../../lib/libc.a(wcsnlen.o)
 .text.unlikely
                0x000000000040097e        0x0 /usr/lib/gcc/x86_64-unknown-linux-gnu/4.9.2/../../../../lib/libc.a(wcschrnul.o)
 .text.unlikely
                0x000000000040097e        0x0 /usr/lib/gcc/x86_64-unknown-linux-gnu/4.9.2/../../../../lib/libc.a(mbsrtowcs_l.o)
 .text.unlikely
                0x000000000040097e        0x0 /usr/lib/gcc/x86_64-unknown-linux-gnu/4.9.2/../../../../lib/libc.a(time.o)
 .text.unlikely
                0x000000000040097e        0x0 /usr/lib/gcc/x86_64-unknown-linux-gnu/4.9.2/../../../../lib/libc.a(tzset.o)
 .text.unlikely
                0x000000000040097e        0x0 /usr/lib/gcc/x86_64-unknown-linux-gnu/4.9.2/../../../../lib/libc.a(tzfile.o)
 .text.unlikely
                0x000000000040097e        0x0 /usr/lib/gcc/x86_64-unknown-linux-gnu/4.9.2/../../../../lib/libc.a(opendir.o)
 .text.unlikely
                0x000000000040097e        0x0 /usr/lib/gcc/x86_64-unknown-linux-gnu/4.9.2/../../../../lib/libc.a(closedir.o)
 .text.unlikely
                0x000000000040097e        0x0 /usr/lib/gcc/x86_64-unknown-linux-gnu/4.9.2/../../../../lib/libc.a(readdir.o)
 .text.unlikely
                0x000000000040097e        0x0 /usr/lib/gcc/x86_64-unknown-linux-gnu/4.9.2/../../../../lib/libc.a(rewinddir.o)
 .text.unlikely
                0x000000000040097e        0x0 /usr/lib/gcc/x86_64-unknown-linux-gnu/4.9.2/../../../../lib/libc.a(getdents.o)
 .text.unlikely
                0x000000000040097e        0x0 /usr/lib/gcc/x86_64-unknown-linux-gnu/4.9.2/../../../../lib/libc.a(fdopendir.o)
 .text.unlikely
                0x000000000040097e        0x0 /usr/lib/gcc/x86_64-unknown-linux-gnu/4.9.2/../../../../lib/libc.a(lxstat.o)
 .text.unlikely
                0x000000000040097e        0x0 /usr/lib/gcc/x86_64-unknown-linux-gnu/4.9.2/../../../../lib/libc.a(fxstatat.o)
 .text.unlikely
                0x000000000040097e        0x0 /usr/lib/gcc/x86_64-unknown-linux-gnu/4.9.2/../../../../lib/libc.a(openat.o)
 .text.unlikely
                0x000000000040097e        0x0 /usr/lib/gcc/x86_64-unknown-linux-gnu/4.9.2/../../../../lib/libc.a(isatty.o)
 .text.unlikely
                0x000000000040097e        0x0 /usr/lib/gcc/x86_64-unknown-linux-gnu/4.9.2/../../../../lib/libc.a(tcgetattr.o)
 .text.unlikely
                0x000000000040097e        0x0 /usr/lib/gcc/x86_64-unknown-linux-gnu/4.9.2/../../../../lib/libc.a(brk.o)
 .text.unlikely
                0x000000000040097e        0x0 /usr/lib/gcc/x86_64-unknown-linux-gnu/4.9.2/../../../../lib/libc.a(wctrans.o)
 .text.unlikely
                0x000000000040097e        0x0 /usr/lib/gcc/x86_64-unknown-linux-gnu/4.9.2/../../../../lib/libc.a(towctrans.o)
 .text.unlikely
                0x000000000040097e        0x0 /usr/lib/gcc/x86_64-unknown-linux-gnu/4.9.2/../../../../lib/libc.a(readonly-area.o)
 .text.unlikely
                0x000000000040097e        0x0 /usr/lib/gcc/x86_64-unknown-linux-gnu/4.9.2/../../../../lib/libc.a(dl-load.o)
 .text.unlikely
                0x000000000040097e        0x0 /usr/lib/gcc/x86_64-unknown-linux-gnu/4.9.2/../../../../lib/libc.a(dl-lookup.o)
 .text.unlikely
                0x000000000040097e        0x0 /usr/lib/gcc/x86_64-unknown-linux-gnu/4.9.2/../../../../lib/libc.a(dl-object.o)
 .text.unlikely
                0x000000000040097e        0x0 /usr/lib/gcc/x86_64-unknown-linux-gnu/4.9.2/../../../../lib/libc.a(dl-reloc.o)
 .text.unlikely
                0x000000000040097e        0x0 /usr/lib/gcc/x86_64-unknown-linux-gnu/4.9.2/../../../../lib/libc.a(dl-hwcaps.o)
 .text.unlikely
                0x000000000040097e        0x0 /usr/lib/gcc/x86_64-unknown-linux-gnu/4.9.2/../../../../lib/libc.a(dl-error.o)
 .text.unlikely
                0x000000000040097e        0x0 /usr/lib/gcc/x86_64-unknown-linux-gnu/4.9.2/../../../../lib/libc.a(dl-misc.o)
 .text.unlikely
                0x000000000040097e       0x1c /usr/lib/gcc/x86_64-unknown-linux-gnu/4.9.2/../../../../lib/libc.a(dl-tls.o)
 .text.unlikely
                0x000000000040099a        0x0 /usr/lib/gcc/x86_64-unknown-linux-gnu/4.9.2/../../../../lib/libc.a(dl-origin.o)
 .text.unlikely
                0x000000000040099a        0x0 /usr/lib/gcc/x86_64-unknown-linux-gnu/4.9.2/../../../../lib/libc.a(dl-scope.o)
 .text.unlikely
                0x000000000040099a        0x0 /usr/lib/gcc/x86_64-unknown-linux-gnu/4.9.2/../../../../lib/libc.a(dl-execstack.o)
 .text.unlikely
                0x000000000040099a        0x0 /usr/lib/gcc/x86_64-unknown-linux-gnu/4.9.2/../../../../lib/libc.a(dl-open.o)
 .text.unlikely
                0x000000000040099a        0x0 /usr/lib/gcc/x86_64-unknown-linux-gnu/4.9.2/../../../../lib/libc.a(dl-close.o)
 .text.unlikely
                0x000000000040099a        0x0 /usr/lib/gcc/x86_64-unknown-linux-gnu/4.9.2/../../../../lib/libc.a(dl-cache.o)
 .text.unlikely
                0x000000000040099a        0x0 /usr/lib/gcc/x86_64-unknown-linux-gnu/4.9.2/../../../../lib/libc.a(dl-profstub.o)
 .text.unlikely
                0x000000000040099a        0x0 /usr/lib/gcc/x86_64-unknown-linux-gnu/4.9.2/../../../../lib/libc.a(dl-libc.o)
 .text.unlikely
                0x000000000040099a        0x0 /usr/lib/gcc/x86_64-unknown-linux-gnu/4.9.2/../../../../lib/libc.a(dl-tsd.o)
 .text.unlikely
                0x000000000040099a        0x0 /usr/lib/gcc/x86_64-unknown-linux-gnu/4.9.2/../../../../lib/libc.a(tlsdesc.o)
 .text.unlikely
                0x000000000040099a        0x0 /usr/lib/gcc/x86_64-unknown-linux-gnu/4.9.2/../../../../lib/libc.a(s_isinf.o)
 .text.unlikely
                0x000000000040099a        0x0 /usr/lib/gcc/x86_64-unknown-linux-gnu/4.9.2/../../../../lib/libc.a(s_isnan.o)
 .text.unlikely
                0x000000000040099a        0x0 /usr/lib/gcc/x86_64-unknown-linux-gnu/4.9.2/../../../../lib/libc.a(s_isinfl.o)
 .text.unlikely
                0x000000000040099a        0x0 /usr/lib/gcc/x86_64-unknown-linux-gnu/4.9.2/../../../../lib/libc.a(s_isnanl.o)
 .text.unlikely
                0x000000000040099a        0x0 /usr/lib/gcc/x86_64-unknown-linux-gnu/4.9.2/../../../../lib/libc.a(cmp.o)
 .text.unlikely
                0x000000000040099a        0x0 /usr/lib/gcc/x86_64-unknown-linux-gnu/4.9.2/../../../../lib/libc.a(divrem.o)
 .text.unlikely
                0x000000000040099a        0x0 /usr/lib/gcc/x86_64-unknown-linux-gnu/4.9.2/../../../../lib/libc.a(mul.o)
 .text.unlikely
                0x000000000040099a        0x0 /usr/lib/gcc/x86_64-unknown-linux-gnu/4.9.2/../../../../lib/libc.a(mul_n.o)
 .text.unlikely
                0x000000000040099a        0x0 /usr/lib/gcc/x86_64-unknown-linux-gnu/4.9.2/../../../../lib/libc.a(dbl2mpn.o)
 .text.unlikely
                0x000000000040099a        0x0 /usr/lib/gcc/x86_64-unknown-linux-gnu/4.9.2/../../../../lib/libc.a(ldbl2mpn.o)
 .text.unlikely
                0x000000000040099a        0x0 /usr/lib/gcc/x86_64-unknown-linux-gnu/4.9.2/../../../../lib/libc.a(vfscanf.o)
 .text.unlikely
                0x000000000040099a        0x0 /usr/lib/gcc/x86_64-unknown-linux-gnu/4.9.2/../../../../lib/libc.a(fileno.o)
 .text.unlikely
                0x000000000040099a        0x0 /usr/lib/gcc/x86_64-unknown-linux-gnu/4.9.2/../../../../lib/libc.a(fseek.o)
 .text.unlikely
                0x000000000040099a        0x0 /usr/lib/gcc/x86_64-unknown-linux-gnu/4.9.2/../../../../lib/libc.a(ftello.o)
 .text.unlikely
                0x000000000040099a        0x0 /usr/lib/gcc/x86_64-unknown-linux-gnu/4.9.2/../../../../lib/libc.a(iofread_u.o)
 .text.unlikely
                0x000000000040099a        0x0 /usr/lib/gcc/x86_64-unknown-linux-gnu/4.9.2/../../../../lib/libc.a(sdlerror.o)
 .text.unlikely
                0x000000000040099a        0x0 /usr/lib/gcc/x86_64-unknown-linux-gnu/4.9.2/../../../../lib/libc.a(sdladdr.o)
 .text.unlikely
                0x000000000040099a        0x0 /usr/lib/gcc/x86_64-unknown-linux-gnu/4.9.2/../../../../lib/libc.a(sdladdr1.o)
 .text.unlikely
                0x000000000040099a        0x0 /usr/lib/gcc/x86_64-unknown-linux-gnu/4.9.2/../../../../lib/libc.a(sdlinfo.o)
 .text.unlikely
                0x000000000040099a        0x0 /usr/lib/gcc/x86_64-unknown-linux-gnu/4.9.2/../../../../lib/libc.a(sdlmopen.o)
 .text.unlikely
                0x000000000040099a        0x0 /usr/lib/gcc/x86_64-unknown-linux-gnu/4.9.2/../../../../lib/libc.a(strerror.o)
 .text.unlikely
                0x000000000040099a        0x0 /usr/lib/gcc/x86_64-unknown-linux-gnu/4.9.2/../../../../lib/libc.a(strsep.o)
 .text.unlikely
                0x000000000040099a        0x0 /usr/lib/gcc/x86_64-unknown-linux-gnu/4.9.2/../../../../lib/libc.a(mbrlen.o)
 .text.unlikely
                0x000000000040099a        0x0 /usr/lib/gcc/x86_64-unknown-linux-gnu/4.9.2/../../../../lib/libc.a(mbrtowc.o)
 .text.unlikely
                0x000000000040099a        0x0 /usr/lib/gcc/x86_64-unknown-linux-gnu/4.9.2/../../../../lib/libc.a(offtime.o)
 .text.unlikely
                0x000000000040099a        0x0 /usr/lib/gcc/x86_64-unknown-linux-gnu/4.9.2/../../../../lib/libc.a(localtime.o)
 .text.unlikely
                0x000000000040099a        0x0 /usr/lib/gcc/x86_64-unknown-linux-gnu/4.9.2/../../../../lib/libc.a(mktime.o)
 .text.unlikely
                0x000000000040099a        0x0 /usr/lib/gcc/x86_64-unknown-linux-gnu/4.9.2/../../../../lib/libc.a(getpid.o)
 .text.unlikely
                0x000000000040099a        0x0 /usr/lib/gcc/x86_64-unknown-linux-gnu/4.9.2/../../../../lib/libc.a(dl-deps.o)
 .text.unlikely
                0x000000000040099a        0x0 /usr/lib/gcc/x86_64-unknown-linux-gnu/4.9.2/../../../../lib/libc.a(dl-runtime.o)
 .text.unlikely
                0x000000000040099a        0x0 /usr/lib/gcc/x86_64-unknown-linux-gnu/4.9.2/../../../../lib/libc.a(dl-init.o)
 .text.unlikely
                0x000000000040099a        0x0 /usr/lib/gcc/x86_64-unknown-linux-gnu/4.9.2/../../../../lib/libc.a(dl-fini.o)
 .text.unlikely
                0x000000000040099a        0x0 /usr/lib/gcc/x86_64-unknown-linux-gnu/4.9.2/../../../../lib/libc.a(dl-version.o)
 .text.unlikely
                0x000000000040099a        0x0 /usr/lib/gcc/x86_64-unknown-linux-gnu/4.9.2/../../../../lib/libc.a(dl-profile.o)
 .text.unlikely
                0x000000000040099a        0x0 /usr/lib/gcc/x86_64-unknown-linux-gnu/4.9.2/../../../../lib/libc.a(strtof.o)
 .text.unlikely
                0x000000000040099a        0x0 /usr/lib/gcc/x86_64-unknown-linux-gnu/4.9.2/../../../../lib/libc.a(strtod.o)
 .text.unlikely
                0x000000000040099a        0x0 /usr/lib/gcc/x86_64-unknown-linux-gnu/4.9.2/../../../../lib/libc.a(strtold.o)
 .text.unlikely
                0x000000000040099a        0x0 /usr/lib/gcc/x86_64-unknown-linux-gnu/4.9.2/../../../../lib/libc.a(strtof_l.o)
 .text.unlikely
                0x000000000040099a        0x0 /usr/lib/gcc/x86_64-unknown-linux-gnu/4.9.2/../../../../lib/libc.a(strtod_l.o)
 .text.unlikely
                0x000000000040099a        0x0 /usr/lib/gcc/x86_64-unknown-linux-gnu/4.9.2/../../../../lib/libc.a(strtold_l.o)
 .text.unlikely
                0x000000000040099a        0x0 /usr/lib/gcc/x86_64-unknown-linux-gnu/4.9.2/../../../../lib/libc.a(mpn2flt.o)
 .text.unlikely
                0x000000000040099a        0x0 /usr/lib/gcc/x86_64-unknown-linux-gnu/4.9.2/../../../../lib/libc.a(mpn2dbl.o)
 .text.unlikely
                0x000000000040099a        0x0 /usr/lib/gcc/x86_64-unknown-linux-gnu/4.9.2/../../../../lib/libc.a(mpn2ldbl.o)
 .text.unlikely
                0x000000000040099a        0x0 /usr/lib/gcc/x86_64-unknown-linux-gnu/4.9.2/../../../../lib/libc.a(ioseekoff.o)
 .text.unlikely
                0x000000000040099a        0x0 /usr/lib/gcc/x86_64-unknown-linux-gnu/4.9.2/../../../../lib/libc.a(sdlopen.o)
 .text.unlikely
                0x000000000040099a        0x0 /usr/lib/gcc/x86_64-unknown-linux-gnu/4.9.2/../../../../lib/libc.a(sdlclose.o)
 .text.unlikely
                0x000000000040099a        0x0 /usr/lib/gcc/x86_64-unknown-linux-gnu/4.9.2/../../../../lib/libc.a(sdlsym.o)
 .text.unlikely
                0x000000000040099a        0x0 /usr/lib/gcc/x86_64-unknown-linux-gnu/4.9.2/../../../../lib/libc.a(sdlvsym.o)
 .text.unlikely
                0x000000000040099a        0x0 /usr/lib/gcc/x86_64-unknown-linux-gnu/4.9.2/../../../../lib/libc.a(strncase_l-nonascii.o)
 .text.unlikely
                0x000000000040099a        0x0 /usr/lib/gcc/x86_64-unknown-linux-gnu/4.9.2/../../../../lib/libc.a(profil.o)
 .text.unlikely
                0x000000000040099a        0x0 /usr/lib/gcc/x86_64-unknown-linux-gnu/4.9.2/../../../../lib/libc.a(prof-freq.o)
 .text.unlikely
                0x000000000040099a        0x0 /usr/lib/gcc/x86_64-unknown-linux-gnu/4.9.2/../../../../lib/libc.a(dl-sym.o)
 .text.unlikely
                0x000000000040099a        0x0 /usr/lib/gcc/x86_64-unknown-linux-gnu/4.9.2/libgcc_eh.a(unwind-dw2.o)
 .text.unlikely
                0x000000000040099a        0x0 /usr/lib/gcc/x86_64-unknown-linux-gnu/4.9.2/libgcc_eh.a(unwind-dw2-fde-dip.o)
 .text.unlikely
                0x000000000040099a        0x0 /usr/lib/gcc/x86_64-unknown-linux-gnu/4.9.2/libgcc_eh.a(unwind-c.o)
 .text.unlikely
                0x000000000040099a        0x0 /usr/lib/gcc/x86_64-unknown-linux-gnu/4.9.2/../../../../lib/libc.a(dl-iteratephdr.o)
 *(.text.exit .text.exit.*)
 *fill*         0x000000000040099a        0x6 
 .text.exit     0x00000000004009a0        0xc /usr/lib/gcc/x86_64-unknown-linux-gnu/4.9.2/../../../../lib/libc.a(sdlerror.o)
 *(.text.startup .text.startup.*)
 *fill*         0x00000000004009ac        0x4 
 .text.startup  0x00000000004009b0       0x10 src/main.o
                0x00000000004009b0                main
 .text.startup  0x00000000004009c0      0x253 /usr/lib/gcc/x86_64-unknown-linux-gnu/4.9.2/../../../../lib/libc.a(cacheinfo.o)
 *(.text.hot .text.hot.*)
 *(.text .stub .text.* .gnu.linkonce.t.*)
 *fill*         0x0000000000400c13        0xd 
 .text          0x0000000000400c20       0x2a /usr/lib/gcc/x86_64-unknown-linux-gnu/4.9.2/../../../../lib/crt1.o
                0x0000000000400c20                _start
 .text          0x0000000000400c4a        0x0 /usr/lib/gcc/x86_64-unknown-linux-gnu/4.9.2/../../../../lib/crti.o
 *fill*         0x0000000000400c4a        0x6 
 .text          0x0000000000400c50       0xee /usr/lib/gcc/x86_64-unknown-linux-gnu/4.9.2/crtbeginT.o
 .text          0x0000000000400d3e        0x0 src/main.o
 *fill*         0x0000000000400d3e        0x2 
 .text          0x0000000000400d40        0xc ../lib/libprinter.a(printer.o)
                0x0000000000400d40                print
 *fill*         0x0000000000400d4c        0x4 
 .text          0x0000000000400d50      0x290 /usr/lib/gcc/x86_64-unknown-linux-gnu/4.9.2/../../../../lib/libc.a(libc-start.o)
                0x0000000000400d50                __libc_start_main
 .text          0x0000000000400fe0       0xe2 /usr/lib/gcc/x86_64-unknown-linux-gnu/4.9.2/../../../../lib/libc.a(check_fds.o)
                0x0000000000401090                __libc_check_standard_fds
 *fill*         0x00000000004010c2        0xe 
 .text          0x00000000004010d0      0x2af /usr/lib/gcc/x86_64-unknown-linux-gnu/4.9.2/../../../../lib/libc.a(libc-tls.o)
                0x00000000004010d0                __libc_setup_tls
                0x0000000000401300                _dl_tls_setup
                0x0000000000401370                __pthread_initialize_minimal
 *fill*         0x000000000040137f        0x1 
 .text          0x0000000000401380       0xc3 /usr/lib/gcc/x86_64-unknown-linux-gnu/4.9.2/../../../../lib/libc.a(elf-init.o)
                0x0000000000401380                __libc_csu_init
                0x0000000000401410                __libc_csu_fini
 .text          0x0000000000401443        0x0 /usr/lib/gcc/x86_64-unknown-linux-gnu/4.9.2/../../../../lib/libc.a(errno.o)
 *fill*         0x0000000000401443        0xd 
 .text          0x0000000000401450      0x17e /usr/lib/gcc/x86_64-unknown-linux-gnu/4.9.2/../../../../lib/libc.a(assert.o)
                0x0000000000401450                __assert_fail_base
                0x0000000000401590                __assert_fail
 *fill*         0x00000000004015ce        0x2 
 .text          0x00000000004015d0        0xf /usr/lib/gcc/x86_64-unknown-linux-gnu/4.9.2/../../../../lib/libc.a(dcgettext.o)
                0x00000000004015d0                __dcgettext
                0x00000000004015d0                dcgettext
 *fill*         0x00000000004015df        0x1 
 .text          0x00000000004015e0     0x1757 /usr/lib/gcc/x86_64-unknown-linux-gnu/4.9.2/../../../../lib/libc.a(dcigettext.o)
                0x0000000000401890                _nl_find_msg
                0x0000000000402480                __dcigettext
 *fill*         0x0000000000402d37        0x9 
 .text          0x0000000000402d40      0x268 /usr/lib/gcc/x86_64-unknown-linux-gnu/4.9.2/../../../../lib/libc.a(finddomain.o)
                0x0000000000402d40                _nl_find_domain
 *fill*         0x0000000000402fa8        0x8 
 .text          0x0000000000402fb0     0x1502 /usr/lib/gcc/x86_64-unknown-linux-gnu/4.9.2/../../../../lib/libc.a(loadmsgcat.o)
                0x0000000000402fb0                _nl_load_domain
 *fill*         0x00000000004044b2        0xe 
 .text          0x00000000004044c0      0x667 /usr/lib/gcc/x86_64-unknown-linux-gnu/4.9.2/../../../../lib/libc.a(localealias.o)
                0x0000000000404980                _nl_expand_alias
 *fill*         0x0000000000404b27        0x9 
 .text          0x0000000000404b30      0x5d7 /usr/lib/gcc/x86_64-unknown-linux-gnu/4.9.2/../../../../lib/libc.a(l10nflist.o)
                0x0000000000404b80                _nl_make_l10nflist
                0x0000000000405010                _nl_normalize_codeset
 *fill*         0x0000000000405107        0x9 
 .text          0x0000000000405110      0x25c /usr/lib/gcc/x86_64-unknown-linux-gnu/4.9.2/../../../../lib/libc.a(explodename.o)
                0x0000000000405110                _nl_explode_name
 *fill*         0x000000000040536c        0x4 
 .text          0x0000000000405370      0x897 /usr/lib/gcc/x86_64-unknown-linux-gnu/4.9.2/../../../../lib/libc.a(plural.o)
                0x0000000000405370                __gettext_free_exp
                0x00000000004054e0                __gettextparse
 *fill*         0x0000000000405c07        0x9 
 .text          0x0000000000405c10       0xdd /usr/lib/gcc/x86_64-unknown-linux-gnu/4.9.2/../../../../lib/libc.a(plural-exp.o)
                0x0000000000405c10                __gettext_extract_plural
 *fill*         0x0000000000405ced        0x3 
 .text          0x0000000000405cf0       0x38 /usr/lib/gcc/x86_64-unknown-linux-gnu/4.9.2/../../../../lib/libc.a(hash-string.o)
                0x0000000000405cf0                __hash_string
 *fill*         0x0000000000405d28        0x8 
 .text          0x0000000000405d30        0x7 /usr/lib/gcc/x86_64-unknown-linux-gnu/4.9.2/../../../../lib/libc.a(bsd-_setjmp.o)
                0x0000000000405d30                _setjmp
 *fill*         0x0000000000405d37        0x9 
 .text          0x0000000000405d40       0x72 /usr/lib/gcc/x86_64-unknown-linux-gnu/4.9.2/../../../../lib/libc.a(raise.o)
                0x0000000000405d40                gsignal
                0x0000000000405d40                raise
 *fill*         0x0000000000405db2        0xe 
 .text          0x0000000000405dc0      0x27b /usr/lib/gcc/x86_64-unknown-linux-gnu/4.9.2/../../../../lib/libc.a(abort.o)
                0x0000000000405dc0                abort
 *fill*         0x000000000040603b        0x5 
 .text          0x0000000000406040      0x658 /usr/lib/gcc/x86_64-unknown-linux-gnu/4.9.2/../../../../lib/libc.a(msort.o)
                0x0000000000406350                __qsort_r
                0x0000000000406350                qsort_r
                0x0000000000406690                qsort
 *fill*         0x0000000000406698        0x8 
 .text          0x00000000004066a0       0xdc /usr/lib/gcc/x86_64-unknown-linux-gnu/4.9.2/../../../../lib/libc.a(getenv.o)
                0x00000000004066a0                getenv
 *fill*         0x000000000040677c        0x4 
 .text          0x0000000000406780      0x153 /usr/lib/gcc/x86_64-unknown-linux-gnu/4.9.2/../../../../lib/libc.a(exit.o)
                0x0000000000406780                __run_exit_handlers
                0x00000000004068c0                exit
 *fill*         0x00000000004068d3        0xd 
 .text          0x00000000004068e0      0x24d /usr/lib/gcc/x86_64-unknown-linux-gnu/4.9.2/../../../../lib/libc.a(cxa_atexit.o)
                0x00000000004068e0                __new_exitfn
                0x0000000000406a90                __internal_atexit
                0x0000000000406ae0                __cxa_atexit
 *fill*         0x0000000000406b2d        0x3 
 .text          0x0000000000406b30       0x22 /usr/lib/gcc/x86_64-unknown-linux-gnu/4.9.2/../../../../lib/libc.a(strtoul.o)
                0x0000000000406b30                __strtoull_internal
                0x0000000000406b30                __strtoul_internal
                0x0000000000406b40                strtoul
                0x0000000000406b40                strtoull
                0x0000000000406b40                strtouq
                0x0000000000406b40                __strtoul
 *fill*         0x0000000000406b52        0xe 
 .text          0x0000000000406b60      0x43a /usr/lib/gcc/x86_64-unknown-linux-gnu/4.9.2/../../../../lib/libc.a(strtoul_l.o)
                0x0000000000406b60                ____strtoul_l_internal
                0x0000000000406b60                ____strtoull_l_internal
                0x0000000000406f90                __strtoull_l
                0x0000000000406f90                strtoull_l
                0x0000000000406f90                strtoul_l
                0x0000000000406f90                __strtoul_l
 *fill*         0x0000000000406f9a        0x6 
 .text          0x0000000000406fa0      0x267 /usr/lib/gcc/x86_64-unknown-linux-gnu/4.9.2/../../../../lib/libc.a(grouping.o)
                0x0000000000406fa0                __correctly_grouped_prefixmb
 *fill*         0x0000000000407207        0x9 
 .text          0x0000000000407210       0x8f /usr/lib/gcc/x86_64-unknown-linux-gnu/4.9.2/../../../../lib/libc.a(asprintf.o)
                0x0000000000407210                __asprintf
                0x0000000000407210                asprintf
                0x0000000000407210                ___asprintf
 *fill*         0x000000000040729f        0x1 
 .text          0x00000000004072a0      0x143 /usr/lib/gcc/x86_64-unknown-linux-gnu/4.9.2/../../../../lib/libc.a(fxprintf.o)
                0x00000000004072a0                __fxprintf
 *fill*         0x00000000004073e3        0xd 
 .text          0x00000000004073f0      0x260 /usr/lib/gcc/x86_64-unknown-linux-gnu/4.9.2/../../../../lib/libc.a(iofclose.o)
                0x00000000004073f0                _IO_fclose
                0x00000000004073f0                _IO_new_fclose
                0x00000000004073f0                fclose
                0x00000000004073f0                __new_fclose
 .text          0x0000000000407650      0x146 /usr/lib/gcc/x86_64-unknown-linux-gnu/4.9.2/../../../../lib/libc.a(iofflush.o)
                0x0000000000407650                _IO_fflush
                0x0000000000407650                fflush
 *fill*         0x0000000000407796        0xa 
 .text          0x00000000004077a0       0xfa /usr/lib/gcc/x86_64-unknown-linux-gnu/4.9.2/../../../../lib/libc.a(iofopen.o)
                0x00000000004077a0                __fopen_maybe_mmap
                0x00000000004077e0                __fopen_internal
                0x0000000000407890                _IO_fopen64
                0x0000000000407890                _IO_new_fopen
                0x0000000000407890                fopen
                0x0000000000407890                _IO_fopen
                0x0000000000407890                __new_fopen
                0x0000000000407890                fopen64
 *fill*         0x000000000040789a        0x6 
 .text          0x00000000004078a0       0x9e /usr/lib/gcc/x86_64-unknown-linux-gnu/4.9.2/../../../../lib/libc.a(wprintf.o)
                0x00000000004078a0                __wprintf
                0x00000000004078a0                wprintf
 *fill*         0x000000000040793e        0x2 
 .text          0x0000000000407940     0x16d6 /usr/lib/gcc/x86_64-unknown-linux-gnu/4.9.2/../../../../lib/libc.a(wfileops.o)
                0x0000000000407a10                _IO_wfile_underflow
                0x0000000000408030                _IO_wfile_seekoff
                0x0000000000408900                _IO_wdo_write
                0x0000000000408ac0                _IO_wfile_overflow
                0x0000000000408d30                _IO_wfile_sync
                0x0000000000408e90                _IO_wfile_xsputn
 *fill*         0x0000000000409016        0xa 
 .text          0x0000000000409020      0x147 /usr/lib/gcc/x86_64-unknown-linux-gnu/4.9.2/../../../../lib/libc.a(vasprintf.o)
                0x0000000000409020                _IO_vasprintf
                0x0000000000409020                vasprintf
 *fill*         0x0000000000409167        0x9 
 .text          0x0000000000409170        0x5 /usr/lib/gcc/x86_64-unknown-linux-gnu/4.9.2/../../../../lib/libc.a(fcloseall.o)
                0x0000000000409170                __fcloseall
                0x0000000000409170                fcloseall
 *fill*         0x0000000000409175        0xb 
 .text          0x0000000000409180      0x2ee /usr/lib/gcc/x86_64-unknown-linux-gnu/4.9.2/../../../../lib/libc.a(libc_fatal.o)
                0x0000000000409180                __libc_message
                0x0000000000409450                __libc_fatal
 *fill*         0x000000000040946e        0x2 
 .text          0x0000000000409470       0x93 /usr/lib/gcc/x86_64-unknown-linux-gnu/4.9.2/../../../../lib/libc.a(iofgets_u.o)
                0x0000000000409470                __fgets_unlocked
                0x0000000000409470                fgets_unlocked
 *fill*         0x0000000000409503        0xd 
 .text          0x0000000000409510     0x1e24 /usr/lib/gcc/x86_64-unknown-linux-gnu/4.9.2/../../../../lib/libc.a(fileops.o)
                0x0000000000409540                _IO_file_close
                0x0000000000409550                _IO_file_setbuf
                0x0000000000409550                _IO_new_file_setbuf
                0x0000000000409580                _IO_file_setbuf_mmap
                0x00000000004096c0                _IO_file_underflow
                0x00000000004096c0                _IO_new_file_underflow
                0x0000000000409950                _IO_file_seekoff
                0x0000000000409950                _IO_new_file_seekoff
                0x0000000000409d80                _IO_file_close_mmap
                0x0000000000409f80                _IO_file_seek
                0x000000000040a150                _IO_file_underflow_maybe_mmap
                0x000000000040a1a0                _IO_file_stat
                0x000000000040a1b0                _IO_file_write
                0x000000000040a1b0                _IO_new_file_write
                0x000000000040a340                _IO_file_xsgetn
                0x000000000040a530                _IO_file_seekoff_mmap
                0x000000000040a610                _IO_file_underflow_mmap
                0x000000000040a670                _IO_file_read
                0x000000000040a6a0                _IO_new_file_xsputn
                0x000000000040a6a0                _IO_file_xsputn
                0x000000000040a850                _IO_new_file_init
                0x000000000040a850                _IO_file_init
                0x000000000040a880                _IO_file_open
                0x000000000040a940                _IO_new_file_attach
                0x000000000040a940                _IO_file_attach
                0x000000000040a9c0                _IO_new_do_write
                0x000000000040a9c0                _IO_do_write
                0x000000000040a9f0                _IO_new_file_close_it
                0x000000000040a9f0                _IO_file_close_it
                0x000000000040ab70                _IO_new_file_fopen
                0x000000000040ab70                _IO_file_fopen
                0x000000000040b000                _IO_file_finish
                0x000000000040b000                _IO_new_file_finish
                0x000000000040b080                _IO_file_overflow
                0x000000000040b080                _IO_new_file_overflow
                0x000000000040b280                _IO_file_sync
                0x000000000040b280                _IO_new_file_sync
 *fill*         0x000000000040b334        0xc 
 .text          0x000000000040b340     0x1dc0 /usr/lib/gcc/x86_64-unknown-linux-gnu/4.9.2/../../../../lib/libc.a(genops.o)
                0x000000000040b890                _IO_un_link
                0x000000000040b8b0                _IO_link_in
                0x000000000040bb00                _IO_least_marker
                0x000000000040bb30                _IO_switch_to_main_get_area
                0x000000000040bb60                _IO_switch_to_backup_area
                0x000000000040bb90                _IO_switch_to_get_mode
                0x000000000040bc00                _IO_free_backup_area
                0x000000000040bc60                __overflow
                0x000000000040bc90                __underflow
                0x000000000040bd60                __uflow
                0x000000000040be40                _IO_setb
                0x000000000040bec0                _IO_doallocbuf
                0x000000000040bf20                _IO_default_underflow
                0x000000000040bf30                _IO_default_uflow
                0x000000000040bf60                _IO_default_xsputn
                0x000000000040c020                _IO_sgetn
                0x000000000040c030                _IO_default_xsgetn
                0x000000000040c0e0                _IO_default_setbuf
                0x000000000040c180                _IO_default_seekpos
                0x000000000040c1a0                _IO_default_doallocate
                0x000000000040c1f0                _IO_old_init
                0x000000000040c2a0                _IO_init
                0x000000000040c2d0                _IO_no_init
                0x000000000040c380                _IO_default_sync
                0x000000000040c390                _IO_default_finish
                0x000000000040c420                _IO_default_seekoff
                0x000000000040c430                _IO_sputbackc
                0x000000000040c470                _IO_sungetc
                0x000000000040c4b0                _IO_adjust_column
                0x000000000040c4f0                _IO_flush_all_lockp
                0x000000000040c7e0                _IO_cleanup
                0x000000000040c9e0                _IO_flush_all
                0x000000000040c9f0                _IO_flush_all_linebuffered
                0x000000000040c9f0                _flushlbf
                0x000000000040cc70                _IO_init_marker
                0x000000000040ccd0                _IO_remove_marker
                0x000000000040cd10                _IO_marker_difference
                0x000000000040cd20                _IO_marker_delta
                0x000000000040cd50                _IO_seekmark
                0x000000000040cdf0                _IO_unsave_markers
                0x000000000040ce20                _IO_default_pbackfail
                0x000000000040cf90                _IO_default_seek
                0x000000000040cfa0                _IO_default_stat
                0x000000000040cfb0                _IO_default_read
                0x000000000040cfc0                _IO_default_write
                0x000000000040cfd0                _IO_default_showmanyc
                0x000000000040cfe0                _IO_default_imbue
                0x000000000040cff0                _IO_iter_begin
                0x000000000040d000                _IO_iter_end
                0x000000000040d010                _IO_iter_next
                0x000000000040d020                _IO_iter_file
                0x000000000040d030                _IO_list_lock
                0x000000000040d090                _IO_list_unlock
                0x000000000040d0e0                _IO_list_resetlock
 .text          0x000000000040d100        0x0 /usr/lib/gcc/x86_64-unknown-linux-gnu/4.9.2/../../../../lib/libc.a(stdfiles.o)
 .text          0x000000000040d100        0x0 /usr/lib/gcc/x86_64-unknown-linux-gnu/4.9.2/../../../../lib/libc.a(stdio.o)
 .text          0x000000000040d100      0x662 /usr/lib/gcc/x86_64-unknown-linux-gnu/4.9.2/../../../../lib/libc.a(strops.o)
                0x000000000040d100                _IO_str_underflow
                0x000000000040d160                _IO_str_overflow
                0x000000000040d460                _IO_str_seekoff
                0x000000000040d620                _IO_str_pbackfail
                0x000000000040d640                _IO_str_finish
                0x000000000040d670                _IO_str_init_static_internal
                0x000000000040d710                _IO_str_init_static
                0x000000000040d730                _IO_str_init_readonly
                0x000000000040d750                _IO_str_count
 *fill*         0x000000000040d762        0xe 
 .text          0x000000000040d770     0x6743 /usr/lib/gcc/x86_64-unknown-linux-gnu/4.9.2/../../../../lib/libc.a(malloc.o)
                0x00000000004119b0                __malloc_check_init
                0x00000000004119d0                malloc
                0x00000000004119d0                __malloc
                0x00000000004119d0                __libc_malloc
                0x0000000000411c30                malloc_get_state
                0x0000000000411c30                __malloc_get_state
                0x0000000000412080                __cfree
                0x0000000000412080                __free
                0x0000000000412080                __libc_free
                0x0000000000412080                cfree
                0x0000000000412080                free
                0x0000000000412120                __libc_realloc
                0x0000000000412120                realloc
                0x0000000000412120                __realloc
                0x00000000004123d0                __libc_memalign
                0x00000000004123d0                __memalign
                0x00000000004123d0                memalign
                0x00000000004123d0                aligned_alloc
                0x00000000004123e0                __calloc
                0x00000000004123e0                calloc
                0x00000000004123e0                __libc_calloc
                0x0000000000412700                malloc_usable_size
                0x0000000000412700                __malloc_usable_size
                0x00000000004127e0                __libc_mallopt
                0x00000000004127e0                mallopt
                0x00000000004127e0                __mallopt
                0x0000000000412e50                malloc_set_state
                0x0000000000412e50                __malloc_set_state
                0x0000000000413370                __libc_valloc
                0x0000000000413370                valloc
                0x0000000000413370                __valloc
                0x00000000004133c0                pvalloc
                0x00000000004133c0                __libc_pvalloc
                0x00000000004133c0                __pvalloc
                0x0000000000413440                __malloc_trim
                0x0000000000413440                malloc_trim
                0x00000000004136e0                __mallinfo
                0x00000000004136e0                __libc_mallinfo
                0x00000000004136e0                mallinfo
                0x0000000000413800                malloc_stats
                0x0000000000413800                __malloc_stats
                0x00000000004139f0                __posix_memalign
                0x00000000004139f0                posix_memalign
                0x0000000000413a50                __malloc_info
                0x0000000000413a50                malloc_info
 *fill*         0x0000000000413eb3        0xd 
 .text          0x0000000000413ec0       0x1b /usr/lib/gcc/x86_64-unknown-linux-gnu/4.9.2/../../../../lib/libc.a(morecore.o)
                0x0000000000413ec0                __default_morecore
 *fill*         0x0000000000413edb        0x5 
 .text          0x0000000000413ee0      0x24a /usr/lib/gcc/x86_64-unknown-linux-gnu/4.9.2/../../../../lib/libc.a(strchr.o)
                0x0000000000413ee0                index
                0x0000000000413ee0                strchr
                0x0000000000413f10                __strchr_sse2
                0x0000000000413f10                __GI_strchr
 *fill*         0x000000000041412a        0x6 
 .text          0x0000000000414130     0x1479 /usr/lib/gcc/x86_64-unknown-linux-gnu/4.9.2/../../../../lib/libc.a(strcmp.o)
                0x0000000000414130                strcmp
                0x0000000000414170                __strcmp_sse2
                0x0000000000414170                __GI_strcmp
 *fill*         0x00000000004155a9        0x7 
 .text.sse4.2   0x00000000004155b0      0xda9 /usr/lib/gcc/x86_64-unknown-linux-gnu/4.9.2/../../../../lib/libc.a(strcmp.o)
                0x00000000004155b0                __strcmp_sse42
 *fill*         0x0000000000416359        0x7 
 .text          0x0000000000416360      0x11c /usr/lib/gcc/x86_64-unknown-linux-gnu/4.9.2/../../../../lib/libc.a(strcpy.o)
                0x0000000000416360                strcpy
                0x00000000004163a0                __GI_strcpy
                0x00000000004163a0                __strcpy_sse2
 *fill*         0x000000000041647c        0x4 
 .text          0x0000000000416480       0x41 /usr/lib/gcc/x86_64-unknown-linux-gnu/4.9.2/../../../../lib/libc.a(strdup.o)
                0x0000000000416480                __strdup
                0x0000000000416480                strdup
 *fill*         0x00000000004164c1        0xf 
 .text          0x00000000004164d0      0x1b4 /usr/lib/gcc/x86_64-unknown-linux-gnu/4.9.2/../../../../lib/libc.a(strlen.o)
                0x00000000004164d0                strlen
 *fill*         0x0000000000416684        0xc 
 .text          0x0000000000416690     0x1849 /usr/lib/gcc/x86_64-unknown-linux-gnu/4.9.2/../../../../lib/libc.a(strncmp.o)
                0x0000000000416690                strncmp
 *fill*         0x0000000000417ed9        0x7 
 .text          0x0000000000417ee0      0x9d7 /usr/lib/gcc/x86_64-unknown-linux-gnu/4.9.2/../../../../lib/libc.a(strstr.o)
                0x00000000004183d0                __strstr_sse2
                0x0000000000418880                strstr
                0x0000000000418880                __libc_strstr
 *fill*         0x00000000004188b7        0x9 
 .text          0x00000000004188c0      0x344 /usr/lib/gcc/x86_64-unknown-linux-gnu/4.9.2/../../../../lib/libc.a(memchr.o)
                0x00000000004188c0                memchr
                0x00000000004188c0                __memchr
 *fill*         0x0000000000418c04        0xc 
 .text          0x0000000000418c10      0x440 /usr/lib/gcc/x86_64-unknown-linux-gnu/4.9.2/../../../../lib/libc.a(memcmp.o)
                0x0000000000418c10                bcmp
                0x0000000000418c10                memcmp
                0x0000000000418c50                __memcmp_sse2
 .text          0x0000000000419050      0x1cf /usr/lib/gcc/x86_64-unknown-linux-gnu/4.9.2/../../../../lib/libc.a(memmove.o)
                0x0000000000419050                __memmove_sse2
                0x00000000004191d0                memmove
                0x00000000004191d0                __libc_memmove
 *fill*         0x000000000041921f        0x1 
 .text          0x0000000000419220      0x157 /usr/lib/gcc/x86_64-unknown-linux-gnu/4.9.2/../../../../lib/libc.a(memset.o)
                0x0000000000419220                memset
                0x0000000000419250                __bzero
                0x0000000000419250                bzero
                0x0000000000419260                __memset_tail
                0x0000000000419280                __memset_sse2
 *fill*         0x0000000000419377        0x9 
 .text          0x0000000000419380      0x452 /usr/lib/gcc/x86_64-unknown-linux-gnu/4.9.2/../../../../lib/libc.a(mempcpy.o)
                0x0000000000419380                mempcpy
                0x0000000000419380                __mempcpy
 *fill*         0x00000000004197d2        0xe 
 .text          0x00000000004197e0      0x11c /usr/lib/gcc/x86_64-unknown-linux-gnu/4.9.2/../../../../lib/libc.a(stpcpy.o)
                0x00000000004197e0                stpcpy
                0x00000000004197e0                __stpcpy
                0x0000000000419820                __GI_stpcpy
                0x0000000000419820                __GI___stpcpy
                0x0000000000419820                __stpcpy_sse2
 *fill*         0x00000000004198fc        0x4 
 .text          0x0000000000419900     0x22e6 /usr/lib/gcc/x86_64-unknown-linux-gnu/4.9.2/../../../../lib/libc.a(strcasecmp_l.o)
                0x0000000000419900                strcasecmp_l
                0x0000000000419900                __strcasecmp_l
                0x0000000000419950                strcasecmp
                0x0000000000419950                __strcasecmp
                0x00000000004199b0                __strcasecmp_sse2
                0x00000000004199c0                __GI___strcasecmp_l
                0x00000000004199c0                __strcasecmp_l_sse2
 *fill*         0x000000000041bbe6        0xa 
 .text.sse4.2   0x000000000041bbf0     0x1ba6 /usr/lib/gcc/x86_64-unknown-linux-gnu/4.9.2/../../../../lib/libc.a(strcasecmp_l.o)
                0x000000000041bbf0                __strcasecmp_sse42
                0x000000000041bc00                __strcasecmp_l_sse42
 *fill*         0x000000000041d796        0xa 
 .text.avx      0x000000000041d7a0     0x1666 /usr/lib/gcc/x86_64-unknown-linux-gnu/4.9.2/../../../../lib/libc.a(strcasecmp_l.o)
                0x000000000041d7a0                __strcasecmp_avx
                0x000000000041d7b0                __strcasecmp_l_avx
 *fill*         0x000000000041ee06        0xa 
 .text          0x000000000041ee10      0x465 /usr/lib/gcc/x86_64-unknown-linux-gnu/4.9.2/../../../../lib/libc.a(memcpy.o)
                0x000000000041ee10                memcpy
 *fill*         0x000000000041f275        0xb 
 .text          0x000000000041f280      0x536 /usr/lib/gcc/x86_64-unknown-linux-gnu/4.9.2/../../../../lib/libc.a(wordcopy.o)
                0x000000000041f280                _wordcopy_fwd_aligned
                0x000000000041f3b0                _wordcopy_fwd_dest_aligned
                0x000000000041f4e0                _wordcopy_bwd_aligned
                0x000000000041f660                _wordcopy_bwd_dest_aligned
 *fill*         0x000000000041f7b6        0xa 
 .text          0x000000000041f7c0      0x204 /usr/lib/gcc/x86_64-unknown-linux-gnu/4.9.2/../../../../lib/libc.a(rawmemchr.o)
                0x000000000041f7c0                __rawmemchr
                0x000000000041f7c0                rawmemchr
 *fill*         0x000000000041f9c4        0xc 
 .text          0x000000000041f9d0      0x20a /usr/lib/gcc/x86_64-unknown-linux-gnu/4.9.2/../../../../lib/libc.a(strchrnul.o)
                0x000000000041f9d0                __strchrnul
                0x000000000041f9d0                strchrnul
 .text          0x000000000041fbda        0x0 /usr/lib/gcc/x86_64-unknown-linux-gnu/4.9.2/../../../../lib/libc.a(strcmp-ssse3.o)
 *fill*         0x000000000041fbda        0x6 
 .text.ssse3    0x000000000041fbe0     0x1259 /usr/lib/gcc/x86_64-unknown-linux-gnu/4.9.2/../../../../lib/libc.a(strcmp-ssse3.o)
                0x000000000041fbe0                __strcmp_ssse3
 *fill*         0x0000000000420e39        0x7 
 .text          0x0000000000420e40      0x2a3 /usr/lib/gcc/x86_64-unknown-linux-gnu/4.9.2/../../../../lib/libc.a(strcmp-sse2-unaligned.o)
                0x0000000000420e40                __strcmp_sse2_unaligned
 .text          0x00000000004210e3        0x0 /usr/lib/gcc/x86_64-unknown-linux-gnu/4.9.2/../../../../lib/libc.a(memcmp-sse4.o)
 *fill*         0x00000000004210e3        0xd 
 .text.sse4.1   0x00000000004210f0     0x163e /usr/lib/gcc/x86_64-unknown-linux-gnu/4.9.2/../../../../lib/libc.a(memcmp-sse4.o)
                0x00000000004210f0                __memcmp_sse4_1
 .text          0x000000000042272e        0x0 /usr/lib/gcc/x86_64-unknown-linux-gnu/4.9.2/../../../../lib/libc.a(memmove-ssse3.o)
 *fill*         0x000000000042272e        0x2 
 .text.ssse3    0x0000000000422730     0x2b77 /usr/lib/gcc/x86_64-unknown-linux-gnu/4.9.2/../../../../lib/libc.a(memmove-ssse3.o)
                0x0000000000422730                __memmove_chk_ssse3
                0x0000000000422740                __memmove_ssse3
 .text          0x00000000004252a7        0x0 /usr/lib/gcc/x86_64-unknown-linux-gnu/4.9.2/../../../../lib/libc.a(memmove-avx-unaligned.o)
 *fill*         0x00000000004252a7        0x9 
 .text.avx      0x00000000004252b0      0x4eb /usr/lib/gcc/x86_64-unknown-linux-gnu/4.9.2/../../../../lib/libc.a(memmove-avx-unaligned.o)
                0x00000000004252b0                __memmove_chk_avx_unaligned
                0x00000000004252c0                __memmove_avx_unaligned
 .text          0x000000000042579b        0x0 /usr/lib/gcc/x86_64-unknown-linux-gnu/4.9.2/../../../../lib/libc.a(memmove-ssse3-back.o)
 *fill*         0x000000000042579b        0x5 
 .text.ssse3    0x00000000004257a0     0x2b16 /usr/lib/gcc/x86_64-unknown-linux-gnu/4.9.2/../../../../lib/libc.a(memmove-ssse3-back.o)
                0x00000000004257a0                __memmove_chk_ssse3_back
                0x00000000004257b0                __memmove_ssse3_back
 .text          0x00000000004282b6        0x0 /usr/lib/gcc/x86_64-unknown-linux-gnu/4.9.2/../../../../lib/libc.a(strcasecmp_l-ssse3.o)
 *fill*         0x00000000004282b6        0xa 
 .text.ssse3    0x00000000004282c0     0x2146 /usr/lib/gcc/x86_64-unknown-linux-gnu/4.9.2/../../../../lib/libc.a(strcasecmp_l-ssse3.o)
                0x00000000004282c0                __strcasecmp_ssse3
                0x00000000004282d0                __strcasecmp_l_ssse3
 .text          0x000000000042a406        0x0 /usr/lib/gcc/x86_64-unknown-linux-gnu/4.9.2/../../../../lib/libc.a(strcpy-ssse3.o)
 *fill*         0x000000000042a406        0xa 
 .text.ssse3    0x000000000042a410     0x17a2 /usr/lib/gcc/x86_64-unknown-linux-gnu/4.9.2/../../../../lib/libc.a(strcpy-ssse3.o)
                0x000000000042a410                __strcpy_ssse3
 .text          0x000000000042bbb2        0x0 /usr/lib/gcc/x86_64-unknown-linux-gnu/4.9.2/../../../../lib/libc.a(stpcpy-ssse3.o)
 *fill*         0x000000000042bbb2        0xe 
 .text.ssse3    0x000000000042bbc0     0x1803 /usr/lib/gcc/x86_64-unknown-linux-gnu/4.9.2/../../../../lib/libc.a(stpcpy-ssse3.o)
                0x000000000042bbc0                __stpcpy_ssse3
 *fill*         0x000000000042d3c3        0xd 
 .text          0x000000000042d3d0      0x630 /usr/lib/gcc/x86_64-unknown-linux-gnu/4.9.2/../../../../lib/libc.a(strcpy-sse2-unaligned.o)
                0x000000000042d3d0                __strcpy_sse2_unaligned
 .text          0x000000000042da00      0x6b0 /usr/lib/gcc/x86_64-unknown-linux-gnu/4.9.2/../../../../lib/libc.a(stpcpy-sse2-unaligned.o)
                0x000000000042da00                __stpcpy_sse2_unaligned
 .text          0x000000000042e0b0        0x0 /usr/lib/gcc/x86_64-unknown-linux-gnu/4.9.2/../../../../lib/libc.a(strchr-sse2-no-bsf.o)
 .text.atom     0x000000000042e0b0      0x315 /usr/lib/gcc/x86_64-unknown-linux-gnu/4.9.2/../../../../lib/libc.a(strchr-sse2-no-bsf.o)
                0x000000000042e0b0                __strchr_sse2_no_bsf
 .text          0x000000000042e3c5        0x0 /usr/lib/gcc/x86_64-unknown-linux-gnu/4.9.2/../../../../lib/libc.a(memcmp-ssse3.o)
 *fill*         0x000000000042e3c5        0xb 
 .text.atom     0x000000000042e3d0     0x1763 /usr/lib/gcc/x86_64-unknown-linux-gnu/4.9.2/../../../../lib/libc.a(memcmp-ssse3.o)
                0x000000000042e3d0                __memcmp_ssse3
 *fill*         0x000000000042fb33        0xd 
 .text          0x000000000042fb40      0x493 /usr/lib/gcc/x86_64-unknown-linux-gnu/4.9.2/../../../../lib/libc.a(strstr-sse2-unaligned.o)
                0x000000000042fb40                __strstr_sse2_unaligned
 .text          0x000000000042ffd3        0x0 /usr/lib/gcc/x86_64-unknown-linux-gnu/4.9.2/../../../../lib/libc.a(memset-avx2.o)
 *fill*         0x000000000042ffd3        0xd 
 .text.avx2     0x000000000042ffe0      0x194 /usr/lib/gcc/x86_64-unknown-linux-gnu/4.9.2/../../../../lib/libc.a(memset-avx2.o)
                0x000000000042ffe0                __memset_avx2
 *fill*         0x0000000000430174        0xc 
 .text          0x0000000000430180      0x5e7 /usr/lib/gcc/x86_64-unknown-linux-gnu/4.9.2/../../../../lib/libc.a(cacheinfo.o)
                0x0000000000430710                __cache_sysconf
 *fill*         0x0000000000430767        0x9 
 .text          0x0000000000430770       0x3a /usr/lib/gcc/x86_64-unknown-linux-gnu/4.9.2/../../../../lib/libc.a(strcasecmp_l-nonascii.o)
                0x0000000000430770                __strcasecmp_l_nonascii
 *fill*         0x00000000004307aa        0x6 
 .text          0x00000000004307b0        0x9 /usr/lib/gcc/x86_64-unknown-linux-gnu/4.9.2/../../../../lib/libc.a(wmempcpy.o)
                0x00000000004307b0                wmempcpy
                0x00000000004307b0                __wmempcpy
 *fill*         0x00000000004307b9        0x7 
 .text          0x00000000004307c0      0x373 /usr/lib/gcc/x86_64-unknown-linux-gnu/4.9.2/../../../../lib/libc.a(wcsmbsload.o)
                0x00000000004307c0                _nl_cleanup_ctype
                0x0000000000430810                __wcsmbs_getfct
                0x0000000000430870                __wcsmbs_load_conv
                0x0000000000430a50                __wcsmbs_clone_conv
                0x0000000000430ad0                __wcsmbs_named_conv
 *fill*         0x0000000000430b33        0xd 
 .text          0x0000000000430b40       0x5a /usr/lib/gcc/x86_64-unknown-linux-gnu/4.9.2/../../../../lib/libc.a(_exit.o)
                0x0000000000430b40                _Exit
                0x0000000000430b40                _exit
 *fill*         0x0000000000430b9a        0x6 
 .text          0x0000000000430ba0      0x7cf /usr/lib/gcc/x86_64-unknown-linux-gnu/4.9.2/../../../../lib/libc.a(sysconf.o)
                0x0000000000430c80                sysconf
                0x0000000000430c80                __sysconf
 *fill*         0x000000000043136f        0x1 
 .text          0x0000000000431370       0x14 /usr/lib/gcc/x86_64-unknown-linux-gnu/4.9.2/../../../../lib/libc.a(sched_yield.o)
                0x0000000000431370                __sched_yield
                0x0000000000431370                sched_yield
 *fill*         0x0000000000431384        0xc 
 .text          0x0000000000431390       0x24 /usr/lib/gcc/x86_64-unknown-linux-gnu/4.9.2/../../../../lib/libc.a(get_child_max.o)
                0x0000000000431390                __get_child_max
 .text          0x00000000004313b4        0x0 /usr/lib/gcc/x86_64-unknown-linux-gnu/4.9.2/../../../../lib/libc.a(environ.o)
 *fill*         0x00000000004313b4        0xc 
 .text          0x00000000004313c0       0x4c /usr/lib/gcc/x86_64-unknown-linux-gnu/4.9.2/../../../../lib/libc.a(xstat.o)
                0x00000000004313c0                _xstat
                0x00000000004313c0                __xstat64
                0x00000000004313c0                __xstat
 *fill*         0x000000000043140c        0x4 
 .text          0x0000000000431410       0x4c /usr/lib/gcc/x86_64-unknown-linux-gnu/4.9.2/../../../../lib/libc.a(fxstat.o)
                0x0000000000431410                __fxstat64
                0x0000000000431410                _fxstat
                0x0000000000431410                __fxstat
 *fill*         0x000000000043145c        0x4 
 .text          0x0000000000431460       0x51 /usr/lib/gcc/x86_64-unknown-linux-gnu/4.9.2/../../../../lib/libc.a(open.o)
                0x0000000000431460                __open
                0x0000000000431460                __libc_open
                0x0000000000431460                open64
                0x0000000000431460                open
                0x0000000000431460                __open64
                0x0000000000431469                __open_nocancel
 *fill*         0x00000000004314b1        0xf 
 .text          0x00000000004314c0       0x51 /usr/lib/gcc/x86_64-unknown-linux-gnu/4.9.2/../../../../lib/libc.a(read.o)
                0x00000000004314c0                __read
                0x00000000004314c0                __libc_read
                0x00000000004314c0                read
                0x00000000004314c9                __read_nocancel
 *fill*         0x0000000000431511        0xf 
 .text          0x0000000000431520       0x51 /usr/lib/gcc/x86_64-unknown-linux-gnu/4.9.2/../../../../lib/libc.a(write.o)
                0x0000000000431520                __write
                0x0000000000431520                write
                0x0000000000431520                __libc_write
                0x0000000000431529                __write_nocancel
 *fill*         0x0000000000431571        0xf 
 .text          0x0000000000431580      0x116 /usr/lib/gcc/x86_64-unknown-linux-gnu/4.9.2/../../../../lib/libc.a(fcntl.o)
                0x00000000004315f0                __fcntl_nocancel
                0x0000000000431620                __libc_fcntl
                0x0000000000431620                __fcntl
                0x0000000000431620                fcntl
 *fill*         0x0000000000431696        0xa 
 .text          0x00000000004316a0       0x51 /usr/lib/gcc/x86_64-unknown-linux-gnu/4.9.2/../../../../lib/libc.a(close.o)
                0x00000000004316a0                __libc_close
                0x00000000004316a0                __close
                0x00000000004316a0                close
                0x00000000004316a9                __close_nocancel
 *fill*         0x00000000004316f1        0xf 
 .text          0x0000000000431700      0x69a /usr/lib/gcc/x86_64-unknown-linux-gnu/4.9.2/../../../../lib/libc.a(getcwd.o)
                0x0000000000431700                __getcwd
                0x0000000000431700                getcwd
 *fill*         0x0000000000431d9a        0x6 
 .text          0x0000000000431da0       0x14 /usr/lib/gcc/x86_64-unknown-linux-gnu/4.9.2/../../../../lib/libc.a(getrlimit.o)
                0x0000000000431da0                getrlimit
                0x0000000000431da0                getrlimit64
                0x0000000000431da0                __getrlimit
 *fill*         0x0000000000431db4        0xc 
 .text          0x0000000000431dc0       0x81 /usr/lib/gcc/x86_64-unknown-linux-gnu/4.9.2/../../../../lib/libc.a(sbrk.o)
                0x0000000000431dc0                sbrk
                0x0000000000431dc0                __sbrk
 *fill*         0x0000000000431e41        0xf 
 .text          0x0000000000431e50       0x28 /usr/lib/gcc/x86_64-unknown-linux-gnu/4.9.2/../../../../lib/libc.a(getpagesize.o)
                0x0000000000431e50                getpagesize
                0x0000000000431e50                __getpagesize
 *fill*         0x0000000000431e78        0x8 
 .text          0x0000000000431e80       0x23 /usr/lib/gcc/x86_64-unknown-linux-gnu/4.9.2/../../../../lib/libc.a(getdtsz.o)
                0x0000000000431e80                __getdtablesize
                0x0000000000431e80                getdtablesize
 *fill*         0x0000000000431ea3        0xd 
 .text          0x0000000000431eb0       0x17 /usr/lib/gcc/x86_64-unknown-linux-gnu/4.9.2/../../../../lib/libc.a(mmap.o)
                0x0000000000431eb0                __mmap
                0x0000000000431eb0                mmap
                0x0000000000431eb0                __mmap64
                0x0000000000431eb0                mmap64
 *fill*         0x0000000000431ec7        0x9 
 .text          0x0000000000431ed0       0x14 /usr/lib/gcc/x86_64-unknown-linux-gnu/4.9.2/../../../../lib/libc.a(munmap.o)
                0x0000000000431ed0                munmap
                0x0000000000431ed0                __munmap
 *fill*         0x0000000000431ee4        0xc 
 .text          0x0000000000431ef0       0x14 /usr/lib/gcc/x86_64-unknown-linux-gnu/4.9.2/../../../../lib/libc.a(mprotect.o)
                0x0000000000431ef0                __mprotect
                0x0000000000431ef0                mprotect
 *fill*         0x0000000000431f04        0xc 
 .text          0x0000000000431f10       0x14 /usr/lib/gcc/x86_64-unknown-linux-gnu/4.9.2/../../../../lib/libc.a(madvise.o)
                0x0000000000431f10                madvise
                0x0000000000431f10                __madvise
 *fill*         0x0000000000431f24        0xc 
 .text          0x0000000000431f30      0x872 /usr/lib/gcc/x86_64-unknown-linux-gnu/4.9.2/../../../../lib/libc.a(tsearch.o)
                0x0000000000432120                tsearch
                0x0000000000432120                __tsearch
                0x0000000000432290                tfind
                0x0000000000432290                __tfind
                0x00000000004322e0                tdelete
                0x00000000004322e0                __tdelete
                0x0000000000432770                __twalk
                0x0000000000432770                twalk
                0x0000000000432790                __tdestroy
                0x0000000000432790                tdestroy
 *fill*         0x00000000004327a2        0xe 
 .text          0x00000000004327b0      0x5ca /usr/lib/gcc/x86_64-unknown-linux-gnu/4.9.2/../../../../lib/libc.a(getsysstats.o)
                0x0000000000432a20                __get_nprocs
                0x0000000000432a20                get_nprocs
                0x0000000000432cc0                __get_nprocs_conf
                0x0000000000432cc0                get_nprocs_conf
                0x0000000000432d60                get_phys_pages
                0x0000000000432d60                __get_phys_pages
                0x0000000000432d70                get_avphys_pages
                0x0000000000432d70                __get_avphys_pages
 *fill*         0x0000000000432d7a        0x6 
 .text          0x0000000000432d80       0x11 /usr/lib/gcc/x86_64-unknown-linux-gnu/4.9.2/../../../../lib/libc.a(getclktck.o)
                0x0000000000432d80                __getclktck
 *fill*         0x0000000000432d91        0xf 
 .text          0x0000000000432da0       0x51 /usr/lib/gcc/x86_64-unknown-linux-gnu/4.9.2/../../../../lib/libc.a(init-misc.o)
                0x0000000000432da0                __init_misc
 *fill*         0x0000000000432df1        0xf 
 .text          0x0000000000432e00       0x51 /usr/lib/gcc/x86_64-unknown-linux-gnu/4.9.2/../../../../lib/libc.a(llseek.o)
                0x0000000000432e00                __llseek
                0x0000000000432e00                __lseek64
                0x0000000000432e00                lseek
                0x0000000000432e00                __libc_lseek64
                0x0000000000432e00                llseek
                0x0000000000432e00                __lseek
                0x0000000000432e00                __libc_lseek
                0x0000000000432e00                lseek64
                0x0000000000432e09                __lseek_nocancel
 *fill*         0x0000000000432e51        0xf 
 .text          0x0000000000432e60       0x17 /usr/lib/gcc/x86_64-unknown-linux-gnu/4.9.2/../../../../lib/libc.a(mremap.o)
                0x0000000000432e60                mremap
                0x0000000000432e60                __mremap
 *fill*         0x0000000000432e77        0x9 
 .text          0x0000000000432e80       0x40 /usr/lib/gcc/x86_64-unknown-linux-gnu/4.9.2/../../../../lib/libc.a(alloca_cutoff.o)
                0x0000000000432e80                __libc_alloca_cutoff
 .text          0x0000000000432ec0       0x4c /usr/lib/gcc/x86_64-unknown-linux-gnu/4.9.2/../../../../lib/libc.a(libc-lowlevellock.o)
                0x0000000000432ec0                __lll_lock_wait_private
                0x0000000000432ef0                __lll_unlock_wake_private
 *fill*         0x0000000000432f0c        0x4 
 .text          0x0000000000432f10       0xb9 /usr/lib/gcc/x86_64-unknown-linux-gnu/4.9.2/../../../../lib/libc.a(libc-cancellation.o)
                0x0000000000432f10                __libc_enable_asynccancel
                0x0000000000432f70                __libc_disable_asynccancel
 .text          0x0000000000432fc9        0x0 /usr/lib/gcc/x86_64-unknown-linux-gnu/4.9.2/../../../../lib/libc.a(libc_multiple_threads.o)
 *fill*         0x0000000000432fc9        0x7 
 .text          0x0000000000432fd0      0x198 /usr/lib/gcc/x86_64-unknown-linux-gnu/4.9.2/../../../../lib/libc.a(register-atfork.o)
                0x0000000000432fd0                __register_atfork
                0x0000000000433140                __linkin_atfork
 *fill*         0x0000000000433168        0x8 
 .text          0x0000000000433170       0xe4 /usr/lib/gcc/x86_64-unknown-linux-gnu/4.9.2/../../../../lib/libc.a(backtrace.o)
                0x0000000000433200                backtrace
                0x0000000000433200                __backtrace
 *fill*         0x0000000000433254        0xc 
 .text          0x0000000000433260      0x2e4 /usr/lib/gcc/x86_64-unknown-linux-gnu/4.9.2/../../../../lib/libc.a(backtracesymsfd.o)
                0x0000000000433260                __backtrace_symbols_fd
                0x0000000000433260                backtrace_symbols_fd
 *fill*         0x0000000000433544        0xc 
 .text          0x0000000000433550        0xe /usr/lib/gcc/x86_64-unknown-linux-gnu/4.9.2/../../../../lib/libc.a(chk_fail.o)
                0x0000000000433550                __chk_fail
 *fill*         0x000000000043355e        0x2 
 .text          0x0000000000433560       0x37 /usr/lib/gcc/x86_64-unknown-linux-gnu/4.9.2/../../../../lib/libc.a(fortify_fail.o)
                0x0000000000433560                __fortify_fail
 *fill*         0x0000000000433597        0x9 
 .text          0x00000000004335a0       0x7c /usr/lib/gcc/x86_64-unknown-linux-gnu/4.9.2/../../../../lib/libc.a(dl-debug.o)
                0x00000000004335a0                _dl_debug_state
                0x00000000004335b0                _dl_debug_initialize
 *fill*         0x000000000043361c        0x4 
 .text          0x0000000000433620      0xa79 /usr/lib/gcc/x86_64-unknown-linux-gnu/4.9.2/../../../../lib/libc.a(dl-support.o)
                0x0000000000433620                _dl_aux_init
                0x0000000000433830                _dl_non_dynamic_init
 *fill*         0x0000000000434099        0x7 
 .text          0x00000000004340a0      0x323 /usr/lib/gcc/x86_64-unknown-linux-gnu/4.9.2/../../../../lib/libc.a(dl-addr.o)
                0x00000000004340a0                _dl_addr
                0x0000000000434370                _dl_addr_inside_object
 *fill*         0x00000000004343c3        0xd 
 .text          0x00000000004343d0       0x45 /usr/lib/gcc/x86_64-unknown-linux-gnu/4.9.2/../../../../lib/libc.a(enbl-secure.o)
                0x00000000004343d0                __libc_init_secure
 *fill*         0x0000000000434415        0xb 
 .text          0x0000000000434420      0x105 /usr/lib/gcc/x86_64-unknown-linux-gnu/4.9.2/../../../../lib/libc.a(dl-sysdep.o)
                0x0000000000434420                _dl_discover_osversion
 *fill*         0x0000000000434525        0xb 
 .text          0x0000000000434530       0x99 /usr/lib/gcc/x86_64-unknown-linux-gnu/4.9.2/../../../../lib/libc.a(init-first.o)
                0x0000000000434530                __libc_init_first
                0x00000000004345c0                _dl_start
 *fill*         0x00000000004345c9        0x7 
 .text          0x00000000004345d0       0x10 /usr/lib/gcc/x86_64-unknown-linux-gnu/4.9.2/../../../../lib/libc.a(sysdep.o)
                0x00000000004345d0                __syscall_error
                0x00000000004345d3                __syscall_error_1
 .text          0x00000000004345e0      0x265 /usr/lib/gcc/x86_64-unknown-linux-gnu/4.9.2/../../../../lib/libc.a(init-arch.o)
                0x00000000004345e0                __init_cpu_features
                0x0000000000434830                __get_cpu_features
 *fill*         0x0000000000434845        0xb 
 .text          0x0000000000434850      0x49d /usr/lib/gcc/x86_64-unknown-linux-gnu/4.9.2/../../../../lib/libc.a(gconv_open.o)
                0x0000000000434850                __gconv_open
 *fill*         0x0000000000434ced        0x3 
 .text          0x0000000000434cf0      0x219 /usr/lib/gcc/x86_64-unknown-linux-gnu/4.9.2/../../../../lib/libc.a(gconv.o)
                0x0000000000434cf0                __gconv
 *fill*         0x0000000000434f09        0x7 
 .text          0x0000000000434f10       0x62 /usr/lib/gcc/x86_64-unknown-linux-gnu/4.9.2/../../../../lib/libc.a(gconv_close.o)
                0x0000000000434f10                __gconv_close
 *fill*         0x0000000000434f72        0xe 
 .text          0x0000000000434f80     0x1028 /usr/lib/gcc/x86_64-unknown-linux-gnu/4.9.2/../../../../lib/libc.a(gconv_db.o)
                0x0000000000434f80                __gconv_alias_compare
                0x0000000000435010                __gconv_get_modules_db
                0x0000000000435020                __gconv_get_alias_db
                0x0000000000435030                __gconv_release_step
                0x0000000000435bc0                __gconv_compare_alias
                0x0000000000435c60                __gconv_find_transform
                0x0000000000435ee0                __gconv_close_transform
 *fill*         0x0000000000435fa8        0x8 
 .text          0x0000000000435fb0      0xcc2 /usr/lib/gcc/x86_64-unknown-linux-gnu/4.9.2/../../../../lib/libc.a(gconv_conf.o)
                0x0000000000436490                __gconv_get_path
                0x0000000000436840                __gconv_read_conf
 *fill*         0x0000000000436c72        0xe 
 .text          0x0000000000436c80       0xcd /usr/lib/gcc/x86_64-unknown-linux-gnu/4.9.2/../../../../lib/libc.a(gconv_builtin.o)
                0x0000000000436c80                __gconv_get_builtin_trans
 *fill*         0x0000000000436d4d        0x3 
 .text          0x0000000000436d50     0x4d67 /usr/lib/gcc/x86_64-unknown-linux-gnu/4.9.2/../../../../lib/libc.a(gconv_simple.o)
                0x0000000000436d50                __gconv_btwoc_ascii
                0x0000000000436d60                __gconv_transform_internal_ucs4
                0x0000000000437120                __gconv_transform_ucs4_internal
                0x0000000000437590                __gconv_transform_internal_ucs4le
                0x0000000000437990                __gconv_transform_ucs4le_internal
                0x0000000000437df0                __gconv_transform_ascii_internal
                0x00000000004380c0                __gconv_transform_internal_ascii
                0x0000000000438890                __gconv_transform_internal_utf8
                0x0000000000439390                __gconv_transform_utf8_internal
                0x000000000043a060                __gconv_transform_ucs2_internal
                0x000000000043a560                __gconv_transform_internal_ucs2
                0x000000000043ada0                __gconv_transform_ucs2reverse_internal
                0x000000000043b2b0                __gconv_transform_internal_ucs2reverse
 *fill*         0x000000000043bab7        0x9 
 .text          0x000000000043bac0      0x48d /usr/lib/gcc/x86_64-unknown-linux-gnu/4.9.2/../../../../lib/libc.a(gconv_trans.o)
                0x000000000043bac0                __gconv_transliterate
 *fill*         0x000000000043bf4d        0x3 
 .text          0x000000000043bf50      0x8b2 /usr/lib/gcc/x86_64-unknown-linux-gnu/4.9.2/../../../../lib/libc.a(gconv_cache.o)
                0x000000000043c130                __gconv_get_cache
                0x000000000043c140                __gconv_load_cache
                0x000000000043c320                __gconv_compare_alias_cache
                0x000000000043c3a0                __gconv_lookup_cache
                0x000000000043c7f0                __gconv_release_cache
 *fill*         0x000000000043c802        0xe 
 .text          0x000000000043c810      0x298 /usr/lib/gcc/x86_64-unknown-linux-gnu/4.9.2/../../../../lib/libc.a(gconv_dl.o)
                0x000000000043c8a0                __gconv_find_shlib
                0x000000000043ca90                __gconv_release_shlib
 *fill*         0x000000000043caa8        0x8 
 .text          0x000000000043cab0      0x82f /usr/lib/gcc/x86_64-unknown-linux-gnu/4.9.2/../../../../lib/libc.a(setlocale.o)
                0x000000000043ccb0                setlocale
 *fill*         0x000000000043d2df        0x1 
 .text          0x000000000043d2e0      0x69a /usr/lib/gcc/x86_64-unknown-linux-gnu/4.9.2/../../../../lib/libc.a(findlocale.o)
                0x000000000043d3b0                _nl_find_locale
                0x000000000043d930                _nl_remove_locale
 *fill*         0x000000000043d97a        0x6 
 .text          0x000000000043d980      0x6ee /usr/lib/gcc/x86_64-unknown-linux-gnu/4.9.2/../../../../lib/libc.a(loadlocale.o)
                0x000000000043d980                _nl_intern_locale_data
                0x000000000043dcc0                _nl_load_locale
                0x000000000043e010                _nl_unload_locale
 *fill*         0x000000000043e06e        0x2 
 .text          0x000000000043e070      0x4f9 /usr/lib/gcc/x86_64-unknown-linux-gnu/4.9.2/../../../../lib/libc.a(loadarchive.o)
                0x000000000043e070                _nl_load_locale_from_archive
 *fill*         0x000000000043e569        0x7 
 .text          0x000000000043e570       0x72 /usr/lib/gcc/x86_64-unknown-linux-gnu/4.9.2/../../../../lib/libc.a(lc-ctype.o)
                0x000000000043e570                _nl_postload_ctype
 .text          0x000000000043e5e2        0x0 /usr/lib/gcc/x86_64-unknown-linux-gnu/4.9.2/../../../../lib/libc.a(C-ctype.o)
 .text          0x000000000043e5e2        0x0 /usr/lib/gcc/x86_64-unknown-linux-gnu/4.9.2/../../../../lib/libc.a(SYS_libc.o)
 .text          0x000000000043e5e2        0x0 /usr/lib/gcc/x86_64-unknown-linux-gnu/4.9.2/../../../../lib/libc.a(C_name.o)
 .text          0x000000000043e5e2        0x0 /usr/lib/gcc/x86_64-unknown-linux-gnu/4.9.2/../../../../lib/libc.a(xlocale.o)
 *fill*         0x000000000043e5e2        0xe 
 .text          0x000000000043e5f0       0x17 /usr/lib/gcc/x86_64-unknown-linux-gnu/4.9.2/../../../../lib/libc.a(localename.o)
                0x000000000043e5f0                __current_locale_name
 .text          0x000000000043e607        0x0 /usr/lib/gcc/x86_64-unknown-linux-gnu/4.9.2/../../../../lib/libc.a(global-locale.o)
 *fill*         0x000000000043e607        0x9 
 .text          0x000000000043e610       0xb6 /usr/lib/gcc/x86_64-unknown-linux-gnu/4.9.2/../../../../lib/libc.a(ctype-info.o)
                0x000000000043e610                __ctype_b_loc
                0x000000000043e630                __ctype_toupper_loc
                0x000000000043e650                __ctype_tolower_loc
                0x000000000043e670                __ctype_init
 *fill*         0x000000000043e6c6        0xa 
 .text          0x000000000043e6d0       0x1e /usr/lib/gcc/x86_64-unknown-linux-gnu/4.9.2/../../../../lib/libc.a(setfpucw.o)
                0x000000000043e6d0                __setfpucw
 .text          0x000000000043e6ee        0x0 /usr/lib/gcc/x86_64-unknown-linux-gnu/4.9.2/../../../../lib/libc.a(fpu_control.o)
 *fill*         0x000000000043e6ee        0x2 
 .text          0x000000000043e6f0       0x57 /usr/lib/gcc/x86_64-unknown-linux-gnu/4.9.2/../../../../lib/libc.a(setjmp.o)
                0x000000000043e6f0                __sigsetjmp
 *fill*         0x000000000043e747        0x9 
 .text          0x000000000043e750       0x26 /usr/lib/gcc/x86_64-unknown-linux-gnu/4.9.2/../../../../lib/libc.a(sigjmp.o)
                0x000000000043e750                __sigjmp_save
 *fill*         0x000000000043e776        0xa 
 .text          0x000000000043e780      0x264 /usr/lib/gcc/x86_64-unknown-linux-gnu/4.9.2/../../../../lib/libc.a(sigaction.o)
                0x000000000043e7a0                __libc_sigaction
                0x000000000043e9c0                sigaction
                0x000000000043e9c0                __sigaction
 *fill*         0x000000000043e9e4        0xc 
 .text          0x000000000043e9f0       0x32 /usr/lib/gcc/x86_64-unknown-linux-gnu/4.9.2/../../../../lib/libc.a(sigprocmask.o)
                0x000000000043e9f0                __sigprocmask
                0x000000000043e9f0                sigprocmask
 *fill*         0x000000000043ea22        0xe 
 .text          0x000000000043ea30      0x488 /usr/lib/gcc/x86_64-unknown-linux-gnu/4.9.2/../../../../lib/libc.a(qsort.o)
                0x000000000043ea30                _quicksort
 *fill*         0x000000000043eeb8        0x8 
 .text          0x000000000043eec0      0x5b0 /usr/lib/gcc/x86_64-unknown-linux-gnu/4.9.2/../../../../lib/libc.a(setenv.o)
                0x000000000043eec0                __add_to_environ
                0x000000000043f220                setenv
                0x000000000043f220                __setenv
                0x000000000043f280                unsetenv
                0x000000000043f280                __unsetenv
                0x000000000043f3c0                clearenv
                0x000000000043f3c0                __clearenv
 .text          0x000000000043f470       0x13 /usr/lib/gcc/x86_64-unknown-linux-gnu/4.9.2/../../../../lib/libc.a(secure-getenv.o)
                0x000000000043f470                secure_getenv
                0x000000000043f470                __libc_secure_getenv
 *fill*         0x000000000043f483        0xd 
 .text          0x000000000043f490       0x22 /usr/lib/gcc/x86_64-unknown-linux-gnu/4.9.2/../../../../lib/libc.a(strtol.o)
                0x000000000043f490                __strtol_internal
                0x000000000043f490                __strtoll_internal
                0x000000000043f4a0                strtoll
                0x000000000043f4a0                strtoq
                0x000000000043f4a0                strtol
                0x000000000043f4a0                __strtol
 *fill*         0x000000000043f4b2        0xe 
 .text          0x000000000043f4c0      0x49a /usr/lib/gcc/x86_64-unknown-linux-gnu/4.9.2/../../../../lib/libc.a(strtol_l.o)
                0x000000000043f4c0                ____strtol_l_internal
                0x000000000043f4c0                ____strtoll_l_internal
                0x000000000043f950                strtoll_l
                0x000000000043f950                strtol_l
                0x000000000043f950                __strtoll_l
                0x000000000043f950                __strtol_l
 *fill*         0x000000000043f95a        0x6 
 .text          0x000000000043f960      0x12a /usr/lib/gcc/x86_64-unknown-linux-gnu/4.9.2/../../../../lib/libc.a(_itoa.o)
                0x000000000043f960                _itoa_word
                0x000000000043fa30                _fitoa_word
 .text          0x000000000043fa8a        0x0 /usr/lib/gcc/x86_64-unknown-linux-gnu/4.9.2/../../../../lib/libc.a(itoa-digits.o)
 .text          0x000000000043fa8a        0x0 /usr/lib/gcc/x86_64-unknown-linux-gnu/4.9.2/../../../../lib/libc.a(itoa-udigits.o)
 *fill*         0x000000000043fa8a        0x6 
 .text          0x000000000043fa90     0x55e5 /usr/lib/gcc/x86_64-unknown-linux-gnu/4.9.2/../../../../lib/libc.a(vfprintf.o)
                0x000000000043fb50                _IO_vfprintf_internal
                0x000000000043fb50                _IO_vfprintf
                0x000000000043fb50                vfprintf
 *fill*         0x0000000000445075        0xb 
 .text          0x0000000000445080     0x2a43 /usr/lib/gcc/x86_64-unknown-linux-gnu/4.9.2/../../../../lib/libc.a(printf_fp.o)
                0x00000000004454c0                ___printf_fp
                0x00000000004454c0                __printf_fp
                0x0000000000447ab0                __guess_grouping
 *fill*         0x0000000000447ac3        0xd 
 .text          0x0000000000447ad0      0x115 /usr/lib/gcc/x86_64-unknown-linux-gnu/4.9.2/../../../../lib/libc.a(reg-printf.o)
                0x0000000000447ad0                __register_printf_specifier
                0x0000000000447ad0                register_printf_specifier
                0x0000000000447be0                __register_printf_function
                0x0000000000447be0                register_printf_function
 *fill*         0x0000000000447be5        0xb 
 .text          0x0000000000447bf0     0x1982 /usr/lib/gcc/x86_64-unknown-linux-gnu/4.9.2/../../../../lib/libc.a(printf_fphex.o)
                0x0000000000447bf0                __printf_fphex
 *fill*         0x0000000000449572        0xe 
 .text          0x0000000000449580      0x345 /usr/lib/gcc/x86_64-unknown-linux-gnu/4.9.2/../../../../lib/libc.a(reg-modifier.o)
                0x0000000000449580                __register_printf_modifier
                0x0000000000449580                register_printf_modifier
                0x0000000000449720                __handle_registered_modifier_mb
                0x0000000000449800                __handle_registered_modifier_wc
 *fill*         0x00000000004498c5        0xb 
 .text          0x00000000004498d0       0xe5 /usr/lib/gcc/x86_64-unknown-linux-gnu/4.9.2/../../../../lib/libc.a(reg-type.o)
                0x00000000004498d0                __register_printf_type
                0x00000000004498d0                register_printf_type
 *fill*         0x00000000004499b5        0xb 
 .text          0x00000000004499c0       0x8f /usr/lib/gcc/x86_64-unknown-linux-gnu/4.9.2/../../../../lib/libc.a(fprintf.o)
                0x00000000004499c0                fprintf
                0x00000000004499c0                _IO_fprintf
                0x00000000004499c0                __fprintf
 *fill*         0x0000000000449a4f        0x1 
 .text          0x0000000000449a50     0x53c5 /usr/lib/gcc/x86_64-unknown-linux-gnu/4.9.2/../../../../lib/libc.a(vfwprintf.o)
                0x0000000000449b30                _IO_vfwprintf
                0x0000000000449b30                vfwprintf
                0x0000000000449b30                __vfwprintf
 *fill*         0x000000000044ee15        0xb 
 .text          0x000000000044ee20       0x8f /usr/lib/gcc/x86_64-unknown-linux-gnu/4.9.2/../../../../lib/libc.a(sscanf.o)
                0x000000000044ee20                __sscanf
                0x000000000044ee20                sscanf
                0x000000000044ee20                _IO_sscanf
 *fill*         0x000000000044eeaf        0x1 
 .text          0x000000000044eeb0       0x41 /usr/lib/gcc/x86_64-unknown-linux-gnu/4.9.2/../../../../lib/libc.a(funlockfile.o)
                0x000000000044eeb0                _IO_funlockfile
                0x000000000044eeb0                funlockfile
                0x000000000044eeb0                __funlockfile
 *fill*         0x000000000044eef1        0xf 
 .text          0x000000000044ef00      0x6bf /usr/lib/gcc/x86_64-unknown-linux-gnu/4.9.2/../../../../lib/libc.a(printf-parsemb.o)
                0x000000000044ef60                __parse_one_specmb
 *fill*         0x000000000044f5bf        0x1 
 .text          0x000000000044f5c0      0x6bf /usr/lib/gcc/x86_64-unknown-linux-gnu/4.9.2/../../../../lib/libc.a(printf-parsewc.o)
                0x000000000044f620                __parse_one_specwc
 *fill*         0x000000000044fc7f        0x1 
 .text          0x000000000044fc80      0x108 /usr/lib/gcc/x86_64-unknown-linux-gnu/4.9.2/../../../../lib/libc.a(filedoalloc.o)
                0x000000000044fc80                _IO_file_doallocate
 *fill*         0x000000000044fd88        0x8 
 .text          0x000000000044fd90      0x165 /usr/lib/gcc/x86_64-unknown-linux-gnu/4.9.2/../../../../lib/libc.a(iofputs.o)
                0x000000000044fd90                _IO_fputs
                0x000000000044fd90                fputs
 *fill*         0x000000000044fef5        0xb 
 .text          0x000000000044ff00       0x8b /usr/lib/gcc/x86_64-unknown-linux-gnu/4.9.2/../../../../lib/libc.a(wfiledoalloc.o)
                0x000000000044ff00                _IO_wfile_doallocate
 *fill*         0x000000000044ff8b        0x5 
 .text          0x000000000044ff90      0x1dc /usr/lib/gcc/x86_64-unknown-linux-gnu/4.9.2/../../../../lib/libc.a(iofwrite.o)
                0x000000000044ff90                _IO_fwrite
                0x000000000044ff90                fwrite
 *fill*         0x000000000045016c        0x4 
 .text          0x0000000000450170      0x332 /usr/lib/gcc/x86_64-unknown-linux-gnu/4.9.2/../../../../lib/libc.a(iogetdelim.o)
                0x0000000000450170                __getdelim
                0x0000000000450170                getdelim
                0x0000000000450170                _IO_getdelim
 *fill*         0x00000000004504a2        0xe 
 .text          0x00000000004504b0      0x1b8 /usr/lib/gcc/x86_64-unknown-linux-gnu/4.9.2/../../../../lib/libc.a(iogetline.o)
                0x00000000004504b0                _IO_getline_info
                0x0000000000450660                _IO_getline
 *fill*         0x0000000000450668        0x8 
 .text          0x0000000000450670       0xb1 /usr/lib/gcc/x86_64-unknown-linux-gnu/4.9.2/../../../../lib/libc.a(iopadn.o)
                0x0000000000450670                _IO_padn
 *fill*         0x0000000000450721        0xf 
 .text          0x0000000000450730       0x6e /usr/lib/gcc/x86_64-unknown-linux-gnu/4.9.2/../../../../lib/libc.a(iovsscanf.o)
                0x0000000000450730                vsscanf
                0x0000000000450730                __vsscanf
                0x0000000000450730                _IO_vsscanf
 *fill*         0x000000000045079e        0x2 
 .text          0x00000000004507a0       0xb1 /usr/lib/gcc/x86_64-unknown-linux-gnu/4.9.2/../../../../lib/libc.a(iowpadn.o)
                0x00000000004507a0                _IO_wpadn
 *fill*         0x0000000000450851        0xf 
 .text          0x0000000000450860      0xe92 /usr/lib/gcc/x86_64-unknown-linux-gnu/4.9.2/../../../../lib/libc.a(wgenops.o)
                0x0000000000450a80                _IO_least_wmarker
                0x0000000000450ac0                _IO_switch_to_main_wget_area
                0x0000000000450b00                _IO_switch_to_wbackup_area
                0x0000000000450b40                _IO_wsetb
                0x0000000000450bd0                _IO_wdefault_pbackfail
                0x0000000000450d80                _IO_wdefault_finish
                0x0000000000450e20                _IO_wdefault_uflow
                0x0000000000450e50                __woverflow
                0x0000000000450e90                _IO_wdefault_xsputn
                0x0000000000450f90                _IO_wdoallocbuf
                0x0000000000450fe0                _IO_wdefault_doallocate
                0x0000000000451030                _IO_switch_to_wget_mode
                0x00000000004510b0                _IO_free_wbackup_area
                0x0000000000451120                __wuflow
                0x0000000000451250                __wunderflow
                0x0000000000451380                _IO_wdefault_xsgetn
                0x0000000000451460                _IO_sputbackwc
                0x00000000004514b0                _IO_sungetwc
                0x0000000000451500                _IO_adjust_wcolumn
                0x0000000000451550                _IO_init_wmarker
                0x00000000004515c0                _IO_wmarker_delta
                0x0000000000451610                _IO_seekwmark
                0x00000000004516d0                _IO_unsave_wmarkers
 *fill*         0x00000000004516f2        0xe 
 .text          0x0000000000451700      0x53d /usr/lib/gcc/x86_64-unknown-linux-gnu/4.9.2/../../../../lib/libc.a(iofwide.o)
                0x0000000000451a80                _IO_fwide
 *fill*         0x0000000000451c3d        0x3 
 .text          0x0000000000451c40       0x49 /usr/lib/gcc/x86_64-unknown-linux-gnu/4.9.2/../../../../lib/libc.a(strndup.o)
                0x0000000000451c40                strndup
                0x0000000000451c40                __strndup
 *fill*         0x0000000000451c89        0x7 
 .text          0x0000000000451c90      0x184 /usr/lib/gcc/x86_64-unknown-linux-gnu/4.9.2/../../../../lib/libc.a(_strerror.o)
                0x0000000000451c90                __strerror_r
                0x0000000000451c90                strerror_r
 *fill*         0x0000000000451e14        0xc 
 .text          0x0000000000451e20      0x220 /usr/lib/gcc/x86_64-unknown-linux-gnu/4.9.2/../../../../lib/libc.a(strnlen.o)
                0x0000000000451e20                __strnlen
                0x0000000000451e20                strnlen
 .text          0x0000000000452040      0x2e2 /usr/lib/gcc/x86_64-unknown-linux-gnu/4.9.2/../../../../lib/libc.a(strrchr.o)
                0x0000000000452040                strrchr
                0x0000000000452040                rindex
 *fill*         0x0000000000452322        0xe 
 .text          0x0000000000452330      0x70e /usr/lib/gcc/x86_64-unknown-linux-gnu/4.9.2/../../../../lib/libc.a(memmem.o)
                0x0000000000452750                memmem
                0x0000000000452750                __memmem
 *fill*         0x0000000000452a3e        0x2 
 .text          0x0000000000452a40       0xdb /usr/lib/gcc/x86_64-unknown-linux-gnu/4.9.2/../../../../lib/libc.a(argz-ctsep.o)
                0x0000000000452a40                __argz_create_sep
                0x0000000000452a40                argz_create_sep
 *fill*         0x0000000000452b1b        0x5 
 .text          0x0000000000452b20       0xa6 /usr/lib/gcc/x86_64-unknown-linux-gnu/4.9.2/../../../../lib/libc.a(argz-addsep.o)
                0x0000000000452b20                argz_add_sep
                0x0000000000452b20                __argz_add_sep
 *fill*         0x0000000000452bc6        0xa 
 .text          0x0000000000452bd0      0x298 /usr/lib/gcc/x86_64-unknown-linux-gnu/4.9.2/../../../../lib/libc.a(wcslen.o)
                0x0000000000452bd0                wcslen
                0x0000000000452bd0                __wcslen
 *fill*         0x0000000000452e68        0x8 
 .text          0x0000000000452e70        0x9 /usr/lib/gcc/x86_64-unknown-linux-gnu/4.9.2/../../../../lib/libc.a(wmemcpy.o)
                0x0000000000452e70                wmemcpy
                0x0000000000452e70                __wmemcpy
 *fill*         0x0000000000452e79        0x7 
 .text          0x0000000000452e80        0x9 /usr/lib/gcc/x86_64-unknown-linux-gnu/4.9.2/../../../../lib/libc.a(wmemmove.o)
                0x0000000000452e80                __wmemmove
                0x0000000000452e80                wmemmove
 *fill*         0x0000000000452e89        0x7 
 .text          0x0000000000452e90       0x5a /usr/lib/gcc/x86_64-unknown-linux-gnu/4.9.2/../../../../lib/libc.a(wmemset.o)
                0x0000000000452e90                wmemset
                0x0000000000452e90                __wmemset
 *fill*         0x0000000000452eea        0x6 
 .text          0x0000000000452ef0      0x184 /usr/lib/gcc/x86_64-unknown-linux-gnu/4.9.2/../../../../lib/libc.a(btowc.o)
                0x0000000000452ef0                __btowc
                0x0000000000452ef0                btowc
 *fill*         0x0000000000453074        0xc 
 .text          0x0000000000453080      0x1e2 /usr/lib/gcc/x86_64-unknown-linux-gnu/4.9.2/../../../../lib/libc.a(wcrtomb.o)
                0x0000000000453080                c32rtomb
                0x0000000000453080                __wcrtomb
                0x0000000000453080                wcrtomb
 *fill*         0x0000000000453262        0xe 
 .text          0x0000000000453270       0x1c /usr/lib/gcc/x86_64-unknown-linux-gnu/4.9.2/../../../../lib/libc.a(mbsrtowcs.o)
                0x0000000000453270                mbsrtowcs
                0x0000000000453270                __mbsrtowcs
 *fill*         0x000000000045328c        0x4 
 .text          0x0000000000453290      0x285 /usr/lib/gcc/x86_64-unknown-linux-gnu/4.9.2/../../../../lib/libc.a(wcsrtombs.o)
                0x0000000000453290                wcsrtombs
                0x0000000000453290                __wcsrtombs
 *fill*         0x0000000000453515        0xb 
 .text          0x0000000000453520       0xa7 /usr/lib/gcc/x86_64-unknown-linux-gnu/4.9.2/../../../../lib/libc.a(wcsnlen.o)
                0x0000000000453520                wcsnlen
                0x0000000000453520                __wcsnlen
 *fill*         0x00000000004535c7        0x9 
 .text          0x00000000004535d0       0x20 /usr/lib/gcc/x86_64-unknown-linux-gnu/4.9.2/../../../../lib/libc.a(wcschrnul.o)
                0x00000000004535d0                __wcschrnul
                0x00000000004535d0                wcschrnul
 .text          0x00000000004535f0      0x357 /usr/lib/gcc/x86_64-unknown-linux-gnu/4.9.2/../../../../lib/libc.a(mbsrtowcs_l.o)
                0x00000000004535f0                __mbsrtowcs_l
 *fill*         0x0000000000453947        0x9 
 .text          0x0000000000453950        0x8 /usr/lib/gcc/x86_64-unknown-linux-gnu/4.9.2/../../../../lib/libc.a(time.o)
                0x0000000000453950                time
 *fill*         0x0000000000453958        0x8 
 .text          0x0000000000453960     0x107d /usr/lib/gcc/x86_64-unknown-linux-gnu/4.9.2/../../../../lib/libc.a(tzset.o)
                0x0000000000453cc0                __tzstring
                0x0000000000453da0                __tzset_parse_tz
                0x0000000000454640                __tzname_max
                0x00000000004546d0                __tz_compute
                0x0000000000454780                __tzset
                0x0000000000454780                tzset
                0x0000000000454840                __tz_convert
 *fill*         0x00000000004549dd        0x3 
 .text          0x00000000004549e0     0x151d /usr/lib/gcc/x86_64-unknown-linux-gnu/4.9.2/../../../../lib/libc.a(tzfile.o)
                0x0000000000454a30                __tzfile_read
                0x0000000000455690                __tzfile_default
                0x0000000000455840                __tzfile_compute
 *fill*         0x0000000000455efd        0x3 
 .text          0x0000000000455f00      0x16d /usr/lib/gcc/x86_64-unknown-linux-gnu/4.9.2/../../../../lib/libc.a(opendir.o)
                0x0000000000455f00                __alloc_dir
                0x0000000000456010                __opendirat
                0x0000000000456060                __opendir
                0x0000000000456060                opendir
 *fill*         0x000000000045606d        0x3 
 .text          0x0000000000456070       0x2c /usr/lib/gcc/x86_64-unknown-linux-gnu/4.9.2/../../../../lib/libc.a(closedir.o)
                0x0000000000456070                __closedir
                0x0000000000456070                closedir
 *fill*         0x000000000045609c        0x4 
 .text          0x00000000004560a0       0xf7 /usr/lib/gcc/x86_64-unknown-linux-gnu/4.9.2/../../../../lib/libc.a(readdir.o)
                0x00000000004560a0                readdir
                0x00000000004560a0                __readdir64
                0x00000000004560a0                __readdir
                0x00000000004560a0                readdir64
 *fill*         0x0000000000456197        0x9 
 .text          0x00000000004561a0       0x93 /usr/lib/gcc/x86_64-unknown-linux-gnu/4.9.2/../../../../lib/libc.a(rewinddir.o)
                0x00000000004561a0                rewinddir
                0x00000000004561a0                __rewinddir
 *fill*         0x0000000000456233        0xd 
 .text          0x0000000000456240       0x97 /usr/lib/gcc/x86_64-unknown-linux-gnu/4.9.2/../../../../lib/libc.a(getdents.o)
                0x0000000000456240                __getdents
                0x0000000000456240                __getdents64
 *fill*         0x00000000004562d7        0x9 
 .text          0x00000000004562e0       0x9a /usr/lib/gcc/x86_64-unknown-linux-gnu/4.9.2/../../../../lib/libc.a(fdopendir.o)
                0x00000000004562e0                fdopendir
                0x00000000004562e0                __fdopendir
 *fill*         0x000000000045637a        0x6 
 .text          0x0000000000456380       0x14 /usr/lib/gcc/x86_64-unknown-linux-gnu/4.9.2/../../../../lib/libc.a(uname.o)
                0x0000000000456380                uname
                0x0000000000456380                __uname
 *fill*         0x0000000000456394        0xc 
 .text          0x00000000004563a0        0x8 /usr/lib/gcc/x86_64-unknown-linux-gnu/4.9.2/../../../../lib/libc.a(getuid.o)
                0x00000000004563a0                getuid
                0x00000000004563a0                __getuid
 *fill*         0x00000000004563a8        0x8 
 .text          0x00000000004563b0        0x8 /usr/lib/gcc/x86_64-unknown-linux-gnu/4.9.2/../../../../lib/libc.a(geteuid.o)
                0x00000000004563b0                geteuid
                0x00000000004563b0                __geteuid
 *fill*         0x00000000004563b8        0x8 
 .text          0x00000000004563c0        0x8 /usr/lib/gcc/x86_64-unknown-linux-gnu/4.9.2/../../../../lib/libc.a(getgid.o)
                0x00000000004563c0                getgid
                0x00000000004563c0                __getgid
 *fill*         0x00000000004563c8        0x8 
 .text          0x00000000004563d0        0x8 /usr/lib/gcc/x86_64-unknown-linux-gnu/4.9.2/../../../../lib/libc.a(getegid.o)
                0x00000000004563d0                getegid
                0x00000000004563d0                __getegid
 *fill*         0x00000000004563d8        0x8 
 .text          0x00000000004563e0       0x4c /usr/lib/gcc/x86_64-unknown-linux-gnu/4.9.2/../../../../lib/libc.a(lxstat.o)
                0x00000000004563e0                _lxstat
                0x00000000004563e0                __lxstat
                0x00000000004563e0                __lxstat64
 *fill*         0x000000000045642c        0x4 
 .text          0x0000000000456430       0x54 /usr/lib/gcc/x86_64-unknown-linux-gnu/4.9.2/../../../../lib/libc.a(fxstatat.o)
                0x0000000000456430                __fxstatat
                0x0000000000456430                __fxstatat64
                0x0000000000456430                __GI___fxstatat64
 *fill*         0x0000000000456484        0xc 
 .text          0x0000000000456490      0x12b /usr/lib/gcc/x86_64-unknown-linux-gnu/4.9.2/../../../../lib/libc.a(openat.o)
                0x0000000000456490                __openat64_nocancel
                0x0000000000456490                __openat_nocancel
                0x00000000004564d0                __openat64
                0x00000000004564d0                openat64
                0x00000000004564d0                __openat
                0x00000000004564d0                openat
 *fill*         0x00000000004565bb        0x5 
 .text          0x00000000004565c0       0x14 /usr/lib/gcc/x86_64-unknown-linux-gnu/4.9.2/../../../../lib/libc.a(access.o)
                0x00000000004565c0                access
                0x00000000004565c0                __access
 *fill*         0x00000000004565d4        0xc 
 .text          0x00000000004565e0       0x19 /usr/lib/gcc/x86_64-unknown-linux-gnu/4.9.2/../../../../lib/libc.a(isatty.o)
                0x00000000004565e0                isatty
                0x00000000004565e0                __isatty
 *fill*         0x00000000004565f9        0x7 
 .text          0x0000000000456600       0xb2 /usr/lib/gcc/x86_64-unknown-linux-gnu/4.9.2/../../../../lib/libc.a(tcgetattr.o)
                0x0000000000456600                __tcgetattr
                0x0000000000456600                tcgetattr
 *fill*         0x00000000004566b2        0xe 
 .text          0x00000000004566c0       0x64 /usr/lib/gcc/x86_64-unknown-linux-gnu/4.9.2/../../../../lib/libc.a(brk.o)
                0x00000000004566c0                __brk
                0x00000000004566c0                brk
 *fill*         0x0000000000456724        0xc 
 .text          0x0000000000456730       0x51 /usr/lib/gcc/x86_64-unknown-linux-gnu/4.9.2/../../../../lib/libc.a(writev.o)
                0x0000000000456730                writev
                0x0000000000456730                __writev
                0x0000000000456739                __writev_nocancel
 *fill*         0x0000000000456781        0xf 
 .text          0x0000000000456790       0x85 /usr/lib/gcc/x86_64-unknown-linux-gnu/4.9.2/../../../../lib/libc.a(wctrans.o)
                0x0000000000456790                __wctrans
                0x0000000000456790                wctrans
 *fill*         0x0000000000456815        0xb 
 .text          0x0000000000456820       0x4a /usr/lib/gcc/x86_64-unknown-linux-gnu/4.9.2/../../../../lib/libc.a(towctrans.o)
                0x0000000000456820                towctrans
                0x0000000000456820                __towctrans
 *fill*         0x000000000045686a        0x6 
 .text          0x0000000000456870      0x1ba /usr/lib/gcc/x86_64-unknown-linux-gnu/4.9.2/../../../../lib/libc.a(readonly-area.o)
                0x0000000000456870                __readonly_area
 *fill*         0x0000000000456a2a        0x6 
 .text          0x0000000000456a30     0x360d /usr/lib/gcc/x86_64-unknown-linux-gnu/4.9.2/../../../../lib/libc.a(dl-load.o)
                0x0000000000458a20                _dl_dst_count
                0x0000000000458ac0                _dl_dst_substitute
                0x00000000004593b0                _dl_init_paths
                0x00000000004595b0                _dl_map_object
                0x0000000000459e30                _dl_rtld_di_serinfo
 *fill*         0x000000000045a03d        0x3 
 .text          0x000000000045a040     0x1827 /usr/lib/gcc/x86_64-unknown-linux-gnu/4.9.2/../../../../lib/libc.a(dl-lookup.o)
                0x000000000045abf0                _dl_lookup_symbol_x
                0x000000000045b7c0                _dl_setup_hash
 *fill*         0x000000000045b867        0x9 
 .text          0x000000000045b870      0x3d0 /usr/lib/gcc/x86_64-unknown-linux-gnu/4.9.2/../../../../lib/libc.a(dl-object.o)
                0x000000000045b870                _dl_add_to_namespace_list
                0x000000000045b920                _dl_new_object
 .text          0x000000000045bc40     0x179e /usr/lib/gcc/x86_64-unknown-linux-gnu/4.9.2/../../../../lib/libc.a(dl-reloc.o)
                0x000000000045bc40                _dl_try_allocate_static_tls
                0x000000000045bd00                _dl_allocate_static_tls
                0x000000000045bd30                _dl_nothread_init_static_tls
                0x000000000045bdb0                _dl_protect_relro
                0x000000000045be10                _dl_reloc_bad_type
                0x000000000045bef0                _dl_relocate_object
 *fill*         0x000000000045d3de        0x2 
 .text          0x000000000045d3e0      0x72d /usr/lib/gcc/x86_64-unknown-linux-gnu/4.9.2/../../../../lib/libc.a(dl-hwcaps.o)
                0x000000000045d3e0                _dl_important_hwcaps
 *fill*         0x000000000045db0d        0x3 
 .text          0x000000000045db10      0x317 /usr/lib/gcc/x86_64-unknown-linux-gnu/4.9.2/../../../../lib/libc.a(dl-error.o)
                0x000000000045db10                _dl_signal_error
                0x000000000045dc80                _dl_signal_cerror
                0x000000000045dd00                _dl_catch_error
                0x000000000045ddd0                _dl_receive_error
 *fill*         0x000000000045de27        0x9 
 .text          0x000000000045de30      0x8ae /usr/lib/gcc/x86_64-unknown-linux-gnu/4.9.2/../../../../lib/libc.a(dl-misc.o)
                0x000000000045e370                _dl_sysdep_read_whole_file
                0x000000000045e400                _dl_debug_printf
                0x000000000045e4b0                _dl_debug_printf_c
                0x000000000045e560                _dl_dprintf
                0x000000000045e600                _dl_name_match_p
                0x000000000045e670                _dl_higher_prime_number
 *fill*         0x000000000045e6de        0x2 
 .text          0x000000000045e6e0      0x786 /usr/lib/gcc/x86_64-unknown-linux-gnu/4.9.2/../../../../lib/libc.a(dl-tls.o)
                0x000000000045e730                _dl_next_tls_modid
                0x000000000045e820                _dl_count_modids
                0x000000000045e880                _dl_get_tls_static_info
                0x000000000045e8a0                _dl_allocate_tls_storage
                0x000000000045e940                _dl_allocate_tls_init
                0x000000000045ec30                _dl_allocate_tls
                0x000000000045ec70                _dl_deallocate_tls
                0x000000000045ed00                _dl_tls_get_addr_soft
                0x000000000045ed90                _dl_add_to_slotinfo
 *fill*         0x000000000045ee66        0xa 
 .text          0x000000000045ee70      0x16f /usr/lib/gcc/x86_64-unknown-linux-gnu/4.9.2/../../../../lib/libc.a(dl-origin.o)
                0x000000000045ee70                _dl_get_origin
 *fill*         0x000000000045efdf        0x1 
 .text          0x000000000045efe0       0xc2 /usr/lib/gcc/x86_64-unknown-linux-gnu/4.9.2/../../../../lib/libc.a(dl-scope.o)
                0x000000000045efe0                _dl_scope_free
 *fill*         0x000000000045f0a2        0xe 
 .text          0x000000000045f0b0       0x5c /usr/lib/gcc/x86_64-unknown-linux-gnu/4.9.2/../../../../lib/libc.a(dl-execstack.o)
                0x000000000045f0b0                _dl_make_stack_executable
 *fill*         0x000000000045f10c        0x4 
 .text          0x000000000045f110      0xefe /usr/lib/gcc/x86_64-unknown-linux-gnu/4.9.2/../../../../lib/libc.a(dl-open.o)
                0x000000000045f330                _dl_find_dso_for_object
                0x000000000045f3c0                _dl_open
                0x000000000045f680                _dl_show_scope
 *fill*         0x000000000046000e        0x2 
 .text          0x0000000000460010      0xe83 /usr/lib/gcc/x86_64-unknown-linux-gnu/4.9.2/../../../../lib/libc.a(dl-close.o)
                0x0000000000460150                _dl_close_worker
                0x0000000000460e10                _dl_close
 *fill*         0x0000000000460e93        0xd 
 .text          0x0000000000460ea0      0xac1 /usr/lib/gcc/x86_64-unknown-linux-gnu/4.9.2/../../../../lib/libc.a(dl-trampoline.o)
                0x0000000000460ea0                _dl_runtime_resolve
                0x0000000000460f40                _dl_runtime_profile
 *fill*         0x0000000000461961        0xf 
 .text          0x0000000000461970      0x6b8 /usr/lib/gcc/x86_64-unknown-linux-gnu/4.9.2/../../../../lib/libc.a(dl-cache.o)
                0x0000000000461970                _dl_cache_libcmp
                0x0000000000461a50                _dl_load_cache_lookup
                0x0000000000461ff0                _dl_unload_cache
 *fill*         0x0000000000462028        0x8 
 .text          0x0000000000462030       0x32 /usr/lib/gcc/x86_64-unknown-linux-gnu/4.9.2/../../../../lib/libc.a(dl-profstub.o)
                0x0000000000462030                _dl_mcount_wrapper
                0x0000000000462040                _dl_mcount_wrapper_check
 *fill*         0x0000000000462062        0xe 
 .text          0x0000000000462070      0x28f /usr/lib/gcc/x86_64-unknown-linux-gnu/4.9.2/../../../../lib/libc.a(dl-libc.o)
                0x0000000000462120                __libc_dlsym
                0x0000000000462170                __libc_dlclose
                0x0000000000462230                __libc_dlsym_private
                0x0000000000462280                __libc_dlopen_mode
                0x00000000004622e0                __libc_register_dl_open_hook
 *fill*         0x00000000004622ff        0x1 
 .text          0x0000000000462300       0x10 /usr/lib/gcc/x86_64-unknown-linux-gnu/4.9.2/../../../../lib/libc.a(dl-tsd.o)
                0x0000000000462300                _dl_initial_error_catch_tsd
 .text          0x0000000000462310      0x209 /usr/lib/gcc/x86_64-unknown-linux-gnu/4.9.2/../../../../lib/libc.a(tlsdesc.o)
                0x0000000000462310                _dl_tlsdesc_resolve_rela_fixup
                0x00000000004624b0                _dl_tlsdesc_resolve_hold_fixup
                0x0000000000462500                _dl_unmap
 *fill*         0x0000000000462519        0x7 
 .text          0x0000000000462520      0x101 /usr/lib/gcc/x86_64-unknown-linux-gnu/4.9.2/../../../../lib/libc.a(dl-tlsdesc.o)
                0x0000000000462520                _dl_tlsdesc_return
                0x0000000000462530                _dl_tlsdesc_undefweak
                0x0000000000462540                _dl_tlsdesc_resolve_rela
                0x00000000004625b0                _dl_tlsdesc_resolve_hold
 .text          0x0000000000462621        0x0 /usr/lib/gcc/x86_64-unknown-linux-gnu/4.9.2/../../../../lib/libc.a(lc-monetary.o)
 .text          0x0000000000462621        0x0 /usr/lib/gcc/x86_64-unknown-linux-gnu/4.9.2/../../../../lib/libc.a(lc-numeric.o)
 .text          0x0000000000462621        0x0 /usr/lib/gcc/x86_64-unknown-linux-gnu/4.9.2/../../../../lib/libc.a(C-messages.o)
 .text          0x0000000000462621        0x0 /usr/lib/gcc/x86_64-unknown-linux-gnu/4.9.2/../../../../lib/libc.a(C-monetary.o)
 .text          0x0000000000462621        0x0 /usr/lib/gcc/x86_64-unknown-linux-gnu/4.9.2/../../../../lib/libc.a(C-numeric.o)
 .text          0x0000000000462621        0x0 /usr/lib/gcc/x86_64-unknown-linux-gnu/4.9.2/../../../../lib/libc.a(C-time.o)
 .text          0x0000000000462621        0x0 /usr/lib/gcc/x86_64-unknown-linux-gnu/4.9.2/../../../../lib/libc.a(C-paper.o)
 .text          0x0000000000462621        0x0 /usr/lib/gcc/x86_64-unknown-linux-gnu/4.9.2/../../../../lib/libc.a(C-name.o)
 .text          0x0000000000462621        0x0 /usr/lib/gcc/x86_64-unknown-linux-gnu/4.9.2/../../../../lib/libc.a(C-address.o)
 .text          0x0000000000462621        0x0 /usr/lib/gcc/x86_64-unknown-linux-gnu/4.9.2/../../../../lib/libc.a(C-telephone.o)
 .text          0x0000000000462621        0x0 /usr/lib/gcc/x86_64-unknown-linux-gnu/4.9.2/../../../../lib/libc.a(C-measurement.o)
 .text          0x0000000000462621        0x0 /usr/lib/gcc/x86_64-unknown-linux-gnu/4.9.2/../../../../lib/libc.a(C-identification.o)
 .text          0x0000000000462621        0x0 /usr/lib/gcc/x86_64-unknown-linux-gnu/4.9.2/../../../../lib/libc.a(C-collate.o)
 *fill*         0x0000000000462621        0xf 
 .text          0x0000000000462630       0x35 /usr/lib/gcc/x86_64-unknown-linux-gnu/4.9.2/../../../../lib/libc.a(s_isinf.o)
                0x0000000000462630                __isinf
                0x0000000000462630                isinf
 *fill*         0x0000000000462665        0xb 
 .text          0x0000000000462670       0x24 /usr/lib/gcc/x86_64-unknown-linux-gnu/4.9.2/../../../../lib/libc.a(s_isnan.o)
                0x0000000000462670                __isnan
                0x0000000000462670                isnan
 *fill*         0x0000000000462694        0xc 
 .text          0x00000000004626a0       0x45 /usr/lib/gcc/x86_64-unknown-linux-gnu/4.9.2/../../../../lib/libc.a(s_isinfl.o)
                0x00000000004626a0                isinfl
                0x00000000004626a0                __isinfl
 *fill*         0x00000000004626e5        0xb 
 .text          0x00000000004626f0       0x37 /usr/lib/gcc/x86_64-unknown-linux-gnu/4.9.2/../../../../lib/libc.a(s_isnanl.o)
                0x00000000004626f0                __isnanl
                0x00000000004626f0                isnanl
 *fill*         0x0000000000462727        0x9 
 .text          0x0000000000462730       0x50 /usr/lib/gcc/x86_64-unknown-linux-gnu/4.9.2/../../../../lib/libc.a(__longjmp.o)
                0x0000000000462730                __longjmp
 .text          0x0000000000462780       0x3b /usr/lib/gcc/x86_64-unknown-linux-gnu/4.9.2/../../../../lib/libc.a(cmp.o)
                0x0000000000462780                __mpn_cmp
 *fill*         0x00000000004627bb        0x5 
 .text          0x00000000004627c0      0x409 /usr/lib/gcc/x86_64-unknown-linux-gnu/4.9.2/../../../../lib/libc.a(divrem.o)
                0x00000000004627c0                __mpn_divrem
 *fill*         0x0000000000462bc9        0x7 
 .text          0x0000000000462bd0      0x103 /usr/lib/gcc/x86_64-unknown-linux-gnu/4.9.2/../../../../lib/libc.a(lshift.o)
                0x0000000000462bd0                __mpn_lshift
 *fill*         0x0000000000462cd3        0xd 
 .text          0x0000000000462ce0      0x103 /usr/lib/gcc/x86_64-unknown-linux-gnu/4.9.2/../../../../lib/libc.a(rshift.o)
                0x0000000000462ce0                __mpn_rshift
 *fill*         0x0000000000462de3        0xd 
 .text          0x0000000000462df0      0x389 /usr/lib/gcc/x86_64-unknown-linux-gnu/4.9.2/../../../../lib/libc.a(mul.o)
                0x0000000000462df0                __mpn_mul
 *fill*         0x0000000000463179        0x7 
 .text          0x0000000000463180      0x119 /usr/lib/gcc/x86_64-unknown-linux-gnu/4.9.2/../../../../lib/libc.a(mul_1.o)
                0x0000000000463180                __mpn_mul_1
 *fill*         0x0000000000463299        0x7 
 .text          0x00000000004632a0      0x98e /usr/lib/gcc/x86_64-unknown-linux-gnu/4.9.2/../../../../lib/libc.a(mul_n.o)
                0x00000000004632a0                __mpn_impn_mul_n_basecase
                0x00000000004633b0                __mpn_impn_mul_n
                0x0000000000463770                __mpn_impn_sqr_n_basecase
                0x0000000000463870                __mpn_impn_sqr_n
                0x0000000000463bc0                __mpn_mul_n
 *fill*         0x0000000000463c2e        0x2 
 .text          0x0000000000463c30       0xad /usr/lib/gcc/x86_64-unknown-linux-gnu/4.9.2/../../../../lib/libc.a(sub_n.o)
                0x0000000000463c30                __mpn_sub_n
 *fill*         0x0000000000463cdd        0x3 
 .text          0x0000000000463ce0       0xeb /usr/lib/gcc/x86_64-unknown-linux-gnu/4.9.2/../../../../lib/libc.a(submul_1.o)
                0x0000000000463ce0                __mpn_submul_1
 *fill*         0x0000000000463dcb        0x5 
 .text          0x0000000000463dd0       0x9c /usr/lib/gcc/x86_64-unknown-linux-gnu/4.9.2/../../../../lib/libc.a(dbl2mpn.o)
                0x0000000000463dd0                __mpn_extract_double
 *fill*         0x0000000000463e6c        0x4 
 .text          0x0000000000463e70       0xb5 /usr/lib/gcc/x86_64-unknown-linux-gnu/4.9.2/../../../../lib/libc.a(ldbl2mpn.o)
                0x0000000000463e70                __mpn_extract_long_double
 .text          0x0000000000463f25        0x0 /usr/lib/gcc/x86_64-unknown-linux-gnu/4.9.2/../../../../lib/libc.a(fpioconst.o)
 .text          0x0000000000463f25        0x0 /usr/lib/gcc/x86_64-unknown-linux-gnu/4.9.2/../../../../lib/libc.a(itowa-digits.o)
 *fill*         0x0000000000463f25        0xb 
 .text          0x0000000000463f30     0x8db7 /usr/lib/gcc/x86_64-unknown-linux-gnu/4.9.2/../../../../lib/libc.a(vfscanf.o)
                0x0000000000463f30                _IO_vfscanf_internal
                0x0000000000463f30                _IO_vfscanf
                0x000000000046cce0                vfscanf
                0x000000000046cce0                __vfscanf
                0x000000000046cce0                ___vfscanf
 .text          0x000000000046cce7        0x0 /usr/lib/gcc/x86_64-unknown-linux-gnu/4.9.2/../../../../lib/libc.a(errlist.o)
 *fill*         0x000000000046cce7        0x9 
 .text          0x000000000046ccf0       0x2c /usr/lib/gcc/x86_64-unknown-linux-gnu/4.9.2/../../../../lib/libc.a(fileno.o)
                0x000000000046ccf0                fileno_unlocked
                0x000000000046ccf0                __fileno
                0x000000000046ccf0                fileno
 *fill*         0x000000000046cd1c        0x4 
 .text          0x000000000046cd20      0x139 /usr/lib/gcc/x86_64-unknown-linux-gnu/4.9.2/../../../../lib/libc.a(fseek.o)
                0x000000000046cd20                fseek
 *fill*         0x000000000046ce59        0x7 
 .text          0x000000000046ce60      0x1be /usr/lib/gcc/x86_64-unknown-linux-gnu/4.9.2/../../../../lib/libc.a(ftello.o)
                0x000000000046ce60                ftello64
                0x000000000046ce60                __ftello
                0x000000000046ce60                ftello
 *fill*         0x000000000046d01e        0x2 
 .text          0x000000000046d020       0x4c /usr/lib/gcc/x86_64-unknown-linux-gnu/4.9.2/../../../../lib/libc.a(iofread_u.o)
                0x000000000046d020                __fread_unlocked
                0x000000000046d020                fread_unlocked
 *fill*         0x000000000046d06c        0x4 
 .text          0x000000000046d070      0x3bf /usr/lib/gcc/x86_64-unknown-linux-gnu/4.9.2/../../../../lib/libc.a(sdlerror.o)
                0x000000000046d0c0                __dlerror
                0x000000000046d2f0                _dlerror_run
                0x000000000046d410                __libc_register_dlfcn_hook
 *fill*         0x000000000046d42f        0x1 
 .text          0x000000000046d430        0x9 /usr/lib/gcc/x86_64-unknown-linux-gnu/4.9.2/../../../../lib/libc.a(sdladdr.o)
                0x000000000046d430                __dladdr
 *fill*         0x000000000046d439        0x7 
 .text          0x000000000046d440       0x22 /usr/lib/gcc/x86_64-unknown-linux-gnu/4.9.2/../../../../lib/libc.a(sdladdr1.o)
                0x000000000046d440                __dladdr1
 *fill*         0x000000000046d462        0xe 
 .text          0x000000000046d470      0x102 /usr/lib/gcc/x86_64-unknown-linux-gnu/4.9.2/../../../../lib/libc.a(sdlinfo.o)
                0x000000000046d540                __dlinfo
 *fill*         0x000000000046d572        0xe 
 .text          0x000000000046d580       0xba /usr/lib/gcc/x86_64-unknown-linux-gnu/4.9.2/../../../../lib/libc.a(sdlmopen.o)
                0x000000000046d5f0                __dlmopen
 *fill*         0x000000000046d63a        0x6 
 .text          0x000000000046d640       0x85 /usr/lib/gcc/x86_64-unknown-linux-gnu/4.9.2/../../../../lib/libc.a(strerror.o)
                0x000000000046d640                strerror
 *fill*         0x000000000046d6c5        0xb 
 .text          0x000000000046d6d0       0x7c /usr/lib/gcc/x86_64-unknown-linux-gnu/4.9.2/../../../../lib/libc.a(strsep.o)
                0x000000000046d6d0                __strsep
                0x000000000046d6d0                strsep
                0x000000000046d6d0                __strsep_g
 *fill*         0x000000000046d74c        0x4 
 .text          0x000000000046d750       0x19 /usr/lib/gcc/x86_64-unknown-linux-gnu/4.9.2/../../../../lib/libc.a(mbrlen.o)
                0x000000000046d750                mbrlen
                0x000000000046d750                __mbrlen
 *fill*         0x000000000046d769        0x7 
 .text          0x000000000046d770      0x1eb /usr/lib/gcc/x86_64-unknown-linux-gnu/4.9.2/../../../../lib/libc.a(mbrtowc.o)
                0x000000000046d770                mbrtowc
                0x000000000046d770                mbrtoc32
                0x000000000046d770                __mbrtowc
 *fill*         0x000000000046d95b        0x5 
 .text          0x000000000046d960      0x408 /usr/lib/gcc/x86_64-unknown-linux-gnu/4.9.2/../../../../lib/libc.a(offtime.o)
                0x000000000046d960                __offtime
 *fill*         0x000000000046dd68        0x8 
 .text          0x000000000046dd70       0x1f /usr/lib/gcc/x86_64-unknown-linux-gnu/4.9.2/../../../../lib/libc.a(localtime.o)
                0x000000000046dd70                __localtime_r
                0x000000000046dd70                localtime_r
                0x000000000046dd80                localtime
 *fill*         0x000000000046dd8f        0x1 
 .text          0x000000000046dd90      0x70c /usr/lib/gcc/x86_64-unknown-linux-gnu/4.9.2/../../../../lib/libc.a(mktime.o)
                0x000000000046e020                __mktime_internal
                0x000000000046e480                mktime
                0x000000000046e480                timelocal
 *fill*         0x000000000046e49c        0x4 
 .text          0x000000000046e4a0       0x3f /usr/lib/gcc/x86_64-unknown-linux-gnu/4.9.2/../../../../lib/libc.a(getpid.o)
                0x000000000046e4a0                __getpid
                0x000000000046e4a0                getpid
 *fill*         0x000000000046e4df        0x1 
 .text          0x000000000046e4e0     0x12b4 /usr/lib/gcc/x86_64-unknown-linux-gnu/4.9.2/../../../../lib/libc.a(dl-deps.o)
                0x000000000046e5a0                _dl_map_object_deps
 *fill*         0x000000000046f794        0xc 
 .text          0x000000000046f7a0      0x3c2 /usr/lib/gcc/x86_64-unknown-linux-gnu/4.9.2/../../../../lib/libc.a(dl-runtime.o)
                0x000000000046f7a0                _dl_fixup
                0x000000000046f950                _dl_profile_fixup
                0x000000000046fb60                _dl_call_pltexit
 *fill*         0x000000000046fb62        0xe 
 .text          0x000000000046fb70      0x244 /usr/lib/gcc/x86_64-unknown-linux-gnu/4.9.2/../../../../lib/libc.a(dl-init.o)
                0x000000000046fc90                _dl_init
 *fill*         0x000000000046fdb4        0xc 
 .text          0x000000000046fdc0      0x587 /usr/lib/gcc/x86_64-unknown-linux-gnu/4.9.2/../../../../lib/libc.a(dl-fini.o)
                0x000000000046fdc0                _dl_sort_fini
                0x0000000000470020                _dl_fini
 *fill*         0x0000000000470347        0x9 
 .text          0x0000000000470350      0x877 /usr/lib/gcc/x86_64-unknown-linux-gnu/4.9.2/../../../../lib/libc.a(dl-version.o)
                0x00000000004706f0                _dl_check_map_versions
                0x0000000000470b60                _dl_check_all_versions
 *fill*         0x0000000000470bc7        0x9 
 .text          0x0000000000470bd0      0x99e /usr/lib/gcc/x86_64-unknown-linux-gnu/4.9.2/../../../../lib/libc.a(dl-profile.o)
                0x0000000000470bd0                _dl_start_profile
                0x0000000000471320                _dl_mcount
 *fill*         0x000000000047156e        0x2 
 .text          0x0000000000471570       0x22 /usr/lib/gcc/x86_64-unknown-linux-gnu/4.9.2/../../../../lib/libc.a(strtof.o)
                0x0000000000471570                __strtof_internal
                0x0000000000471580                strtof
 *fill*         0x0000000000471592        0xe 
 .text          0x00000000004715a0       0x22 /usr/lib/gcc/x86_64-unknown-linux-gnu/4.9.2/../../../../lib/libc.a(strtod.o)
                0x00000000004715a0                __strtod_internal
                0x00000000004715b0                strtod
 *fill*         0x00000000004715c2        0xe 
 .text          0x00000000004715d0       0x22 /usr/lib/gcc/x86_64-unknown-linux-gnu/4.9.2/../../../../lib/libc.a(strtold.o)
                0x00000000004715d0                __strtold_internal
                0x00000000004715e0                strtold
 *fill*         0x00000000004715f2        0xe 
 .text          0x0000000000471600     0x278a /usr/lib/gcc/x86_64-unknown-linux-gnu/4.9.2/../../../../lib/libc.a(strtof_l.o)
                0x0000000000471d50                ____strtof_l_internal
                0x0000000000473d80                strtof_l
                0x0000000000473d80                __strtof_l
 *fill*         0x0000000000473d8a        0x6 
 .text          0x0000000000473d90     0x27fa /usr/lib/gcc/x86_64-unknown-linux-gnu/4.9.2/../../../../lib/libc.a(strtod_l.o)
                0x0000000000474510                ____strtod_l_internal
                0x0000000000476580                __strtod_l
                0x0000000000476580                strtod_l
 *fill*         0x000000000047658a        0x6 
 .text          0x0000000000476590     0x259a /usr/lib/gcc/x86_64-unknown-linux-gnu/4.9.2/../../../../lib/libc.a(strtold_l.o)
                0x0000000000476cd0                ____strtold_l_internal
                0x0000000000478b20                __strtold_l
                0x0000000000478b20                strtold_l
 *fill*         0x0000000000478b2a        0x6 
 .text          0x0000000000478b30       0xad /usr/lib/gcc/x86_64-unknown-linux-gnu/4.9.2/../../../../lib/libc.a(add_n.o)
                0x0000000000478b30                __mpn_add_n
 *fill*         0x0000000000478bdd        0x3 
 .text          0x0000000000478be0       0xeb /usr/lib/gcc/x86_64-unknown-linux-gnu/4.9.2/../../../../lib/libc.a(addmul_1.o)
                0x0000000000478be0                __mpn_addmul_1
 *fill*         0x0000000000478ccb        0x5 
 .text          0x0000000000478cd0       0x24 /usr/lib/gcc/x86_64-unknown-linux-gnu/4.9.2/../../../../lib/libc.a(mpn2flt.o)
                0x0000000000478cd0                __mpn_construct_float
 *fill*         0x0000000000478cf4        0xc 
 .text          0x0000000000478d00       0x3a /usr/lib/gcc/x86_64-unknown-linux-gnu/4.9.2/../../../../lib/libc.a(mpn2dbl.o)
                0x0000000000478d00                __mpn_construct_double
 *fill*         0x0000000000478d3a        0x6 
 .text          0x0000000000478d40       0x3f /usr/lib/gcc/x86_64-unknown-linux-gnu/4.9.2/../../../../lib/libc.a(mpn2ldbl.o)
                0x0000000000478d40                __mpn_construct_long_double
 .text          0x0000000000478d7f        0x0 /usr/lib/gcc/x86_64-unknown-linux-gnu/4.9.2/../../../../lib/libc.a(tens_in_limb.o)
 *fill*         0x0000000000478d7f        0x1 
 .text          0x0000000000478d80      0x20d /usr/lib/gcc/x86_64-unknown-linux-gnu/4.9.2/../../../../lib/libc.a(ioseekoff.o)
                0x0000000000478d80                _IO_seekoff_unlocked
                0x0000000000478e60                _IO_seekoff
 *fill*         0x0000000000478f8d        0x3 
 .text          0x0000000000478f90       0xc5 /usr/lib/gcc/x86_64-unknown-linux-gnu/4.9.2/../../../../lib/libc.a(sdlopen.o)
                0x0000000000479010                __dlopen
 *fill*         0x0000000000479055        0xb 
 .text          0x0000000000479060       0x30 /usr/lib/gcc/x86_64-unknown-linux-gnu/4.9.2/../../../../lib/libc.a(sdlclose.o)
                0x0000000000479070                __dlclose
 .text          0x0000000000479090       0x7c /usr/lib/gcc/x86_64-unknown-linux-gnu/4.9.2/../../../../lib/libc.a(sdlsym.o)
                0x00000000004790b0                __dlsym
 *fill*         0x000000000047910c        0x4 
 .text          0x0000000000479110       0x84 /usr/lib/gcc/x86_64-unknown-linux-gnu/4.9.2/../../../../lib/libc.a(sdlvsym.o)
                0x0000000000479130                __dlvsym
 *fill*         0x0000000000479194        0xc 
 .text          0x00000000004791a0       0x9c /usr/lib/gcc/x86_64-unknown-linux-gnu/4.9.2/../../../../lib/libc.a(strpbrk.o)
                0x00000000004791a0                strpbrk
 *fill*         0x000000000047923c        0x4 
 .text          0x0000000000479240     0x26f6 /usr/lib/gcc/x86_64-unknown-linux-gnu/4.9.2/../../../../lib/libc.a(strncase_l.o)
                0x0000000000479240                strncasecmp_l
                0x0000000000479240                __strncasecmp_l
                0x0000000000479290                __strncasecmp
                0x0000000000479290                strncasecmp
                0x00000000004792f0                __strncasecmp_sse2
                0x0000000000479300                __strncasecmp_l_sse2
                0x0000000000479300                __GI___strncasecmp_l
 *fill*         0x000000000047b936        0xa 
 .text.sse4.2   0x000000000047b940     0x1fc6 /usr/lib/gcc/x86_64-unknown-linux-gnu/4.9.2/../../../../lib/libc.a(strncase_l.o)
                0x000000000047b940                __strncasecmp_sse42
                0x000000000047b950                __strncasecmp_l_sse42
 *fill*         0x000000000047d906        0xa 
 .text.avx      0x000000000047d910     0x19a6 /usr/lib/gcc/x86_64-unknown-linux-gnu/4.9.2/../../../../lib/libc.a(strncase_l.o)
                0x000000000047d910                __strncasecmp_avx
                0x000000000047d920                __strncasecmp_l_avx
 .text          0x000000000047f2b6        0x0 /usr/lib/gcc/x86_64-unknown-linux-gnu/4.9.2/../../../../lib/libc.a(strncase_l-ssse3.o)
 *fill*         0x000000000047f2b6        0xa 
 .text.ssse3    0x000000000047f2c0     0x2556 /usr/lib/gcc/x86_64-unknown-linux-gnu/4.9.2/../../../../lib/libc.a(strncase_l-ssse3.o)
                0x000000000047f2c0                __strncasecmp_ssse3
                0x000000000047f2d0                __strncasecmp_l_ssse3
 *fill*         0x0000000000481816        0xa 
 .text          0x0000000000481820       0x44 /usr/lib/gcc/x86_64-unknown-linux-gnu/4.9.2/../../../../lib/libc.a(strncase_l-nonascii.o)
                0x0000000000481820                __strncasecmp_l_nonascii
 *fill*         0x0000000000481864        0xc 
 .text          0x0000000000481870      0x1c2 /usr/lib/gcc/x86_64-unknown-linux-gnu/4.9.2/../../../../lib/libc.a(profil.o)
                0x00000000004818c0                __profil
                0x00000000004818c0                profil
 *fill*         0x0000000000481a32        0xe 
 .text          0x0000000000481a40        0x7 /usr/lib/gcc/x86_64-unknown-linux-gnu/4.9.2/../../../../lib/libc.a(prof-freq.o)
                0x0000000000481a40                __profile_frequency
 *fill*         0x0000000000481a47        0x9 
 .text          0x0000000000481a50      0x38d /usr/lib/gcc/x86_64-unknown-linux-gnu/4.9.2/../../../../lib/libc.a(dl-sym.o)
                0x0000000000481d00                _dl_vsym
                0x0000000000481dd0                _dl_sym
 *fill*         0x0000000000481ddd        0x3 
 .text          0x0000000000481de0       0x14 /usr/lib/gcc/x86_64-unknown-linux-gnu/4.9.2/../../../../lib/libc.a(setitimer.o)
                0x0000000000481de0                setitimer
                0x0000000000481de0                __setitimer
 *fill*         0x0000000000481df4        0xc 
 .text          0x0000000000481e00     0x2c07 /usr/lib/gcc/x86_64-unknown-linux-gnu/4.9.2/libgcc_eh.a(unwind-dw2.o)
                0x00000000004842f0                _Unwind_GetGR
                0x0000000000484340                _Unwind_GetCFA
                0x0000000000484350                _Unwind_SetGR
                0x00000000004843a0                _Unwind_GetIP
                0x00000000004843b0                _Unwind_GetIPInfo
                0x00000000004843d0                _Unwind_SetIP
                0x00000000004843e0                _Unwind_GetLanguageSpecificData
                0x00000000004843f0                _Unwind_GetRegionStart
                0x0000000000484400                _Unwind_FindEnclosingFunction
                0x0000000000484430                _Unwind_GetDataRelBase
                0x0000000000484440                _Unwind_GetTextRelBase
                0x0000000000484450                __frame_state_for
                0x0000000000484570                _Unwind_RaiseException
                0x00000000004846d0                _Unwind_ForcedUnwind
                0x00000000004847b0                _Unwind_Resume
                0x0000000000484870                _Unwind_Resume_or_Rethrow
                0x0000000000484950                _Unwind_DeleteException
                0x0000000000484970                _Unwind_Backtrace
 *fill*         0x0000000000484a07        0x9 
 .text          0x0000000000484a10     0x1c81 /usr/lib/gcc/x86_64-unknown-linux-gnu/4.9.2/libgcc_eh.a(unwind-dw2-fde-dip.o)
                0x00000000004860b0                __register_frame_info_bases
                0x0000000000486140                __register_frame_info
                0x00000000004861d0                __register_frame
                0x0000000000486280                __register_frame_info_table_bases
                0x0000000000486300                __register_frame_info_table
                0x0000000000486310                __register_frame_table
                0x0000000000486330                __deregister_frame_info_bases
                0x0000000000486460                __deregister_frame_info
                0x0000000000486470                __deregister_frame
                0x00000000004864a0                _Unwind_Find_FDE
 *fill*         0x0000000000486691        0xf 
 .text          0x00000000004866a0      0x428 /usr/lib/gcc/x86_64-unknown-linux-gnu/4.9.2/libgcc_eh.a(unwind-c.o)
                0x0000000000486870                __gcc_personality_v0
 *fill*         0x0000000000486ac8        0x8 
 .text          0x0000000000486ad0       0xf4 /usr/lib/gcc/x86_64-unknown-linux-gnu/4.9.2/../../../../lib/libc.a(dl-iteratephdr.o)
                0x0000000000486ad0                dl_iterate_phdr
                0x0000000000486ad0                __dl_iterate_phdr
 .text          0x0000000000486bc4        0x0 /usr/lib/gcc/x86_64-unknown-linux-gnu/4.9.2/crtend.o
 .text          0x0000000000486bc4        0x0 /usr/lib/gcc/x86_64-unknown-linux-gnu/4.9.2/../../../../lib/crtn.o
 *(.gnu.warning)

__libc_freeres_fn
                0x0000000000486bd0      0xb97
                0x0000000000486bd0                PROVIDE (__start___libc_freeres_fn, .)
 __libc_freeres_fn
                0x0000000000486bd0       0xa9 /usr/lib/gcc/x86_64-unknown-linux-gnu/4.9.2/../../../../lib/libc.a(dcigettext.o)
 *fill*         0x0000000000486c79        0x7 
 __libc_freeres_fn
                0x0000000000486c80       0x49 /usr/lib/gcc/x86_64-unknown-linux-gnu/4.9.2/../../../../lib/libc.a(finddomain.o)
                0x0000000000486c80                _nl_finddomain_subfreeres
 *fill*         0x0000000000486cc9        0x7 
 __libc_freeres_fn
                0x0000000000486cd0       0xd7 /usr/lib/gcc/x86_64-unknown-linux-gnu/4.9.2/../../../../lib/libc.a(loadmsgcat.o)
                0x0000000000486cd0                _nl_unload_domain
 *fill*         0x0000000000486da7        0x9 
 __libc_freeres_fn
                0x0000000000486db0       0x61 /usr/lib/gcc/x86_64-unknown-linux-gnu/4.9.2/../../../../lib/libc.a(genops.o)
 *fill*         0x0000000000486e11        0xf 
 __libc_freeres_fn
                0x0000000000486e20       0xb6 /usr/lib/gcc/x86_64-unknown-linux-gnu/4.9.2/../../../../lib/libc.a(register-atfork.o)
 *fill*         0x0000000000486ed6        0xa 
 __libc_freeres_fn
                0x0000000000486ee0      0x185 /usr/lib/gcc/x86_64-unknown-linux-gnu/4.9.2/../../../../lib/libc.a(gconv_db.o)
 *fill*         0x0000000000487065        0xb 
 __libc_freeres_fn
                0x0000000000487070       0x22 /usr/lib/gcc/x86_64-unknown-linux-gnu/4.9.2/../../../../lib/libc.a(gconv_conf.o)
 *fill*         0x0000000000487092        0xe 
 __libc_freeres_fn
                0x00000000004870a0       0x32 /usr/lib/gcc/x86_64-unknown-linux-gnu/4.9.2/../../../../lib/libc.a(gconv_cache.o)
 *fill*         0x00000000004870d2        0xe 
 __libc_freeres_fn
                0x00000000004870e0       0x45 /usr/lib/gcc/x86_64-unknown-linux-gnu/4.9.2/../../../../lib/libc.a(gconv_dl.o)
 *fill*         0x0000000000487125        0xb 
 __libc_freeres_fn
                0x0000000000487130      0x2ae /usr/lib/gcc/x86_64-unknown-linux-gnu/4.9.2/../../../../lib/libc.a(setlocale.o)
                0x00000000004871e0                _nl_locale_subfreeres
 *fill*         0x00000000004873de        0x2 
 __libc_freeres_fn
                0x00000000004873e0      0x10b /usr/lib/gcc/x86_64-unknown-linux-gnu/4.9.2/../../../../lib/libc.a(loadarchive.o)
                0x00000000004873e0                _nl_archive_subfreeres
 *fill*         0x00000000004874eb        0x5 
 __libc_freeres_fn
                0x00000000004874f0       0x2a /usr/lib/gcc/x86_64-unknown-linux-gnu/4.9.2/../../../../lib/libc.a(setenv.o)
 *fill*         0x000000000048751a        0x6 
 __libc_freeres_fn
                0x0000000000487520       0x5c /usr/lib/gcc/x86_64-unknown-linux-gnu/4.9.2/../../../../lib/libc.a(reg-modifier.o)
 *fill*         0x000000000048757c        0x4 
 __libc_freeres_fn
                0x0000000000487580       0x40 /usr/lib/gcc/x86_64-unknown-linux-gnu/4.9.2/../../../../lib/libc.a(tzset.o)
 __libc_freeres_fn
                0x00000000004875c0      0x1a7 /usr/lib/gcc/x86_64-unknown-linux-gnu/4.9.2/../../../../lib/libc.a(dl-libc.o)
                0x0000000000487767                PROVIDE (__stop___libc_freeres_fn, .)

__libc_thread_freeres_fn
                0x0000000000487770       0xa8
                0x0000000000487770                PROVIDE (__start___libc_thread_freeres_fn, .)
 __libc_thread_freeres_fn
                0x0000000000487770       0xa8 /usr/lib/gcc/x86_64-unknown-linux-gnu/4.9.2/../../../../lib/libc.a(malloc.o)
                0x0000000000487818                PROVIDE (__stop___libc_thread_freeres_fn, .)

.fini           0x0000000000487818        0x9
 *(SORT(.fini))
 .fini          0x0000000000487818        0x4 /usr/lib/gcc/x86_64-unknown-linux-gnu/4.9.2/../../../../lib/crti.o
                0x0000000000487818                _fini
 .fini          0x000000000048781c        0x5 /usr/lib/gcc/x86_64-unknown-linux-gnu/4.9.2/../../../../lib/crtn.o
                0x0000000000487821                PROVIDE (__etext, .)
                0x0000000000487821                PROVIDE (_etext, .)
                0x0000000000487821                PROVIDE (etext, .)

.rodata         0x0000000000487840    0x1efc8
 *(.rodata .rodata.* .gnu.linkonce.r.*)
 .rodata.cst4   0x0000000000487840        0x4 /usr/lib/gcc/x86_64-unknown-linux-gnu/4.9.2/../../../../lib/crt1.o
                0x0000000000487840                _IO_stdin_used
 *fill*         0x0000000000487844        0x4 
 .rodata.str4.8
                0x0000000000487848       0x20 ../lib/libprinter.a(printer.o)
 .rodata.str1.1
                0x0000000000487868       0x24 /usr/lib/gcc/x86_64-unknown-linux-gnu/4.9.2/../../../../lib/libc.a(libc-start.o)
 *fill*         0x000000000048788c        0x4 
 .rodata.str1.8
                0x0000000000487890       0x7f /usr/lib/gcc/x86_64-unknown-linux-gnu/4.9.2/../../../../lib/libc.a(libc-start.o)
 *fill*         0x000000000048790f        0x1 
 .rodata.str1.16
                0x0000000000487910       0x12 /usr/lib/gcc/x86_64-unknown-linux-gnu/4.9.2/../../../../lib/libc.a(libc-start.o)
 .rodata.str1.1
                0x0000000000487922       0x14 /usr/lib/gcc/x86_64-unknown-linux-gnu/4.9.2/../../../../lib/libc.a(check_fds.o)
 *fill*         0x0000000000487936        0x2 
 .rodata.str1.8
                0x0000000000487938       0x35 /usr/lib/gcc/x86_64-unknown-linux-gnu/4.9.2/../../../../lib/libc.a(libc-tls.o)
 .rodata.str1.1
                0x000000000048796d       0x14 /usr/lib/gcc/x86_64-unknown-linux-gnu/4.9.2/../../../../lib/libc.a(assert.o)
                                          0x7 (size before relaxing)
 *fill*         0x000000000048796d        0x3 
 .rodata.str1.8
                0x0000000000487970       0x29 /usr/lib/gcc/x86_64-unknown-linux-gnu/4.9.2/../../../../lib/libc.a(assert.o)
 *fill*         0x0000000000487999        0x7 
 .rodata.str1.16
                0x00000000004879a0       0x13 /usr/lib/gcc/x86_64-unknown-linux-gnu/4.9.2/../../../../lib/libc.a(assert.o)
 *fill*         0x00000000004879b3        0x5 
 .rodata        0x00000000004879b8       0x58 /usr/lib/gcc/x86_64-unknown-linux-gnu/4.9.2/../../../../lib/libc.a(dcigettext.o)
 .rodata.str1.1
                0x0000000000487a10       0x30 /usr/lib/gcc/x86_64-unknown-linux-gnu/4.9.2/../../../../lib/libc.a(dcigettext.o)
                                         0x31 (size before relaxing)
                0x0000000000487a31                _nl_POSIX_name
                0x0000000000487a37                _nl_default_default_domain
 .rodata.str1.16
                0x0000000000487a40       0x12 /usr/lib/gcc/x86_64-unknown-linux-gnu/4.9.2/../../../../lib/libc.a(dcigettext.o)
                0x0000000000487a40                _nl_default_dirname
 .rodata.str1.1
                0x0000000000487a52       0x14 /usr/lib/gcc/x86_64-unknown-linux-gnu/4.9.2/../../../../lib/libc.a(loadmsgcat.o)
                                         0x21 (size before relaxing)
 .rodata.str1.1
                0x0000000000487a66       0x16 /usr/lib/gcc/x86_64-unknown-linux-gnu/4.9.2/../../../../lib/libc.a(localealias.o)
 *fill*         0x0000000000487a7c        0x4 
 .rodata        0x0000000000487a80      0x647 /usr/lib/gcc/x86_64-unknown-linux-gnu/4.9.2/../../../../lib/libc.a(plural.o)
 .rodata.str1.1
                0x00000000004880c7       0x12 /usr/lib/gcc/x86_64-unknown-linux-gnu/4.9.2/../../../../lib/libc.a(plural-exp.o)
 *fill*         0x00000000004880d9        0x7 
 .rodata        0x00000000004880e0       0x60 /usr/lib/gcc/x86_64-unknown-linux-gnu/4.9.2/../../../../lib/libc.a(plural-exp.o)
                0x00000000004880e0                __gettext_germanic_plural
 .rodata.str1.1
                0x0000000000488140       0x2b /usr/lib/gcc/x86_64-unknown-linux-gnu/4.9.2/../../../../lib/libc.a(cxa_atexit.o)
 .rodata.str1.1
                0x000000000048816b       0x30 /usr/lib/gcc/x86_64-unknown-linux-gnu/4.9.2/../../../../lib/libc.a(fxprintf.o)
 .rodata.str1.1
                0x000000000048819b       0x27 /usr/lib/gcc/x86_64-unknown-linux-gnu/4.9.2/../../../../lib/libc.a(wfileops.o)
 *fill*         0x00000000004881c2        0xe 
 .rodata.str1.16
                0x00000000004881d0       0x14 /usr/lib/gcc/x86_64-unknown-linux-gnu/4.9.2/../../../../lib/libc.a(wfileops.o)
 *fill*         0x00000000004881e4       0x1c 
 .rodata        0x0000000000488200      0x228 /usr/lib/gcc/x86_64-unknown-linux-gnu/4.9.2/../../../../lib/libc.a(wfileops.o)
                0x0000000000488200                _IO_wfile_jumps_maybe_mmap
                0x00000000004882c0                _IO_wfile_jumps_mmap
                0x0000000000488380                _IO_wfile_jumps
 .rodata.str1.1
                0x0000000000488428       0x68 /usr/lib/gcc/x86_64-unknown-linux-gnu/4.9.2/../../../../lib/libc.a(libc_fatal.o)
                                         0x6b (size before relaxing)
 .rodata.str1.1
                0x0000000000488490       0x32 /usr/lib/gcc/x86_64-unknown-linux-gnu/4.9.2/../../../../lib/libc.a(fileops.o)
                                         0x3c (size before relaxing)
 *fill*         0x00000000004884c2        0xe 
 .rodata.str1.16
                0x00000000004884d0       0x13 /usr/lib/gcc/x86_64-unknown-linux-gnu/4.9.2/../../../../lib/libc.a(fileops.o)
 *fill*         0x00000000004884e3       0x1d 
 .rodata        0x0000000000488500      0x228 /usr/lib/gcc/x86_64-unknown-linux-gnu/4.9.2/../../../../lib/libc.a(fileops.o)
                0x0000000000488500                _IO_file_jumps_maybe_mmap
                0x00000000004885c0                _IO_file_jumps_mmap
                0x0000000000488680                _IO_file_jumps
 .rodata.str1.1
                0x0000000000488728       0x1a /usr/lib/gcc/x86_64-unknown-linux-gnu/4.9.2/../../../../lib/libc.a(strops.o)
 *fill*         0x0000000000488742        0xe 
 .rodata.str1.16
                0x0000000000488750       0x10 /usr/lib/gcc/x86_64-unknown-linux-gnu/4.9.2/../../../../lib/libc.a(strops.o)
 *fill*         0x0000000000488760       0x20 
 .rodata        0x0000000000488780       0xa8 /usr/lib/gcc/x86_64-unknown-linux-gnu/4.9.2/../../../../lib/libc.a(strops.o)
                0x0000000000488780                _IO_str_jumps
 .rodata.str1.1
                0x0000000000488828      0x3ae /usr/lib/gcc/x86_64-unknown-linux-gnu/4.9.2/../../../../lib/libc.a(malloc.o)
                                        0x3bd (size before relaxing)
 *fill*         0x0000000000488bd6        0x2 
 .rodata.str1.8
                0x0000000000488bd8     0x1361 /usr/lib/gcc/x86_64-unknown-linux-gnu/4.9.2/../../../../lib/libc.a(malloc.o)
 *fill*         0x0000000000489f39        0x7 
 .rodata        0x0000000000489f40       0xa0 /usr/lib/gcc/x86_64-unknown-linux-gnu/4.9.2/../../../../lib/libc.a(malloc.o)
 .rodata.str1.16
                0x0000000000489fe0       0x13 /usr/lib/gcc/x86_64-unknown-linux-gnu/4.9.2/../../../../lib/libc.a(malloc.o)
 *fill*         0x0000000000489ff3        0x5 
 .rodata.sse4.2
                0x0000000000489ff8       0x40 /usr/lib/gcc/x86_64-unknown-linux-gnu/4.9.2/../../../../lib/libc.a(strcmp.o)
 .rodata        0x000000000048a038       0x40 /usr/lib/gcc/x86_64-unknown-linux-gnu/4.9.2/../../../../lib/libc.a(strcmp.o)
 .rodata        0x000000000048a078       0x40 /usr/lib/gcc/x86_64-unknown-linux-gnu/4.9.2/../../../../lib/libc.a(strncmp.o)
 *fill*         0x000000000048a0b8        0x8 
 .rodata.cst16  0x000000000048a0c0       0x40 /usr/lib/gcc/x86_64-unknown-linux-gnu/4.9.2/../../../../lib/libc.a(strcasecmp_l.o)
                                         0x90 (size before relaxing)
 .rodata.sse4.2
                0x000000000048a100       0x40 /usr/lib/gcc/x86_64-unknown-linux-gnu/4.9.2/../../../../lib/libc.a(strcasecmp_l.o)
 .rodata.avx    0x000000000048a140       0x40 /usr/lib/gcc/x86_64-unknown-linux-gnu/4.9.2/../../../../lib/libc.a(strcasecmp_l.o)
 .rodata        0x000000000048a180       0x40 /usr/lib/gcc/x86_64-unknown-linux-gnu/4.9.2/../../../../lib/libc.a(strcasecmp_l.o)
 .rodata        0x000000000048a1c0       0x80 /usr/lib/gcc/x86_64-unknown-linux-gnu/4.9.2/../../../../lib/libc.a(wordcopy.o)
 .rodata        0x000000000048a240       0x40 /usr/lib/gcc/x86_64-unknown-linux-gnu/4.9.2/../../../../lib/libc.a(strcmp-ssse3.o)
 .rodata.sse4.1
                0x000000000048a280      0x140 /usr/lib/gcc/x86_64-unknown-linux-gnu/4.9.2/../../../../lib/libc.a(memcmp-sse4.o)
 .rodata.ssse3  0x000000000048a3c0      0x1c0 /usr/lib/gcc/x86_64-unknown-linux-gnu/4.9.2/../../../../lib/libc.a(memmove-ssse3.o)
 .rodata.ssse3  0x000000000048a580      0x500 /usr/lib/gcc/x86_64-unknown-linux-gnu/4.9.2/../../../../lib/libc.a(memmove-ssse3-back.o)
 .rodata.cst16  0x000000000048aa80       0x30 /usr/lib/gcc/x86_64-unknown-linux-gnu/4.9.2/../../../../lib/libc.a(strcasecmp_l-ssse3.o)
 .rodata        0x000000000048aa80       0x40 /usr/lib/gcc/x86_64-unknown-linux-gnu/4.9.2/../../../../lib/libc.a(strcasecmp_l-ssse3.o)
 .rodata        0x000000000048aac0       0x80 /usr/lib/gcc/x86_64-unknown-linux-gnu/4.9.2/../../../../lib/libc.a(strcpy-sse2-unaligned.o)
 .rodata        0x000000000048ab40       0x80 /usr/lib/gcc/x86_64-unknown-linux-gnu/4.9.2/../../../../lib/libc.a(stpcpy-sse2-unaligned.o)
 .rodata.str1.8
                0x000000000048abc0       0x2b /usr/lib/gcc/x86_64-unknown-linux-gnu/4.9.2/../../../../lib/libc.a(cacheinfo.o)
 .rodata.str1.1
                0x000000000048abeb       0x42 /usr/lib/gcc/x86_64-unknown-linux-gnu/4.9.2/../../../../lib/libc.a(cacheinfo.o)
 *fill*         0x000000000048ac2d       0x13 
 .rodata        0x000000000048ac40      0x3a0 /usr/lib/gcc/x86_64-unknown-linux-gnu/4.9.2/../../../../lib/libc.a(cacheinfo.o)
 .rodata.str1.16
                0x000000000048afe0       0x11 /usr/lib/gcc/x86_64-unknown-linux-gnu/4.9.2/../../../../lib/libc.a(cacheinfo.o)
 .rodata.str1.1
                0x000000000048aff1       0x19 /usr/lib/gcc/x86_64-unknown-linux-gnu/4.9.2/../../../../lib/libc.a(wcsmbsload.o)
                                         0x2c (size before relaxing)
 *fill*         0x000000000048b00a       0x36 
 .rodata        0x000000000048b040      0x128 /usr/lib/gcc/x86_64-unknown-linux-gnu/4.9.2/../../../../lib/libc.a(wcsmbsload.o)
                0x000000000048b040                __wcsmbs_gconv_fcts_c
 .rodata.str1.1
                0x000000000048b168       0x6e /usr/lib/gcc/x86_64-unknown-linux-gnu/4.9.2/../../../../lib/libc.a(sysconf.o)
 *fill*         0x000000000048b1d6        0x2 
 .rodata        0x000000000048b1d8      0x7b8 /usr/lib/gcc/x86_64-unknown-linux-gnu/4.9.2/../../../../lib/libc.a(sysconf.o)
 .rodata.str1.1
                0x000000000048b990        0xc /usr/lib/gcc/x86_64-unknown-linux-gnu/4.9.2/../../../../lib/libc.a(getcwd.o)
                                         0x10 (size before relaxing)
 *fill*         0x000000000048b99c        0x4 
 .rodata.str1.8
                0x000000000048b9a0       0x5e /usr/lib/gcc/x86_64-unknown-linux-gnu/4.9.2/../../../../lib/libc.a(getcwd.o)
 *fill*         0x000000000048b9fe        0x2 
 .rodata.str1.8
                0x000000000048ba00       0x29 /usr/lib/gcc/x86_64-unknown-linux-gnu/4.9.2/../../../../lib/libc.a(getpagesize.o)
 .rodata.str1.1
                0x000000000048ba29       0x20 /usr/lib/gcc/x86_64-unknown-linux-gnu/4.9.2/../../../../lib/libc.a(getpagesize.o)
 *fill*         0x000000000048ba49        0x7 
 .rodata.str1.8
                0x000000000048ba50       0x4f /usr/lib/gcc/x86_64-unknown-linux-gnu/4.9.2/../../../../lib/libc.a(getsysstats.o)
 .rodata.str1.1
                0x000000000048ba9f       0x7f /usr/lib/gcc/x86_64-unknown-linux-gnu/4.9.2/../../../../lib/libc.a(getsysstats.o)
                                         0x87 (size before relaxing)
 .rodata.str1.1
                0x000000000048bb1e        0x1 /usr/lib/gcc/x86_64-unknown-linux-gnu/4.9.2/../../../../lib/libc.a(init-misc.o)
 .rodata.str1.1
                0x000000000048bb1e        0xe /usr/lib/gcc/x86_64-unknown-linux-gnu/4.9.2/../../../../lib/libc.a(backtracesymsfd.o)
                                         0x13 (size before relaxing)
 .rodata.str1.1
                0x000000000048bb2c       0x19 /usr/lib/gcc/x86_64-unknown-linux-gnu/4.9.2/../../../../lib/libc.a(chk_fail.o)
 .rodata.str1.1
                0x000000000048bb45       0x1b /usr/lib/gcc/x86_64-unknown-linux-gnu/4.9.2/../../../../lib/libc.a(fortify_fail.o)
                                         0x25 (size before relaxing)
 *fill*         0x000000000048bb60       0x20 
 .rodata        0x000000000048bb80      0x245 /usr/lib/gcc/x86_64-unknown-linux-gnu/4.9.2/../../../../lib/libc.a(dl-support.o)
 .rodata.str1.1
                0x000000000048bdc5       0xe5 /usr/lib/gcc/x86_64-unknown-linux-gnu/4.9.2/../../../../lib/libc.a(dl-support.o)
                                         0xe6 (size before relaxing)
 *fill*         0x000000000048beaa        0x6 
 .rodata.str1.8
                0x000000000048beb0       0x6c /usr/lib/gcc/x86_64-unknown-linux-gnu/4.9.2/../../../../lib/libc.a(dl-support.o)
 *fill*         0x000000000048bf1c        0x4 
 .rodata.str1.16
                0x000000000048bf20       0x15 /usr/lib/gcc/x86_64-unknown-linux-gnu/4.9.2/../../../../lib/libc.a(dl-support.o)
 .rodata.str1.1
                0x000000000048bf35       0x1b /usr/lib/gcc/x86_64-unknown-linux-gnu/4.9.2/../../../../lib/libc.a(dl-sysdep.o)
 .rodata        0x000000000048bf50      0x220 /usr/lib/gcc/x86_64-unknown-linux-gnu/4.9.2/../../../../lib/libc.a(init-arch.o)
 .rodata.str1.1
                0x000000000048c170        0x7 /usr/lib/gcc/x86_64-unknown-linux-gnu/4.9.2/../../../../lib/libc.a(gconv_open.o)
                                         0x19 (size before relaxing)
 .rodata.str1.1
                0x000000000048c177       0x2c /usr/lib/gcc/x86_64-unknown-linux-gnu/4.9.2/../../../../lib/libc.a(gconv.o)
 *fill*         0x000000000048c1a3        0x5 
 .rodata.str1.8
                0x000000000048c1a8       0x30 /usr/lib/gcc/x86_64-unknown-linux-gnu/4.9.2/../../../../lib/libc.a(gconv.o)
 .rodata.str1.1
                0x000000000048c1d8        0xb /usr/lib/gcc/x86_64-unknown-linux-gnu/4.9.2/../../../../lib/libc.a(gconv_db.o)
 *fill*         0x000000000048c1e3        0x5 
 .rodata.str1.8
                0x000000000048c1e8       0x4f /usr/lib/gcc/x86_64-unknown-linux-gnu/4.9.2/../../../../lib/libc.a(gconv_db.o)
 *fill*         0x000000000048c237        0x9 
 .rodata.str1.16
                0x000000000048c240       0x25 /usr/lib/gcc/x86_64-unknown-linux-gnu/4.9.2/../../../../lib/libc.a(gconv_db.o)
 .rodata.str1.1
                0x000000000048c265      0x171 /usr/lib/gcc/x86_64-unknown-linux-gnu/4.9.2/../../../../lib/libc.a(gconv_conf.o)
                                        0x17e (size before relaxing)
 *fill*         0x000000000048c3d6        0xa 
 .rodata.str1.16
                0x000000000048c3e0       0x11 /usr/lib/gcc/x86_64-unknown-linux-gnu/4.9.2/../../../../lib/libc.a(gconv_conf.o)
 *fill*         0x000000000048c3f1        0xf 
 .rodata        0x000000000048c400      0x3e7 /usr/lib/gcc/x86_64-unknown-linux-gnu/4.9.2/../../../../lib/libc.a(gconv_conf.o)
 *fill*         0x000000000048c7e7        0x9 
 .rodata.cst16  0x000000000048c7f0       0x10 /usr/lib/gcc/x86_64-unknown-linux-gnu/4.9.2/../../../../lib/libc.a(gconv_conf.o)
 .rodata.str1.1
                0x000000000048c800       0x10 /usr/lib/gcc/x86_64-unknown-linux-gnu/4.9.2/../../../../lib/libc.a(gconv_builtin.o)
                                         0xe4 (size before relaxing)
 .rodata.str1.8
                0x000000000048c810       0x25 /usr/lib/gcc/x86_64-unknown-linux-gnu/4.9.2/../../../../lib/libc.a(gconv_builtin.o)
 *fill*         0x000000000048c835        0xb 
 .rodata.str1.16
                0x000000000048c840       0x1a /usr/lib/gcc/x86_64-unknown-linux-gnu/4.9.2/../../../../lib/libc.a(gconv_builtin.o)
 *fill*         0x000000000048c85a       0x26 
 .rodata        0x000000000048c880      0x180 /usr/lib/gcc/x86_64-unknown-linux-gnu/4.9.2/../../../../lib/libc.a(gconv_builtin.o)
 .rodata.str1.1
                0x000000000048ca00       0xcc /usr/lib/gcc/x86_64-unknown-linux-gnu/4.9.2/../../../../lib/libc.a(gconv_simple.o)
 *fill*         0x000000000048cacc        0x4 
 .rodata.str1.8
                0x000000000048cad0       0xcf /usr/lib/gcc/x86_64-unknown-linux-gnu/4.9.2/../../../../lib/libc.a(gconv_simple.o)
 *fill*         0x000000000048cb9f        0x1 
 .rodata.str1.32
                0x000000000048cba0      0x2c0 /usr/lib/gcc/x86_64-unknown-linux-gnu/4.9.2/../../../../lib/libc.a(gconv_simple.o)
 .rodata.str1.16
                0x000000000048ce60       0xb5 /usr/lib/gcc/x86_64-unknown-linux-gnu/4.9.2/../../../../lib/libc.a(gconv_simple.o)
 .rodata        0x000000000048cf15        0x5 /usr/lib/gcc/x86_64-unknown-linux-gnu/4.9.2/../../../../lib/libc.a(gconv_simple.o)
 .rodata.str1.1
                0x000000000048cf1a        0xb /usr/lib/gcc/x86_64-unknown-linux-gnu/4.9.2/../../../../lib/libc.a(gconv_cache.o)
                                         0x14 (size before relaxing)
 *fill*         0x000000000048cf25        0x3 
 .rodata.str1.8
                0x000000000048cf28       0x23 /usr/lib/gcc/x86_64-unknown-linux-gnu/4.9.2/../../../../lib/libc.a(gconv_cache.o)
 .rodata.str1.1
                0x000000000048cf4b       0x4e /usr/lib/gcc/x86_64-unknown-linux-gnu/4.9.2/../../../../lib/libc.a(gconv_dl.o)
                                         0x54 (size before relaxing)
 *fill*         0x000000000048cf99        0x7 
 .rodata.str1.16
                0x000000000048cfa0       0x33 /usr/lib/gcc/x86_64-unknown-linux-gnu/4.9.2/../../../../lib/libc.a(gconv_dl.o)
 .rodata.str1.1
                0x000000000048cfd3        0x8 /usr/lib/gcc/x86_64-unknown-linux-gnu/4.9.2/../../../../lib/libc.a(setlocale.o)
 *fill*         0x000000000048cfdb       0x25 
 .rodata        0x000000000048d000      0x1e8 /usr/lib/gcc/x86_64-unknown-linux-gnu/4.9.2/../../../../lib/libc.a(setlocale.o)
                0x000000000048d068                _nl_category_name_sizes
                0x000000000048d075                _nl_category_name_idxs
                0x000000000048d0c0                _nl_category_names
 .rodata.str1.1
                0x000000000048d1e8       0x37 /usr/lib/gcc/x86_64-unknown-linux-gnu/4.9.2/../../../../lib/libc.a(findlocale.o)
                                         0x40 (size before relaxing)
 *fill*         0x000000000048d21f       0x21 
 .rodata        0x000000000048d240       0xe8 /usr/lib/gcc/x86_64-unknown-linux-gnu/4.9.2/../../../../lib/libc.a(findlocale.o)
                0x000000000048d2c0                _nl_C
 *fill*         0x000000000048d328        0x8 
 .rodata.str1.16
                0x000000000048d330       0x20 /usr/lib/gcc/x86_64-unknown-linux-gnu/4.9.2/../../../../lib/libc.a(findlocale.o)
                0x000000000048d340                _nl_default_locale_path
 .rodata.str1.1
                0x000000000048d350       0x1b /usr/lib/gcc/x86_64-unknown-linux-gnu/4.9.2/../../../../lib/libc.a(loadlocale.o)
 *fill*         0x000000000048d36b        0x5 
 .rodata.str1.8
                0x000000000048d370      0x3c1 /usr/lib/gcc/x86_64-unknown-linux-gnu/4.9.2/../../../../lib/libc.a(loadlocale.o)
 *fill*         0x000000000048d731        0xf 
 .rodata        0x000000000048d740      0x728 /usr/lib/gcc/x86_64-unknown-linux-gnu/4.9.2/../../../../lib/libc.a(loadlocale.o)
 *fill*         0x000000000048de68        0x8 
 .rodata.str1.16
                0x000000000048de70       0x17 /usr/lib/gcc/x86_64-unknown-linux-gnu/4.9.2/../../../../lib/libc.a(loadlocale.o)
 .rodata.str1.1
                0x000000000048de87       0x25 /usr/lib/gcc/x86_64-unknown-linux-gnu/4.9.2/../../../../lib/libc.a(loadarchive.o)
 *fill*         0x000000000048deac        0x4 
 .rodata.str1.8
                0x000000000048deb0       0x24 /usr/lib/gcc/x86_64-unknown-linux-gnu/4.9.2/../../../../lib/libc.a(loadarchive.o)
 *fill*         0x000000000048ded4        0xc 
 .rodata.str1.16
                0x000000000048dee0       0x5f /usr/lib/gcc/x86_64-unknown-linux-gnu/4.9.2/../../../../lib/libc.a(loadarchive.o)
 *fill*         0x000000000048df3f        0x1 
 .rodata        0x000000000048df40     0xbeac /usr/lib/gcc/x86_64-unknown-linux-gnu/4.9.2/../../../../lib/libc.a(C-ctype.o)
                0x000000000048dfc0                _nl_C_LC_CTYPE
                0x000000000048e2c0                _nl_C_LC_CTYPE_width
                0x000000000048e340                _nl_C_LC_CTYPE_map_tolower
                0x000000000048e400                _nl_C_LC_CTYPE_map_toupper
                0x000000000048e4c0                _nl_C_LC_CTYPE_class_alnum
                0x000000000048e540                _nl_C_LC_CTYPE_class_punct
                0x000000000048e5c0                _nl_C_LC_CTYPE_class_cntrl
                0x000000000048e640                _nl_C_LC_CTYPE_class_blank
                0x000000000048e6c0                _nl_C_LC_CTYPE_class_graph
                0x000000000048e740                _nl_C_LC_CTYPE_class_print
                0x000000000048e7c0                _nl_C_LC_CTYPE_class_space
                0x000000000048e840                _nl_C_LC_CTYPE_class_xdigit
                0x000000000048e8c0                _nl_C_LC_CTYPE_class_digit
                0x000000000048e940                _nl_C_LC_CTYPE_class_alpha
                0x000000000048e9c0                _nl_C_LC_CTYPE_class_lower
                0x000000000048ea40                _nl_C_LC_CTYPE_class_upper
                0x000000000048eac0                _nl_C_LC_CTYPE_tolower
                0x000000000048f0c0                _nl_C_LC_CTYPE_toupper
                0x000000000048f6c0                _nl_C_LC_CTYPE_class32
                0x000000000048fac0                _nl_C_LC_CTYPE_class
 .rodata.str1.1
                0x0000000000499dec        0x6 /usr/lib/gcc/x86_64-unknown-linux-gnu/4.9.2/../../../../lib/libc.a(C-ctype.o)
                                         0x14 (size before relaxing)
 *fill*         0x0000000000499df2        0x2 
 .rodata.str4.4
                0x0000000000499df4       0x50 /usr/lib/gcc/x86_64-unknown-linux-gnu/4.9.2/../../../../lib/libc.a(C-ctype.o)
                                         0x58 (size before relaxing)
 .rodata.str1.1
                0x0000000000499e44        0x5 /usr/lib/gcc/x86_64-unknown-linux-gnu/4.9.2/../../../../lib/libc.a(SYS_libc.o)
                0x0000000000499e44                _libc_intl_domainname
 .rodata.str1.1
                0x0000000000499e49        0xf /usr/lib/gcc/x86_64-unknown-linux-gnu/4.9.2/../../../../lib/libc.a(C_name.o)
                                         0x17 (size before relaxing)
                0x0000000000499e49                _nl_C_codeset
 *fill*         0x0000000000499e58       0x28 
 .rodata        0x0000000000499e80       0xe8 /usr/lib/gcc/x86_64-unknown-linux-gnu/4.9.2/../../../../lib/libc.a(xlocale.o)
                0x0000000000499e80                _nl_C_locobj
 *fill*         0x0000000000499f68       0x18 
 .rodata        0x0000000000499f80      0x158 /usr/lib/gcc/x86_64-unknown-linux-gnu/4.9.2/../../../../lib/libc.a(strtol_l.o)
                0x0000000000499f80                __strtol_ul_rem_tab
                0x0000000000499fc0                __strtol_ul_max_tab
 *fill*         0x000000000049a0d8        0x8 
 .rodata        0x000000000049a0e0       0x24 /usr/lib/gcc/x86_64-unknown-linux-gnu/4.9.2/../../../../lib/libc.a(itoa-digits.o)
                0x000000000049a0e0                _itoa_lower_digits
 *fill*         0x000000000049a104       0x1c 
 .rodata        0x000000000049a120       0x24 /usr/lib/gcc/x86_64-unknown-linux-gnu/4.9.2/../../../../lib/libc.a(itoa-udigits.o)
                0x000000000049a120                _itoa_upper_digits
 .rodata.str1.1
                0x000000000049a144       0x4e /usr/lib/gcc/x86_64-unknown-linux-gnu/4.9.2/../../../../lib/libc.a(vfprintf.o)
                                         0x4f (size before relaxing)
 *fill*         0x000000000049a192        0x6 
 .rodata.str1.8
                0x000000000049a198       0xaa /usr/lib/gcc/x86_64-unknown-linux-gnu/4.9.2/../../../../lib/libc.a(vfprintf.o)
 *fill*         0x000000000049a242       0x3e 
 .rodata        0x000000000049a280      0x828 /usr/lib/gcc/x86_64-unknown-linux-gnu/4.9.2/../../../../lib/libc.a(vfprintf.o)
 *fill*         0x000000000049aaa8        0x8 
 .rodata.str1.16
                0x000000000049aab0       0x16 /usr/lib/gcc/x86_64-unknown-linux-gnu/4.9.2/../../../../lib/libc.a(vfprintf.o)
 .rodata.str1.1
                0x000000000049aac6       0x10 /usr/lib/gcc/x86_64-unknown-linux-gnu/4.9.2/../../../../lib/libc.a(printf_fp.o)
                                         0x1c (size before relaxing)
 *fill*         0x000000000049aad6        0x2 
 .rodata.str4.4
                0x000000000049aad8       0x5c /usr/lib/gcc/x86_64-unknown-linux-gnu/4.9.2/../../../../lib/libc.a(printf_fp.o)
 .rodata.str4.4
                0x000000000049ab34       0x40 /usr/lib/gcc/x86_64-unknown-linux-gnu/4.9.2/../../../../lib/libc.a(printf_fphex.o)
 .rodata.str1.1
                0x000000000049ab34        0xf /usr/lib/gcc/x86_64-unknown-linux-gnu/4.9.2/../../../../lib/libc.a(printf_fphex.o)
                                         0x1f (size before relaxing)
 *fill*         0x000000000049ab43        0x5 
 .rodata.str1.8
                0x000000000049ab48       0x47 /usr/lib/gcc/x86_64-unknown-linux-gnu/4.9.2/../../../../lib/libc.a(printf_fphex.o)
 .rodata.str1.1
                0x000000000049ab8f        0xe /usr/lib/gcc/x86_64-unknown-linux-gnu/4.9.2/../../../../lib/libc.a(vfwprintf.o)
                                         0x34 (size before relaxing)
 *fill*         0x000000000049ab9d        0x3 
 .rodata.str4.4
                0x000000000049aba0       0x18 /usr/lib/gcc/x86_64-unknown-linux-gnu/4.9.2/../../../../lib/libc.a(vfwprintf.o)
                                         0x1c (size before relaxing)
 .rodata.str1.8
                0x000000000049abb8       0xaa /usr/lib/gcc/x86_64-unknown-linux-gnu/4.9.2/../../../../lib/libc.a(vfwprintf.o)
 *fill*         0x000000000049abb8        0x8 
 .rodata        0x000000000049abc0      0x828 /usr/lib/gcc/x86_64-unknown-linux-gnu/4.9.2/../../../../lib/libc.a(vfwprintf.o)
 *fill*         0x000000000049b3e8        0x8 
 .rodata.str4.16
                0x000000000049b3f0       0x20 /usr/lib/gcc/x86_64-unknown-linux-gnu/4.9.2/../../../../lib/libc.a(vfwprintf.o)
                                         0x1c (size before relaxing)
 .rodata        0x000000000049b410      0x488 /usr/lib/gcc/x86_64-unknown-linux-gnu/4.9.2/../../../../lib/libc.a(printf-parsemb.o)
 .rodata        0x000000000049b898      0x488 /usr/lib/gcc/x86_64-unknown-linux-gnu/4.9.2/../../../../lib/libc.a(printf-parsewc.o)
 .rodata.cst16  0x000000000049bd20       0x10 /usr/lib/gcc/x86_64-unknown-linux-gnu/4.9.2/../../../../lib/libc.a(iopadn.o)
                                         0x20 (size before relaxing)
 *fill*         0x000000000049bd30       0x10 
 .rodata        0x000000000049bd40       0x80 /usr/lib/gcc/x86_64-unknown-linux-gnu/4.9.2/../../../../lib/libc.a(iowpadn.o)
 .rodata.str1.1
                0x000000000049bdc0       0x14 /usr/lib/gcc/x86_64-unknown-linux-gnu/4.9.2/../../../../lib/libc.a(iofwide.o)
                                         0x40 (size before relaxing)
 *fill*         0x000000000049bdd4       0x2c 
 .rodata        0x000000000049be00       0xc0 /usr/lib/gcc/x86_64-unknown-linux-gnu/4.9.2/../../../../lib/libc.a(iofwide.o)
                0x000000000049be00                __libio_codecvt
 .rodata.str1.1
                0x000000000049bec0        0xf /usr/lib/gcc/x86_64-unknown-linux-gnu/4.9.2/../../../../lib/libc.a(_strerror.o)
 .rodata.str1.1
                0x000000000049becf       0x14 /usr/lib/gcc/x86_64-unknown-linux-gnu/4.9.2/../../../../lib/libc.a(wcrtomb.o)
 *fill*         0x000000000049bee3        0x5 
 .rodata.str1.8
                0x000000000049bee8       0xa0 /usr/lib/gcc/x86_64-unknown-linux-gnu/4.9.2/../../../../lib/libc.a(wcrtomb.o)
 .rodata.str1.1
                0x000000000049bf88       0x32 /usr/lib/gcc/x86_64-unknown-linux-gnu/4.9.2/../../../../lib/libc.a(wcsrtombs.o)
 *fill*         0x000000000049bfba        0x6 
 .rodata.str1.8
                0x000000000049bfc0       0x48 /usr/lib/gcc/x86_64-unknown-linux-gnu/4.9.2/../../../../lib/libc.a(wcsrtombs.o)
                                         0xe8 (size before relaxing)
 .rodata.str1.1
                0x000000000049c008       0x27 /usr/lib/gcc/x86_64-unknown-linux-gnu/4.9.2/../../../../lib/libc.a(mbsrtowcs_l.o)
 *fill*         0x000000000049c02f        0x1 
 .rodata.str1.8
                0x000000000049c030       0x29 /usr/lib/gcc/x86_64-unknown-linux-gnu/4.9.2/../../../../lib/libc.a(mbsrtowcs_l.o)
                                         0xf0 (size before relaxing)
 .rodata.str1.1
                0x000000000049c059       0x51 /usr/lib/gcc/x86_64-unknown-linux-gnu/4.9.2/../../../../lib/libc.a(tzset.o)
                                         0x52 (size before relaxing)
                0x000000000049c0a4                _nl_C_name
 .rodata.str1.1
                0x000000000049c0aa       0x55 /usr/lib/gcc/x86_64-unknown-linux-gnu/4.9.2/../../../../lib/libc.a(tzfile.o)
                                         0x68 (size before relaxing)
 *fill*         0x000000000049c0ff        0x1 
 .rodata.str1.8
                0x000000000049c100      0xae0 /usr/lib/gcc/x86_64-unknown-linux-gnu/4.9.2/../../../../lib/libc.a(tzfile.o)
 .rodata.str1.16
                0x000000000049cbe0       0x34 /usr/lib/gcc/x86_64-unknown-linux-gnu/4.9.2/../../../../lib/libc.a(tzfile.o)
 .rodata.str1.1
                0x000000000049cc14       0x14 /usr/lib/gcc/x86_64-unknown-linux-gnu/4.9.2/../../../../lib/libc.a(readonly-area.o)
 .rodata.str1.1
                0x000000000049cc14      0x22f /usr/lib/gcc/x86_64-unknown-linux-gnu/4.9.2/../../../../lib/libc.a(dl-load.o)
                                        0x276 (size before relaxing)
 *fill*         0x000000000049ce43        0x5 
 .rodata.str1.8
                0x000000000049ce48      0x4ef /usr/lib/gcc/x86_64-unknown-linux-gnu/4.9.2/../../../../lib/libc.a(dl-load.o)
                                        0x597 (size before relaxing)
 *fill*         0x000000000049d337        0x9 
 .rodata.str1.16
                0x000000000049d340       0x5c /usr/lib/gcc/x86_64-unknown-linux-gnu/4.9.2/../../../../lib/libc.a(dl-load.o)
                                         0x7c (size before relaxing)
 *fill*         0x000000000049d39c        0x4 
 .rodata.cst16  0x000000000049d3a0       0x20 /usr/lib/gcc/x86_64-unknown-linux-gnu/4.9.2/../../../../lib/libc.a(dl-load.o)
 .rodata        0x000000000049d3c0        0x9 /usr/lib/gcc/x86_64-unknown-linux-gnu/4.9.2/../../../../lib/libc.a(dl-load.o)
 *fill*         0x000000000049d3c9        0x3 
 .rodata.cst4   0x000000000049d3cc        0x4 /usr/lib/gcc/x86_64-unknown-linux-gnu/4.9.2/../../../../lib/libc.a(dl-load.o)
 .rodata.str1.1
                0x000000000049d3d0       0xe7 /usr/lib/gcc/x86_64-unknown-linux-gnu/4.9.2/../../../../lib/libc.a(dl-lookup.o)
                                        0x108 (size before relaxing)
 *fill*         0x000000000049d4b7        0x1 
 .rodata.str1.8
                0x000000000049d4b8      0x17d /usr/lib/gcc/x86_64-unknown-linux-gnu/4.9.2/../../../../lib/libc.a(dl-lookup.o)
 *fill*         0x000000000049d635        0xb 
 .rodata.str1.16
                0x000000000049d640       0x14 /usr/lib/gcc/x86_64-unknown-linux-gnu/4.9.2/../../../../lib/libc.a(dl-lookup.o)
 *fill*         0x000000000049d654        0x4 
 .rodata.str1.8
                0x000000000049d658      0x224 /usr/lib/gcc/x86_64-unknown-linux-gnu/4.9.2/../../../../lib/libc.a(dl-reloc.o)
 .rodata.str1.1
                0x000000000049d87c       0x48 /usr/lib/gcc/x86_64-unknown-linux-gnu/4.9.2/../../../../lib/libc.a(dl-reloc.o)
                                         0x58 (size before relaxing)
 *fill*         0x000000000049d8c4       0x3c 
 .rodata        0x000000000049d900      0x2cc /usr/lib/gcc/x86_64-unknown-linux-gnu/4.9.2/../../../../lib/libc.a(dl-reloc.o)
 *fill*         0x000000000049dbcc       0x14 
 .rodata.str1.32
                0x000000000049dbe0       0x40 /usr/lib/gcc/x86_64-unknown-linux-gnu/4.9.2/../../../../lib/libc.a(dl-reloc.o)
                                         0x3b (size before relaxing)
 .rodata.str1.16
                0x000000000049dc20       0x3d /usr/lib/gcc/x86_64-unknown-linux-gnu/4.9.2/../../../../lib/libc.a(dl-reloc.o)
 .rodata.str1.1
                0x000000000049dc5d       0x3b /usr/lib/gcc/x86_64-unknown-linux-gnu/4.9.2/../../../../lib/libc.a(dl-hwcaps.o)
                                         0x3c (size before relaxing)
 *fill*         0x000000000049dc98        0x8 
 .rodata.str1.16
                0x000000000049dca0       0x15 /usr/lib/gcc/x86_64-unknown-linux-gnu/4.9.2/../../../../lib/libc.a(dl-hwcaps.o)
 .rodata.str1.1
                0x000000000049dcb5       0x60 /usr/lib/gcc/x86_64-unknown-linux-gnu/4.9.2/../../../../lib/libc.a(dl-error.o)
                                         0x7b (size before relaxing)
 *fill*         0x000000000049dd15        0x3 
 .rodata.str1.8
                0x000000000049dd18       0x25 /usr/lib/gcc/x86_64-unknown-linux-gnu/4.9.2/../../../../lib/libc.a(dl-error.o)
 .rodata.str1.1
                0x000000000049dd3d       0x31 /usr/lib/gcc/x86_64-unknown-linux-gnu/4.9.2/../../../../lib/libc.a(dl-misc.o)
 *fill*         0x000000000049dd6e        0x2 
 .rodata.str1.8
                0x000000000049dd70       0x20 /usr/lib/gcc/x86_64-unknown-linux-gnu/4.9.2/../../../../lib/libc.a(dl-misc.o)
 *fill*         0x000000000049dd90       0x30 
 .rodata        0x000000000049ddc0       0x78 /usr/lib/gcc/x86_64-unknown-linux-gnu/4.9.2/../../../../lib/libc.a(dl-misc.o)
 *fill*         0x000000000049de38        0x8 
 .rodata.str1.16
                0x000000000049de40       0x13 /usr/lib/gcc/x86_64-unknown-linux-gnu/4.9.2/../../../../lib/libc.a(dl-misc.o)
 *fill*         0x000000000049de53        0x5 
 .rodata.str1.8
                0x000000000049de58      0x14a /usr/lib/gcc/x86_64-unknown-linux-gnu/4.9.2/../../../../lib/libc.a(dl-tls.o)
 .rodata.str1.1
                0x000000000049dfa2       0x46 /usr/lib/gcc/x86_64-unknown-linux-gnu/4.9.2/../../../../lib/libc.a(dl-tls.o)
 *fill*         0x000000000049dfe8        0x8 
 .rodata.str1.16
                0x000000000049dff0       0x53 /usr/lib/gcc/x86_64-unknown-linux-gnu/4.9.2/../../../../lib/libc.a(dl-tls.o)
 .rodata.str1.1
                0x000000000049e043       0x30 /usr/lib/gcc/x86_64-unknown-linux-gnu/4.9.2/../../../../lib/libc.a(dl-origin.o)
 *fill*         0x000000000049e073        0x5 
 .rodata.str1.8
                0x000000000049e078       0x27 /usr/lib/gcc/x86_64-unknown-linux-gnu/4.9.2/../../../../lib/libc.a(dl-origin.o)
 .rodata.str1.1
                0x000000000049e09f       0xcf /usr/lib/gcc/x86_64-unknown-linux-gnu/4.9.2/../../../../lib/libc.a(dl-open.o)
                                        0x102 (size before relaxing)
 *fill*         0x000000000049e16e        0x2 
 .rodata.str1.8
                0x000000000049e170      0x18c /usr/lib/gcc/x86_64-unknown-linux-gnu/4.9.2/../../../../lib/libc.a(dl-open.o)
 *fill*         0x000000000049e2fc        0x4 
 .rodata.str1.16
                0x000000000049e300       0x18 /usr/lib/gcc/x86_64-unknown-linux-gnu/4.9.2/../../../../lib/libc.a(dl-open.o)
 .rodata.str1.1
                0x000000000049e318       0xe8 /usr/lib/gcc/x86_64-unknown-linux-gnu/4.9.2/../../../../lib/libc.a(dl-close.o)
                                        0x101 (size before relaxing)
 .rodata.str1.8
                0x000000000049e400      0x157 /usr/lib/gcc/x86_64-unknown-linux-gnu/4.9.2/../../../../lib/libc.a(dl-close.o)
 *fill*         0x000000000049e557        0x9 
 .rodata.str1.16
                0x000000000049e560       0x21 /usr/lib/gcc/x86_64-unknown-linux-gnu/4.9.2/../../../../lib/libc.a(dl-close.o)
 .rodata.str1.1
                0x000000000049e581       0x44 /usr/lib/gcc/x86_64-unknown-linux-gnu/4.9.2/../../../../lib/libc.a(dl-cache.o)
                                         0x56 (size before relaxing)
 .rodata.str1.1
                0x000000000049e5c5       0x1c /usr/lib/gcc/x86_64-unknown-linux-gnu/4.9.2/../../../../lib/libc.a(dl-libc.o)
 .rodata.str1.1
                0x000000000049e5e1        0xc /usr/lib/gcc/x86_64-unknown-linux-gnu/4.9.2/../../../../lib/libc.a(C-messages.o)
                                          0xd (size before relaxing)
 *fill*         0x000000000049e5ed       0x13 
 .rodata        0x000000000049e600       0x68 /usr/lib/gcc/x86_64-unknown-linux-gnu/4.9.2/../../../../lib/libc.a(C-messages.o)
                0x000000000049e600                _nl_C_LC_MESSAGES
 .rodata.str1.1
                0x000000000049e668        0x4 /usr/lib/gcc/x86_64-unknown-linux-gnu/4.9.2/../../../../lib/libc.a(C-monetary.o)
                                          0x5 (size before relaxing)
 *fill*         0x000000000049e66c       0x14 
 .rodata        0x000000000049e680      0x1b8 /usr/lib/gcc/x86_64-unknown-linux-gnu/4.9.2/../../../../lib/libc.a(C-monetary.o)
                0x000000000049e680                _nl_C_LC_MONETARY
 .rodata.str1.1
                0x000000000049e838        0x3 /usr/lib/gcc/x86_64-unknown-linux-gnu/4.9.2/../../../../lib/libc.a(C-numeric.o)
 *fill*         0x000000000049e838        0x8 
 .rodata        0x000000000049e840       0x70 /usr/lib/gcc/x86_64-unknown-linux-gnu/4.9.2/../../../../lib/libc.a(C-numeric.o)
                0x000000000049e840                _nl_C_LC_NUMERIC
 .rodata.str1.1
                0x000000000049e8b0      0x130 /usr/lib/gcc/x86_64-unknown-linux-gnu/4.9.2/../../../../lib/libc.a(C-time.o)
                                        0x131 (size before relaxing)
 .rodata.str4.4
                0x000000000049e9e0      0x210 /usr/lib/gcc/x86_64-unknown-linux-gnu/4.9.2/../../../../lib/libc.a(C-time.o)
                                        0x214 (size before relaxing)
 .rodata.str4.8
                0x000000000049ebf0      0x2b0 /usr/lib/gcc/x86_64-unknown-linux-gnu/4.9.2/../../../../lib/libc.a(C-time.o)
 *fill*         0x000000000049eea0       0x20 
 .rodata        0x000000000049eec0      0x3b8 /usr/lib/gcc/x86_64-unknown-linux-gnu/4.9.2/../../../../lib/libc.a(C-time.o)
                0x000000000049eec0                _nl_C_LC_TIME
 *fill*         0x000000000049f278        0x8 
 .rodata        0x000000000049f280       0x58 /usr/lib/gcc/x86_64-unknown-linux-gnu/4.9.2/../../../../lib/libc.a(C-paper.o)
                0x000000000049f280                _nl_C_LC_PAPER
 .rodata.str1.1
                0x000000000049f2d8        0xf /usr/lib/gcc/x86_64-unknown-linux-gnu/4.9.2/../../../../lib/libc.a(C-name.o)
                                         0x10 (size before relaxing)
 *fill*         0x000000000049f2e7       0x19 
 .rodata        0x000000000049f300       0x78 /usr/lib/gcc/x86_64-unknown-linux-gnu/4.9.2/../../../../lib/libc.a(C-name.o)
                0x000000000049f300                _nl_C_LC_NAME
 .rodata.str1.8
                0x000000000049f378       0x2c /usr/lib/gcc/x86_64-unknown-linux-gnu/4.9.2/../../../../lib/libc.a(C-address.o)
 .rodata.str1.1
                0x000000000049f3a4        0x1 /usr/lib/gcc/x86_64-unknown-linux-gnu/4.9.2/../../../../lib/libc.a(C-address.o)
 *fill*         0x000000000049f3a4       0x1c 
 .rodata        0x000000000049f3c0       0xa8 /usr/lib/gcc/x86_64-unknown-linux-gnu/4.9.2/../../../../lib/libc.a(C-address.o)
                0x000000000049f3c0                _nl_C_LC_ADDRESS
 .rodata.str1.1
                0x000000000049f468        0xa /usr/lib/gcc/x86_64-unknown-linux-gnu/4.9.2/../../../../lib/libc.a(C-telephone.o)
                                          0xb (size before relaxing)
 *fill*         0x000000000049f472        0xe 
 .rodata        0x000000000049f480       0x68 /usr/lib/gcc/x86_64-unknown-linux-gnu/4.9.2/../../../../lib/libc.a(C-telephone.o)
                0x000000000049f480                _nl_C_LC_TELEPHONE
 .rodata.str1.1
                0x000000000049f4e8        0x2 /usr/lib/gcc/x86_64-unknown-linux-gnu/4.9.2/../../../../lib/libc.a(C-measurement.o)
 *fill*         0x000000000049f4e8       0x18 
 .rodata        0x000000000049f500       0x50 /usr/lib/gcc/x86_64-unknown-linux-gnu/4.9.2/../../../../lib/libc.a(C-measurement.o)
                0x000000000049f500                _nl_C_LC_MEASUREMENT
 .rodata.str1.1
                0x000000000049f550       0x67 /usr/lib/gcc/x86_64-unknown-linux-gnu/4.9.2/../../../../lib/libc.a(C-identification.o)
                                         0x68 (size before relaxing)
 *fill*         0x000000000049f5b7        0x1 
 .rodata.str1.8
                0x000000000049f5b8       0x6c /usr/lib/gcc/x86_64-unknown-linux-gnu/4.9.2/../../../../lib/libc.a(C-identification.o)
 *fill*         0x000000000049f624       0x1c 
 .rodata        0x000000000049f640      0x180 /usr/lib/gcc/x86_64-unknown-linux-gnu/4.9.2/../../../../lib/libc.a(C-identification.o)
                0x000000000049f700                _nl_C_LC_IDENTIFICATION
 .rodata        0x000000000049f7c0      0x640 /usr/lib/gcc/x86_64-unknown-linux-gnu/4.9.2/../../../../lib/libc.a(C-collate.o)
                0x000000000049f7c0                _nl_C_LC_COLLATE
 .rodata        0x000000000049fe00     0x3768 /usr/lib/gcc/x86_64-unknown-linux-gnu/4.9.2/../../../../lib/libc.a(fpioconst.o)
                0x000000000049fe00                _fpioconst_pow10
                0x000000000049ff80                __tens
 *fill*         0x00000000004a3568       0x18 
 .rodata        0x00000000004a3580      0x150 /usr/lib/gcc/x86_64-unknown-linux-gnu/4.9.2/../../../../lib/libc.a(itowa-digits.o)
                0x00000000004a3580                _itowa_upper_digits
                0x00000000004a3640                _itowa_lower_digits
 .rodata.str1.1
                0x00000000004a36d0       0x15 /usr/lib/gcc/x86_64-unknown-linux-gnu/4.9.2/../../../../lib/libc.a(vfscanf.o)
 *fill*         0x00000000004a36e5        0x3 
 .rodata.str1.8
                0x00000000004a36e8       0x63 /usr/lib/gcc/x86_64-unknown-linux-gnu/4.9.2/../../../../lib/libc.a(vfscanf.o)
 *fill*         0x00000000004a374b        0x5 
 .rodata        0x00000000004a3750      0x6b8 /usr/lib/gcc/x86_64-unknown-linux-gnu/4.9.2/../../../../lib/libc.a(vfscanf.o)
 *fill*         0x00000000004a3e08        0x8 
 .rodata.str1.16
                0x00000000004a3e10       0x15 /usr/lib/gcc/x86_64-unknown-linux-gnu/4.9.2/../../../../lib/libc.a(vfscanf.o)
 *fill*         0x00000000004a3e25        0xb 
 .rodata.cst16  0x00000000004a3e30       0x20 /usr/lib/gcc/x86_64-unknown-linux-gnu/4.9.2/../../../../lib/libc.a(vfscanf.o)
 .rodata.str1.1
                0x00000000004a3e50      0x8b2 /usr/lib/gcc/x86_64-unknown-linux-gnu/4.9.2/../../../../lib/libc.a(errlist.o)
 *fill*         0x00000000004a4702        0x6 
 .rodata.str1.8
                0x00000000004a4708      0x3bf /usr/lib/gcc/x86_64-unknown-linux-gnu/4.9.2/../../../../lib/libc.a(errlist.o)
 *fill*         0x00000000004a4ac7       0x39 
 .rodata        0x00000000004a4b00      0x438 /usr/lib/gcc/x86_64-unknown-linux-gnu/4.9.2/../../../../lib/libc.a(errlist.o)
                0x00000000004a4b00                _sys_errlist
                0x00000000004a4b00                sys_errlist
                0x00000000004a4b00                _sys_errlist_internal
                0x00000000004a4b00                __sys_errlist_internal
 .rodata.cst4   0x00000000004a4f38        0x4 /usr/lib/gcc/x86_64-unknown-linux-gnu/4.9.2/../../../../lib/libc.a(errlist.o)
                0x00000000004a4f38                sys_nerr
                0x00000000004a4f38                __sys_nerr_internal
                0x00000000004a4f38                _sys_nerr
                0x00000000004a4f38                _sys_nerr_internal
 .rodata.str1.1
                0x00000000004a4f3c       0x1e /usr/lib/gcc/x86_64-unknown-linux-gnu/4.9.2/../../../../lib/libc.a(sdlerror.o)
                                         0x30 (size before relaxing)
 .rodata.str1.1
                0x00000000004a4f5a       0x1b /usr/lib/gcc/x86_64-unknown-linux-gnu/4.9.2/../../../../lib/libc.a(sdlinfo.o)
 *fill*         0x00000000004a4f75        0x3 
 .rodata        0x00000000004a4f78       0x58 /usr/lib/gcc/x86_64-unknown-linux-gnu/4.9.2/../../../../lib/libc.a(sdlinfo.o)
 .rodata.str1.1
                0x00000000004a4fd0       0x12 /usr/lib/gcc/x86_64-unknown-linux-gnu/4.9.2/../../../../lib/libc.a(sdlmopen.o)
                                         0x13 (size before relaxing)
 .rodata.str1.1
                0x00000000004a4fe2        0xe /usr/lib/gcc/x86_64-unknown-linux-gnu/4.9.2/../../../../lib/libc.a(strerror.o)
 .rodata.str1.1
                0x00000000004a4ff0       0x14 /usr/lib/gcc/x86_64-unknown-linux-gnu/4.9.2/../../../../lib/libc.a(mbrtowc.o)
                                         0x15 (size before relaxing)
 .rodata.str1.8
                0x00000000004a5004       0xc0 /usr/lib/gcc/x86_64-unknown-linux-gnu/4.9.2/../../../../lib/libc.a(mbrtowc.o)
 *fill*         0x00000000004a5004       0x1c 
 .rodata        0x00000000004a5020       0x34 /usr/lib/gcc/x86_64-unknown-linux-gnu/4.9.2/../../../../lib/libc.a(mktime.o)
                0x00000000004a5020                __mon_yday
 .rodata.str1.1
                0x00000000004a5054       0x17 /usr/lib/gcc/x86_64-unknown-linux-gnu/4.9.2/../../../../lib/libc.a(dl-deps.o)
                                         0x42 (size before relaxing)
 *fill*         0x00000000004a506b        0x5 
 .rodata.str1.8
                0x00000000004a5070      0x193 /usr/lib/gcc/x86_64-unknown-linux-gnu/4.9.2/../../../../lib/libc.a(dl-deps.o)
 *fill*         0x00000000004a5203        0xd 
 .rodata.str1.16
                0x00000000004a5210       0x14 /usr/lib/gcc/x86_64-unknown-linux-gnu/4.9.2/../../../../lib/libc.a(dl-deps.o)
 .rodata.str1.1
                0x00000000004a5224       0x1e /usr/lib/gcc/x86_64-unknown-linux-gnu/4.9.2/../../../../lib/libc.a(dl-runtime.o)
 *fill*         0x00000000004a5242        0x6 
 .rodata.str1.8
                0x00000000004a5248       0x24 /usr/lib/gcc/x86_64-unknown-linux-gnu/4.9.2/../../../../lib/libc.a(dl-runtime.o)
 *fill*         0x00000000004a526c        0x4 
 .rodata.str1.16
                0x00000000004a5270       0x12 /usr/lib/gcc/x86_64-unknown-linux-gnu/4.9.2/../../../../lib/libc.a(dl-runtime.o)
 .rodata.str1.1
                0x00000000004a5282       0x2b /usr/lib/gcc/x86_64-unknown-linux-gnu/4.9.2/../../../../lib/libc.a(dl-init.o)
                                         0x3a (size before relaxing)
 .rodata.str1.1
                0x00000000004a52ad       0x37 /usr/lib/gcc/x86_64-unknown-linux-gnu/4.9.2/../../../../lib/libc.a(dl-fini.o)
                                         0x60 (size before relaxing)
 *fill*         0x00000000004a52e4        0x4 
 .rodata.str1.8
                0x00000000004a52e8       0x2c /usr/lib/gcc/x86_64-unknown-linux-gnu/4.9.2/../../../../lib/libc.a(dl-fini.o)
 .rodata.str1.1
                0x00000000004a5314       0xb9 /usr/lib/gcc/x86_64-unknown-linux-gnu/4.9.2/../../../../lib/libc.a(dl-version.o)
                                         0xd4 (size before relaxing)
 *fill*         0x00000000004a53cd        0x3 
 .rodata.str1.8
                0x00000000004a53d0       0xa0 /usr/lib/gcc/x86_64-unknown-linux-gnu/4.9.2/../../../../lib/libc.a(dl-version.o)
 .rodata.str1.16
                0x00000000004a5470       0x17 /usr/lib/gcc/x86_64-unknown-linux-gnu/4.9.2/../../../../lib/libc.a(dl-version.o)
 .rodata.str1.1
                0x00000000004a5487       0x69 /usr/lib/gcc/x86_64-unknown-linux-gnu/4.9.2/../../../../lib/libc.a(dl-profile.o)
 .rodata.str1.8
                0x00000000004a54f0       0x63 /usr/lib/gcc/x86_64-unknown-linux-gnu/4.9.2/../../../../lib/libc.a(dl-profile.o)
 .rodata.str1.1
                0x00000000004a5553       0xd2 /usr/lib/gcc/x86_64-unknown-linux-gnu/4.9.2/../../../../lib/libc.a(strtof_l.o)
                                         0xe5 (size before relaxing)
 *fill*         0x00000000004a5625        0x3 
 .rodata.str1.8
                0x00000000004a5628      0x408 /usr/lib/gcc/x86_64-unknown-linux-gnu/4.9.2/../../../../lib/libc.a(strtof_l.o)
 *fill*         0x00000000004a5a30       0x10 
 .rodata        0x00000000004a5a40       0x40 /usr/lib/gcc/x86_64-unknown-linux-gnu/4.9.2/../../../../lib/libc.a(strtof_l.o)
 .rodata.str1.16
                0x00000000004a5a80       0x16 /usr/lib/gcc/x86_64-unknown-linux-gnu/4.9.2/../../../../lib/libc.a(strtof_l.o)
 *fill*         0x00000000004a5a96        0x2 
 .rodata.cst4   0x00000000004a5a98       0x20 /usr/lib/gcc/x86_64-unknown-linux-gnu/4.9.2/../../../../lib/libc.a(strtof_l.o)
 .rodata.str1.1
                0x00000000004a5ab8       0xe5 /usr/lib/gcc/x86_64-unknown-linux-gnu/4.9.2/../../../../lib/libc.a(strtod_l.o)
 .rodata.str1.8
                0x00000000004a5ab8      0x1ca /usr/lib/gcc/x86_64-unknown-linux-gnu/4.9.2/../../../../lib/libc.a(strtod_l.o)
                                        0x412 (size before relaxing)
 *fill*         0x00000000004a5c82       0x3e 
 .rodata        0x00000000004a5cc0       0x40 /usr/lib/gcc/x86_64-unknown-linux-gnu/4.9.2/../../../../lib/libc.a(strtod_l.o)
 .rodata.str1.16
                0x00000000004a5d00       0x16 /usr/lib/gcc/x86_64-unknown-linux-gnu/4.9.2/../../../../lib/libc.a(strtod_l.o)
 *fill*         0x00000000004a5d16        0x2 
 .rodata.cst8   0x00000000004a5d18       0x40 /usr/lib/gcc/x86_64-unknown-linux-gnu/4.9.2/../../../../lib/libc.a(strtod_l.o)
 .rodata.str1.1
                0x00000000004a5d58       0x15 /usr/lib/gcc/x86_64-unknown-linux-gnu/4.9.2/../../../../lib/libc.a(strtold_l.o)
                                         0xef (size before relaxing)
 *fill*         0x00000000004a5d6d        0x3 
 .rodata.str1.8
                0x00000000004a5d70      0x1a3 /usr/lib/gcc/x86_64-unknown-linux-gnu/4.9.2/../../../../lib/libc.a(strtold_l.o)
                                        0x3eb (size before relaxing)
 *fill*         0x00000000004a5f13       0x2d 
 .rodata        0x00000000004a5f40       0x40 /usr/lib/gcc/x86_64-unknown-linux-gnu/4.9.2/../../../../lib/libc.a(strtold_l.o)
 .rodata.str1.16
                0x00000000004a5f80       0x20 /usr/lib/gcc/x86_64-unknown-linux-gnu/4.9.2/../../../../lib/libc.a(strtold_l.o)
                                         0x17 (size before relaxing)
 .rodata.cst16  0x00000000004a5fa0       0x40 /usr/lib/gcc/x86_64-unknown-linux-gnu/4.9.2/../../../../lib/libc.a(strtold_l.o)
 .rodata.cst4   0x00000000004a5fe0        0xc /usr/lib/gcc/x86_64-unknown-linux-gnu/4.9.2/../../../../lib/libc.a(strtold_l.o)
 *fill*         0x00000000004a5fe0       0x20 
 .rodata        0x00000000004a6000       0xa0 /usr/lib/gcc/x86_64-unknown-linux-gnu/4.9.2/../../../../lib/libc.a(tens_in_limb.o)
                0x00000000004a6000                _tens_in_limb
 .rodata.str1.1
                0x00000000004a60a0       0x17 /usr/lib/gcc/x86_64-unknown-linux-gnu/4.9.2/../../../../lib/libc.a(sdlopen.o)
                                         0x18 (size before relaxing)
 .rodata.cst16  0x00000000004a60b7       0x90 /usr/lib/gcc/x86_64-unknown-linux-gnu/4.9.2/../../../../lib/libc.a(strncase_l.o)
 *fill*         0x00000000004a60b7        0x1 
 .rodata.sse4.2
                0x00000000004a60b8       0x40 /usr/lib/gcc/x86_64-unknown-linux-gnu/4.9.2/../../../../lib/libc.a(strncase_l.o)
 .rodata.avx    0x00000000004a60f8       0x40 /usr/lib/gcc/x86_64-unknown-linux-gnu/4.9.2/../../../../lib/libc.a(strncase_l.o)
 .rodata        0x00000000004a6138       0x40 /usr/lib/gcc/x86_64-unknown-linux-gnu/4.9.2/../../../../lib/libc.a(strncase_l.o)
 .rodata.cst16  0x00000000004a6178       0x30 /usr/lib/gcc/x86_64-unknown-linux-gnu/4.9.2/../../../../lib/libc.a(strncase_l-ssse3.o)
 .rodata        0x00000000004a6178       0x40 /usr/lib/gcc/x86_64-unknown-linux-gnu/4.9.2/../../../../lib/libc.a(strncase_l-ssse3.o)
 .rodata.str1.8
                0x00000000004a61b8       0x30 /usr/lib/gcc/x86_64-unknown-linux-gnu/4.9.2/../../../../lib/libc.a(dl-sym.o)
                                         0x2e (size before relaxing)
 .rodata        0x00000000004a61e8      0x5b8 /usr/lib/gcc/x86_64-unknown-linux-gnu/4.9.2/libgcc_eh.a(unwind-dw2.o)
 .rodata        0x00000000004a67a0       0x34 /usr/lib/gcc/x86_64-unknown-linux-gnu/4.9.2/libgcc_eh.a(unwind-dw2-fde-dip.o)
 .rodata        0x00000000004a67d4       0x34 /usr/lib/gcc/x86_64-unknown-linux-gnu/4.9.2/libgcc_eh.a(unwind-c.o)

__libc_subfreeres
                0x00000000004a6808       0x58
                0x00000000004a6808                PROVIDE (__start___libc_subfreeres, .)
 __libc_subfreeres
                0x00000000004a6808        0x8 /usr/lib/gcc/x86_64-unknown-linux-gnu/4.9.2/../../../../lib/libc.a(dcigettext.o)
 __libc_subfreeres
                0x00000000004a6810        0x8 /usr/lib/gcc/x86_64-unknown-linux-gnu/4.9.2/../../../../lib/libc.a(genops.o)
 __libc_subfreeres
                0x00000000004a6818        0x8 /usr/lib/gcc/x86_64-unknown-linux-gnu/4.9.2/../../../../lib/libc.a(register-atfork.o)
 __libc_subfreeres
                0x00000000004a6820        0x8 /usr/lib/gcc/x86_64-unknown-linux-gnu/4.9.2/../../../../lib/libc.a(gconv_db.o)
 __libc_subfreeres
                0x00000000004a6828        0x8 /usr/lib/gcc/x86_64-unknown-linux-gnu/4.9.2/../../../../lib/libc.a(gconv_conf.o)
 __libc_subfreeres
                0x00000000004a6830        0x8 /usr/lib/gcc/x86_64-unknown-linux-gnu/4.9.2/../../../../lib/libc.a(gconv_cache.o)
 __libc_subfreeres
                0x00000000004a6838        0x8 /usr/lib/gcc/x86_64-unknown-linux-gnu/4.9.2/../../../../lib/libc.a(gconv_dl.o)
 __libc_subfreeres
                0x00000000004a6840        0x8 /usr/lib/gcc/x86_64-unknown-linux-gnu/4.9.2/../../../../lib/libc.a(setenv.o)
 __libc_subfreeres
                0x00000000004a6848        0x8 /usr/lib/gcc/x86_64-unknown-linux-gnu/4.9.2/../../../../lib/libc.a(reg-modifier.o)
 __libc_subfreeres
                0x00000000004a6850        0x8 /usr/lib/gcc/x86_64-unknown-linux-gnu/4.9.2/../../../../lib/libc.a(tzset.o)
 __libc_subfreeres
                0x00000000004a6858        0x8 /usr/lib/gcc/x86_64-unknown-linux-gnu/4.9.2/../../../../lib/libc.a(dl-libc.o)
                0x00000000004a6860                PROVIDE (__stop___libc_subfreeres, .)

__libc_atexit   0x00000000004a6860        0x8
                0x00000000004a6860                PROVIDE (__start___libc_atexit, .)
 __libc_atexit  0x00000000004a6860        0x8 /usr/lib/gcc/x86_64-unknown-linux-gnu/4.9.2/../../../../lib/libc.a(genops.o)
                0x00000000004a6868                PROVIDE (__stop___libc_atexit, .)

__libc_thread_subfreeres
                0x00000000004a6868        0x8
                0x00000000004a6868                PROVIDE (__start___libc_thread_subfreeres, .)
 __libc_thread_subfreeres
                0x00000000004a6868        0x8 /usr/lib/gcc/x86_64-unknown-linux-gnu/4.9.2/../../../../lib/libc.a(malloc.o)
                0x00000000004a6870                PROVIDE (__stop___libc_thread_subfreeres, .)

.rodata1
 *(.rodata1)

.eh_frame_hdr
 *(.eh_frame_hdr)

.eh_frame       0x00000000004a6870     0xa9ec
 *(.eh_frame)
 .eh_frame      0x00000000004a6870       0x30 /usr/lib/gcc/x86_64-unknown-linux-gnu/4.9.2/../../../../lib/crt1.o
 .eh_frame      0x00000000004a68a0        0x0 /usr/lib/gcc/x86_64-unknown-linux-gnu/4.9.2/crtbeginT.o
 .eh_frame      0x00000000004a68a0       0x30 src/main.o
 .eh_frame      0x00000000004a68d0       0x18 ../lib/libprinter.a(printer.o)
                                         0x30 (size before relaxing)
 .eh_frame      0x00000000004a68e8       0x30 /usr/lib/gcc/x86_64-unknown-linux-gnu/4.9.2/../../../../lib/libc.a(libc-start.o)
                                         0x48 (size before relaxing)
 .eh_frame      0x00000000004a6918       0x50 /usr/lib/gcc/x86_64-unknown-linux-gnu/4.9.2/../../../../lib/libc.a(check_fds.o)
                                         0x68 (size before relaxing)
 .eh_frame      0x00000000004a6968       0x80 /usr/lib/gcc/x86_64-unknown-linux-gnu/4.9.2/../../../../lib/libc.a(libc-tls.o)
                                         0x90 (size before relaxing)
 .eh_frame      0x00000000004a69e8       0x60 /usr/lib/gcc/x86_64-unknown-linux-gnu/4.9.2/../../../../lib/libc.a(elf-init.o)
                                         0x70 (size before relaxing)
 .eh_frame      0x00000000004a6a48       0x68 /usr/lib/gcc/x86_64-unknown-linux-gnu/4.9.2/../../../../lib/libc.a(assert.o)
                                         0x80 (size before relaxing)
 .eh_frame      0x00000000004a6ab0       0x18 /usr/lib/gcc/x86_64-unknown-linux-gnu/4.9.2/../../../../lib/libc.a(dcgettext.o)
                                         0x30 (size before relaxing)
 .eh_frame      0x00000000004a6ac8      0x160 /usr/lib/gcc/x86_64-unknown-linux-gnu/4.9.2/../../../../lib/libc.a(dcigettext.o)
                                        0x168 (size before relaxing)
 .eh_frame      0x00000000004a6c28       0xc8 /usr/lib/gcc/x86_64-unknown-linux-gnu/4.9.2/../../../../lib/libc.a(finddomain.o)
                                         0xe0 (size before relaxing)
 .eh_frame      0x00000000004a6cf0       0x80 /usr/lib/gcc/x86_64-unknown-linux-gnu/4.9.2/../../../../lib/libc.a(loadmsgcat.o)
                                         0x90 (size before relaxing)
 .eh_frame      0x00000000004a6d70       0xb0 /usr/lib/gcc/x86_64-unknown-linux-gnu/4.9.2/../../../../lib/libc.a(localealias.o)
                                         0xc0 (size before relaxing)
 .eh_frame      0x00000000004a6e20       0xf0 /usr/lib/gcc/x86_64-unknown-linux-gnu/4.9.2/../../../../lib/libc.a(l10nflist.o)
                                        0x100 (size before relaxing)
 .eh_frame      0x00000000004a6f10       0x48 /usr/lib/gcc/x86_64-unknown-linux-gnu/4.9.2/../../../../lib/libc.a(explodename.o)
                                         0x60 (size before relaxing)
 .eh_frame      0x00000000004a6f58       0xe0 /usr/lib/gcc/x86_64-unknown-linux-gnu/4.9.2/../../../../lib/libc.a(plural.o)
                                         0xf0 (size before relaxing)
 .eh_frame      0x00000000004a7038       0x40 /usr/lib/gcc/x86_64-unknown-linux-gnu/4.9.2/../../../../lib/libc.a(plural-exp.o)
                                         0x58 (size before relaxing)
 .eh_frame      0x00000000004a7078       0x18 /usr/lib/gcc/x86_64-unknown-linux-gnu/4.9.2/../../../../lib/libc.a(hash-string.o)
                                         0x30 (size before relaxing)
 .eh_frame      0x00000000004a7090       0x18 /usr/lib/gcc/x86_64-unknown-linux-gnu/4.9.2/../../../../lib/libc.a(bsd-_setjmp.o)
                                         0x30 (size before relaxing)
 .eh_frame      0x00000000004a70a8       0x18 /usr/lib/gcc/x86_64-unknown-linux-gnu/4.9.2/../../../../lib/libc.a(raise.o)
                                         0x30 (size before relaxing)
 .eh_frame      0x00000000004a70c0       0x30 /usr/lib/gcc/x86_64-unknown-linux-gnu/4.9.2/../../../../lib/libc.a(abort.o)
                                         0x48 (size before relaxing)
 .eh_frame      0x00000000004a70f0       0xa0 /usr/lib/gcc/x86_64-unknown-linux-gnu/4.9.2/../../../../lib/libc.a(msort.o)
                                         0xb0 (size before relaxing)
 .eh_frame      0x00000000004a7190       0x50 /usr/lib/gcc/x86_64-unknown-linux-gnu/4.9.2/../../../../lib/libc.a(getenv.o)
                                         0x68 (size before relaxing)
 .eh_frame      0x00000000004a71e0       0x40 /usr/lib/gcc/x86_64-unknown-linux-gnu/4.9.2/../../../../lib/libc.a(exit.o)
                                         0x58 (size before relaxing)
 .eh_frame      0x00000000004a7220       0xa0 /usr/lib/gcc/x86_64-unknown-linux-gnu/4.9.2/../../../../lib/libc.a(cxa_atexit.o)
                                         0xb0 (size before relaxing)
 .eh_frame      0x00000000004a72c0       0x30 /usr/lib/gcc/x86_64-unknown-linux-gnu/4.9.2/../../../../lib/libc.a(strtoul.o)
                                         0x40 (size before relaxing)
 .eh_frame      0x00000000004a72f0       0x98 /usr/lib/gcc/x86_64-unknown-linux-gnu/4.9.2/../../../../lib/libc.a(strtoul_l.o)
                                         0xb0 (size before relaxing)
 .eh_frame      0x00000000004a7388       0x68 /usr/lib/gcc/x86_64-unknown-linux-gnu/4.9.2/../../../../lib/libc.a(grouping.o)
                                         0x80 (size before relaxing)
 .eh_frame      0x00000000004a73f0       0x20 /usr/lib/gcc/x86_64-unknown-linux-gnu/4.9.2/../../../../lib/libc.a(asprintf.o)
                                         0x38 (size before relaxing)
 .eh_frame      0x00000000004a7410       0x30 /usr/lib/gcc/x86_64-unknown-linux-gnu/4.9.2/../../../../lib/libc.a(fxprintf.o)
                                         0x48 (size before relaxing)
 .eh_frame      0x00000000004a7440       0x78 /usr/lib/gcc/x86_64-unknown-linux-gnu/4.9.2/../../../../lib/libc.a(iofclose.o)
 .eh_frame      0x00000000004a74b8       0x40 /usr/lib/gcc/x86_64-unknown-linux-gnu/4.9.2/../../../../lib/libc.a(iofflush.o)
                                         0x60 (size before relaxing)
 .eh_frame      0x00000000004a74f8       0x80 /usr/lib/gcc/x86_64-unknown-linux-gnu/4.9.2/../../../../lib/libc.a(iofopen.o)
                                         0x90 (size before relaxing)
 .eh_frame      0x00000000004a7578       0x20 /usr/lib/gcc/x86_64-unknown-linux-gnu/4.9.2/../../../../lib/libc.a(wprintf.o)
                                         0x38 (size before relaxing)
 .eh_frame      0x00000000004a7598      0x348 /usr/lib/gcc/x86_64-unknown-linux-gnu/4.9.2/../../../../lib/libc.a(wfileops.o)
                                        0x378 (size before relaxing)
 .eh_frame      0x00000000004a78e0       0x40 /usr/lib/gcc/x86_64-unknown-linux-gnu/4.9.2/../../../../lib/libc.a(vasprintf.o)
                                         0x58 (size before relaxing)
 .eh_frame      0x00000000004a7920       0x18 /usr/lib/gcc/x86_64-unknown-linux-gnu/4.9.2/../../../../lib/libc.a(fcloseall.o)
                                         0x30 (size before relaxing)
 .eh_frame      0x00000000004a7938       0x80 /usr/lib/gcc/x86_64-unknown-linux-gnu/4.9.2/../../../../lib/libc.a(libc_fatal.o)
                                         0x98 (size before relaxing)
 .eh_frame      0x00000000004a79b8       0x38 /usr/lib/gcc/x86_64-unknown-linux-gnu/4.9.2/../../../../lib/libc.a(iofgets_u.o)
                                         0x50 (size before relaxing)
 .eh_frame      0x00000000004a79f0      0x5d8 /usr/lib/gcc/x86_64-unknown-linux-gnu/4.9.2/../../../../lib/libc.a(fileops.o)
                                        0x5d0 (size before relaxing)
 .eh_frame      0x00000000004a7fc8      0x860 /usr/lib/gcc/x86_64-unknown-linux-gnu/4.9.2/../../../../lib/libc.a(genops.o)
                                        0x7c0 (size before relaxing)
 .eh_frame      0x00000000004a8828      0x210 /usr/lib/gcc/x86_64-unknown-linux-gnu/4.9.2/../../../../lib/libc.a(strops.o)
                                        0x200 (size before relaxing)
 .eh_frame      0x00000000004a8a38      0xc58 /usr/lib/gcc/x86_64-unknown-linux-gnu/4.9.2/../../../../lib/libc.a(malloc.o)
                                        0xc00 (size before relaxing)
 .eh_frame      0x00000000004a9690       0x18 /usr/lib/gcc/x86_64-unknown-linux-gnu/4.9.2/../../../../lib/libc.a(morecore.o)
                                         0x30 (size before relaxing)
 .eh_frame      0x00000000004a96a8       0x30 /usr/lib/gcc/x86_64-unknown-linux-gnu/4.9.2/../../../../lib/libc.a(strchr.o)
                                         0x40 (size before relaxing)
 .eh_frame      0x00000000004a96d8       0x48 /usr/lib/gcc/x86_64-unknown-linux-gnu/4.9.2/../../../../lib/libc.a(strcmp.o)
                                         0x58 (size before relaxing)
 .eh_frame      0x00000000004a9720       0x30 /usr/lib/gcc/x86_64-unknown-linux-gnu/4.9.2/../../../../lib/libc.a(strcpy.o)
                                         0x40 (size before relaxing)
 .eh_frame      0x00000000004a9750       0x38 /usr/lib/gcc/x86_64-unknown-linux-gnu/4.9.2/../../../../lib/libc.a(strdup.o)
                                         0x50 (size before relaxing)
 .eh_frame      0x00000000004a9788       0x18 /usr/lib/gcc/x86_64-unknown-linux-gnu/4.9.2/../../../../lib/libc.a(strlen.o)
                                         0x30 (size before relaxing)
 .eh_frame      0x00000000004a97a0       0x18 /usr/lib/gcc/x86_64-unknown-linux-gnu/4.9.2/../../../../lib/libc.a(strncmp.o)
                                         0x30 (size before relaxing)
 .eh_frame      0x00000000004a97b8       0xf8 /usr/lib/gcc/x86_64-unknown-linux-gnu/4.9.2/../../../../lib/libc.a(strstr.o)
                                        0x108 (size before relaxing)
 .eh_frame      0x00000000004a98b0       0x18 /usr/lib/gcc/x86_64-unknown-linux-gnu/4.9.2/../../../../lib/libc.a(memchr.o)
                                         0x30 (size before relaxing)
 .eh_frame      0x00000000004a98c8       0x30 /usr/lib/gcc/x86_64-unknown-linux-gnu/4.9.2/../../../../lib/libc.a(memcmp.o)
                                         0x40 (size before relaxing)
 .eh_frame      0x00000000004a98f8       0x70 /usr/lib/gcc/x86_64-unknown-linux-gnu/4.9.2/../../../../lib/libc.a(memmove.o)
                                         0x88 (size before relaxing)
 .eh_frame      0x00000000004a9968       0x60 /usr/lib/gcc/x86_64-unknown-linux-gnu/4.9.2/../../../../lib/libc.a(memset.o)
                                         0x68 (size before relaxing)
 .eh_frame      0x00000000004a99c8       0x40 /usr/lib/gcc/x86_64-unknown-linux-gnu/4.9.2/../../../../lib/libc.a(mempcpy.o)
                                         0x58 (size before relaxing)
 .eh_frame      0x00000000004a9a08       0x30 /usr/lib/gcc/x86_64-unknown-linux-gnu/4.9.2/../../../../lib/libc.a(stpcpy.o)
                                         0x40 (size before relaxing)
 .eh_frame      0x00000000004a9a38       0xc0 /usr/lib/gcc/x86_64-unknown-linux-gnu/4.9.2/../../../../lib/libc.a(strcasecmp_l.o)
                                         0xb8 (size before relaxing)
 .eh_frame      0x00000000004a9af8       0x40 /usr/lib/gcc/x86_64-unknown-linux-gnu/4.9.2/../../../../lib/libc.a(memcpy.o)
                                         0x58 (size before relaxing)
 .eh_frame      0x00000000004a9b38       0x80 /usr/lib/gcc/x86_64-unknown-linux-gnu/4.9.2/../../../../lib/libc.a(wordcopy.o)
                                         0x90 (size before relaxing)
 .eh_frame      0x00000000004a9bb8       0x18 /usr/lib/gcc/x86_64-unknown-linux-gnu/4.9.2/../../../../lib/libc.a(rawmemchr.o)
                                         0x30 (size before relaxing)
 .eh_frame      0x00000000004a9bd0       0x18 /usr/lib/gcc/x86_64-unknown-linux-gnu/4.9.2/../../../../lib/libc.a(strchrnul.o)
                                         0x30 (size before relaxing)
 .eh_frame      0x00000000004a9be8       0x18 /usr/lib/gcc/x86_64-unknown-linux-gnu/4.9.2/../../../../lib/libc.a(strcmp-ssse3.o)
                                         0x30 (size before relaxing)
 .eh_frame      0x00000000004a9c00       0x18 /usr/lib/gcc/x86_64-unknown-linux-gnu/4.9.2/../../../../lib/libc.a(strcmp-sse2-unaligned.o)
                                         0x30 (size before relaxing)
 .eh_frame      0x00000000004a9c18       0x18 /usr/lib/gcc/x86_64-unknown-linux-gnu/4.9.2/../../../../lib/libc.a(memcmp-sse4.o)
                                         0x30 (size before relaxing)
 .eh_frame      0x00000000004a9c30       0x30 /usr/lib/gcc/x86_64-unknown-linux-gnu/4.9.2/../../../../lib/libc.a(memmove-ssse3.o)
                                         0x40 (size before relaxing)
 .eh_frame      0x00000000004a9c60       0x30 /usr/lib/gcc/x86_64-unknown-linux-gnu/4.9.2/../../../../lib/libc.a(memmove-avx-unaligned.o)
                                         0x40 (size before relaxing)
 .eh_frame      0x00000000004a9c90       0x30 /usr/lib/gcc/x86_64-unknown-linux-gnu/4.9.2/../../../../lib/libc.a(memmove-ssse3-back.o)
                                         0x40 (size before relaxing)
 .eh_frame      0x00000000004a9cc0       0x30 /usr/lib/gcc/x86_64-unknown-linux-gnu/4.9.2/../../../../lib/libc.a(strcasecmp_l-ssse3.o)
                                         0x40 (size before relaxing)
 .eh_frame      0x00000000004a9cf0       0x18 /usr/lib/gcc/x86_64-unknown-linux-gnu/4.9.2/../../../../lib/libc.a(strcpy-ssse3.o)
                                         0x30 (size before relaxing)
 .eh_frame      0x00000000004a9d08       0x18 /usr/lib/gcc/x86_64-unknown-linux-gnu/4.9.2/../../../../lib/libc.a(stpcpy-ssse3.o)
                                         0x30 (size before relaxing)
 .eh_frame      0x00000000004a9d20       0x18 /usr/lib/gcc/x86_64-unknown-linux-gnu/4.9.2/../../../../lib/libc.a(strcpy-sse2-unaligned.o)
                                         0x30 (size before relaxing)
 .eh_frame      0x00000000004a9d38       0x18 /usr/lib/gcc/x86_64-unknown-linux-gnu/4.9.2/../../../../lib/libc.a(stpcpy-sse2-unaligned.o)
                                         0x30 (size before relaxing)
 .eh_frame      0x00000000004a9d50       0x18 /usr/lib/gcc/x86_64-unknown-linux-gnu/4.9.2/../../../../lib/libc.a(strchr-sse2-no-bsf.o)
                                         0x30 (size before relaxing)
 .eh_frame      0x00000000004a9d68       0x18 /usr/lib/gcc/x86_64-unknown-linux-gnu/4.9.2/../../../../lib/libc.a(memcmp-ssse3.o)
                                         0x30 (size before relaxing)
 .eh_frame      0x00000000004a9d80       0x18 /usr/lib/gcc/x86_64-unknown-linux-gnu/4.9.2/../../../../lib/libc.a(strstr-sse2-unaligned.o)
                                         0x30 (size before relaxing)
 .eh_frame      0x00000000004a9d98       0x18 /usr/lib/gcc/x86_64-unknown-linux-gnu/4.9.2/../../../../lib/libc.a(memset-avx2.o)
                                         0x30 (size before relaxing)
 .eh_frame      0x00000000004a9db0      0x1b0 /usr/lib/gcc/x86_64-unknown-linux-gnu/4.9.2/../../../../lib/libc.a(cacheinfo.o)
                                        0x1c0 (size before relaxing)
 .eh_frame      0x00000000004a9f60       0x18 /usr/lib/gcc/x86_64-unknown-linux-gnu/4.9.2/../../../../lib/libc.a(strcasecmp_l-nonascii.o)
                                         0x30 (size before relaxing)
 .eh_frame      0x00000000004a9f78       0x18 /usr/lib/gcc/x86_64-unknown-linux-gnu/4.9.2/../../../../lib/libc.a(wmempcpy.o)
                                         0x30 (size before relaxing)
 .eh_frame      0x00000000004a9f90       0xe0 /usr/lib/gcc/x86_64-unknown-linux-gnu/4.9.2/../../../../lib/libc.a(wcsmbsload.o)
                                         0xf0 (size before relaxing)
 .eh_frame      0x00000000004aa070       0x18 /usr/lib/gcc/x86_64-unknown-linux-gnu/4.9.2/../../../../lib/libc.a(_exit.o)
                                         0x30 (size before relaxing)
 .eh_frame      0x00000000004aa088       0x78 /usr/lib/gcc/x86_64-unknown-linux-gnu/4.9.2/../../../../lib/libc.a(sysconf.o)
                                         0x90 (size before relaxing)
 .eh_frame      0x00000000004aa100       0x18 /usr/lib/gcc/x86_64-unknown-linux-gnu/4.9.2/../../../../lib/libc.a(sched_yield.o)
                                         0x30 (size before relaxing)
 .eh_frame      0x00000000004aa118       0x18 /usr/lib/gcc/x86_64-unknown-linux-gnu/4.9.2/../../../../lib/libc.a(get_child_max.o)
                                         0x30 (size before relaxing)
 .eh_frame      0x00000000004aa130       0x18 /usr/lib/gcc/x86_64-unknown-linux-gnu/4.9.2/../../../../lib/libc.a(xstat.o)
                                         0x30 (size before relaxing)
 .eh_frame      0x00000000004aa148       0x18 /usr/lib/gcc/x86_64-unknown-linux-gnu/4.9.2/../../../../lib/libc.a(fxstat.o)
                                         0x30 (size before relaxing)
 .eh_frame      0x00000000004aa160       0x18 /usr/lib/gcc/x86_64-unknown-linux-gnu/4.9.2/../../../../lib/libc.a(open.o)
                                         0x30 (size before relaxing)
 .eh_frame      0x00000000004aa178       0x18 /usr/lib/gcc/x86_64-unknown-linux-gnu/4.9.2/../../../../lib/libc.a(read.o)
                                         0x30 (size before relaxing)
 .eh_frame      0x00000000004aa190       0x18 /usr/lib/gcc/x86_64-unknown-linux-gnu/4.9.2/../../../../lib/libc.a(write.o)
                                         0x30 (size before relaxing)
 .eh_frame      0x00000000004aa1a8       0x60 /usr/lib/gcc/x86_64-unknown-linux-gnu/4.9.2/../../../../lib/libc.a(fcntl.o)
                                         0x70 (size before relaxing)
 .eh_frame      0x00000000004aa208       0x18 /usr/lib/gcc/x86_64-unknown-linux-gnu/4.9.2/../../../../lib/libc.a(close.o)
                                         0x30 (size before relaxing)
 .eh_frame      0x00000000004aa220       0x50 /usr/lib/gcc/x86_64-unknown-linux-gnu/4.9.2/../../../../lib/libc.a(getcwd.o)
                                         0x68 (size before relaxing)
 .eh_frame      0x00000000004aa270       0x18 /usr/lib/gcc/x86_64-unknown-linux-gnu/4.9.2/../../../../lib/libc.a(getrlimit.o)
                                         0x30 (size before relaxing)
 .eh_frame      0x00000000004aa288       0x38 /usr/lib/gcc/x86_64-unknown-linux-gnu/4.9.2/../../../../lib/libc.a(sbrk.o)
                                         0x50 (size before relaxing)
 .eh_frame      0x00000000004aa2c0       0x18 /usr/lib/gcc/x86_64-unknown-linux-gnu/4.9.2/../../../../lib/libc.a(getpagesize.o)
                                         0x30 (size before relaxing)
 .eh_frame      0x00000000004aa2d8       0x18 /usr/lib/gcc/x86_64-unknown-linux-gnu/4.9.2/../../../../lib/libc.a(getdtsz.o)
                                         0x30 (size before relaxing)
 .eh_frame      0x00000000004aa2f0       0x18 /usr/lib/gcc/x86_64-unknown-linux-gnu/4.9.2/../../../../lib/libc.a(mmap.o)
                                         0x30 (size before relaxing)
 .eh_frame      0x00000000004aa308       0x18 /usr/lib/gcc/x86_64-unknown-linux-gnu/4.9.2/../../../../lib/libc.a(munmap.o)
                                         0x30 (size before relaxing)
 .eh_frame      0x00000000004aa320       0x18 /usr/lib/gcc/x86_64-unknown-linux-gnu/4.9.2/../../../../lib/libc.a(mprotect.o)
                                         0x30 (size before relaxing)
 .eh_frame      0x00000000004aa338       0x18 /usr/lib/gcc/x86_64-unknown-linux-gnu/4.9.2/../../../../lib/libc.a(madvise.o)
                                         0x30 (size before relaxing)
 .eh_frame      0x00000000004aa350      0x168 /usr/lib/gcc/x86_64-unknown-linux-gnu/4.9.2/../../../../lib/libc.a(tsearch.o)
                                        0x170 (size before relaxing)
 .eh_frame      0x00000000004aa4b8      0x120 /usr/lib/gcc/x86_64-unknown-linux-gnu/4.9.2/../../../../lib/libc.a(getsysstats.o)
                                        0x128 (size before relaxing)
 .eh_frame      0x00000000004aa5d8       0x18 /usr/lib/gcc/x86_64-unknown-linux-gnu/4.9.2/../../../../lib/libc.a(getclktck.o)
                                         0x30 (size before relaxing)
 .eh_frame      0x00000000004aa5f0       0x30 /usr/lib/gcc/x86_64-unknown-linux-gnu/4.9.2/../../../../lib/libc.a(init-misc.o)
                                         0x48 (size before relaxing)
 .eh_frame      0x00000000004aa620       0x18 /usr/lib/gcc/x86_64-unknown-linux-gnu/4.9.2/../../../../lib/libc.a(llseek.o)
                                         0x30 (size before relaxing)
 .eh_frame      0x00000000004aa638       0x18 /usr/lib/gcc/x86_64-unknown-linux-gnu/4.9.2/../../../../lib/libc.a(mremap.o)
                                         0x30 (size before relaxing)
 .eh_frame      0x00000000004aa650       0x18 /usr/lib/gcc/x86_64-unknown-linux-gnu/4.9.2/../../../../lib/libc.a(alloca_cutoff.o)
                                         0x30 (size before relaxing)
 .eh_frame      0x00000000004aa668       0x50 /usr/lib/gcc/x86_64-unknown-linux-gnu/4.9.2/../../../../lib/libc.a(libc-lowlevellock.o)
                                         0x60 (size before relaxing)
 .eh_frame      0x00000000004aa6b8       0x30 /usr/lib/gcc/x86_64-unknown-linux-gnu/4.9.2/../../../../lib/libc.a(libc-cancellation.o)
                                         0x40 (size before relaxing)
 .eh_frame      0x00000000004aa6e8       0x90 /usr/lib/gcc/x86_64-unknown-linux-gnu/4.9.2/../../../../lib/libc.a(register-atfork.o)
                                         0xa0 (size before relaxing)
 .eh_frame      0x00000000004aa778       0x58 /usr/lib/gcc/x86_64-unknown-linux-gnu/4.9.2/../../../../lib/libc.a(backtrace.o)
                                         0x70 (size before relaxing)
 .eh_frame      0x00000000004aa7d0       0x60 /usr/lib/gcc/x86_64-unknown-linux-gnu/4.9.2/../../../../lib/libc.a(backtracesymsfd.o)
                                         0x78 (size before relaxing)
 .eh_frame      0x00000000004aa830       0x18 /usr/lib/gcc/x86_64-unknown-linux-gnu/4.9.2/../../../../lib/libc.a(chk_fail.o)
                                         0x30 (size before relaxing)
 .eh_frame      0x00000000004aa848       0x20 /usr/lib/gcc/x86_64-unknown-linux-gnu/4.9.2/../../../../lib/libc.a(fortify_fail.o)
                                         0x38 (size before relaxing)
 .eh_frame      0x00000000004aa868       0x30 /usr/lib/gcc/x86_64-unknown-linux-gnu/4.9.2/../../../../lib/libc.a(dl-debug.o)
                                         0x40 (size before relaxing)
 .eh_frame      0x00000000004aa898       0xa8 /usr/lib/gcc/x86_64-unknown-linux-gnu/4.9.2/../../../../lib/libc.a(dl-support.o)
                                         0xc0 (size before relaxing)
 .eh_frame      0x00000000004aa940       0x68 /usr/lib/gcc/x86_64-unknown-linux-gnu/4.9.2/../../../../lib/libc.a(dl-addr.o)
                                         0x78 (size before relaxing)
 .eh_frame      0x00000000004aa9a8       0x20 /usr/lib/gcc/x86_64-unknown-linux-gnu/4.9.2/../../../../lib/libc.a(enbl-secure.o)
                                         0x38 (size before relaxing)
 .eh_frame      0x00000000004aa9c8       0x38 /usr/lib/gcc/x86_64-unknown-linux-gnu/4.9.2/../../../../lib/libc.a(dl-sysdep.o)
                                         0x50 (size before relaxing)
 .eh_frame      0x00000000004aaa00       0x48 /usr/lib/gcc/x86_64-unknown-linux-gnu/4.9.2/../../../../lib/libc.a(init-first.o)
                                         0x60 (size before relaxing)
 .eh_frame      0x00000000004aaa48       0x18 /usr/lib/gcc/x86_64-unknown-linux-gnu/4.9.2/../../../../lib/libc.a(sysdep.o)
                                         0x30 (size before relaxing)
 .eh_frame      0x00000000004aaa60       0x38 /usr/lib/gcc/x86_64-unknown-linux-gnu/4.9.2/../../../../lib/libc.a(init-arch.o)
                                         0x50 (size before relaxing)
 .eh_frame      0x00000000004aaa98       0x30 /usr/lib/gcc/x86_64-unknown-linux-gnu/4.9.2/../../../../lib/libc.a(gconv_open.o)
                                         0x48 (size before relaxing)
 .eh_frame      0x00000000004aaac8       0x78 /usr/lib/gcc/x86_64-unknown-linux-gnu/4.9.2/../../../../lib/libc.a(gconv.o)
                                         0x90 (size before relaxing)
 .eh_frame      0x00000000004aab40       0x40 /usr/lib/gcc/x86_64-unknown-linux-gnu/4.9.2/../../../../lib/libc.a(gconv_close.o)
                                         0x58 (size before relaxing)
 .eh_frame      0x00000000004aab80      0x2a8 /usr/lib/gcc/x86_64-unknown-linux-gnu/4.9.2/../../../../lib/libc.a(gconv_db.o)
                                        0x2a0 (size before relaxing)
 .eh_frame      0x00000000004aae28      0x1a0 /usr/lib/gcc/x86_64-unknown-linux-gnu/4.9.2/../../../../lib/libc.a(gconv_conf.o)
                                        0x1a8 (size before relaxing)
 .eh_frame      0x00000000004aafc8       0x38 /usr/lib/gcc/x86_64-unknown-linux-gnu/4.9.2/../../../../lib/libc.a(gconv_builtin.o)
                                         0x50 (size before relaxing)
 .eh_frame      0x00000000004ab000      0x788 /usr/lib/gcc/x86_64-unknown-linux-gnu/4.9.2/../../../../lib/libc.a(gconv_simple.o)
                                        0x790 (size before relaxing)
 .eh_frame      0x00000000004ab788       0x70 /usr/lib/gcc/x86_64-unknown-linux-gnu/4.9.2/../../../../lib/libc.a(gconv_trans.o)
                                         0x88 (size before relaxing)
 .eh_frame      0x00000000004ab7f8      0x1b0 /usr/lib/gcc/x86_64-unknown-linux-gnu/4.9.2/../../../../lib/libc.a(gconv_cache.o)
 .eh_frame      0x00000000004ab9a8       0xf0 /usr/lib/gcc/x86_64-unknown-linux-gnu/4.9.2/../../../../lib/libc.a(gconv_dl.o)
                                        0x100 (size before relaxing)
 .eh_frame      0x00000000004aba98      0x158 /usr/lib/gcc/x86_64-unknown-linux-gnu/4.9.2/../../../../lib/libc.a(setlocale.o)
                                        0x168 (size before relaxing)
 .eh_frame      0x00000000004abbf0       0x68 /usr/lib/gcc/x86_64-unknown-linux-gnu/4.9.2/../../../../lib/libc.a(findlocale.o)
                                         0x78 (size before relaxing)
 .eh_frame      0x00000000004abc58       0xa8 /usr/lib/gcc/x86_64-unknown-linux-gnu/4.9.2/../../../../lib/libc.a(loadlocale.o)
                                         0xb8 (size before relaxing)
 .eh_frame      0x00000000004abd00       0x78 /usr/lib/gcc/x86_64-unknown-linux-gnu/4.9.2/../../../../lib/libc.a(loadarchive.o)
                                         0x90 (size before relaxing)
 .eh_frame      0x00000000004abd78       0x18 /usr/lib/gcc/x86_64-unknown-linux-gnu/4.9.2/../../../../lib/libc.a(lc-ctype.o)
                                         0x30 (size before relaxing)
 .eh_frame      0x00000000004abd90       0x18 /usr/lib/gcc/x86_64-unknown-linux-gnu/4.9.2/../../../../lib/libc.a(localename.o)
                                         0x30 (size before relaxing)
 .eh_frame      0x00000000004abda8       0x60 /usr/lib/gcc/x86_64-unknown-linux-gnu/4.9.2/../../../../lib/libc.a(ctype-info.o)
                                         0x68 (size before relaxing)
 .eh_frame      0x00000000004abe08       0x18 /usr/lib/gcc/x86_64-unknown-linux-gnu/4.9.2/../../../../lib/libc.a(setfpucw.o)
                                         0x30 (size before relaxing)
 .eh_frame      0x00000000004abe20       0x18 /usr/lib/gcc/x86_64-unknown-linux-gnu/4.9.2/../../../../lib/libc.a(setjmp.o)
                                         0x30 (size before relaxing)
 .eh_frame      0x00000000004abe38       0x20 /usr/lib/gcc/x86_64-unknown-linux-gnu/4.9.2/../../../../lib/libc.a(sigjmp.o)
                                         0x38 (size before relaxing)
 .eh_frame      0x00000000004abe58       0xd0 /usr/lib/gcc/x86_64-unknown-linux-gnu/4.9.2/../../../../lib/libc.a(sigaction.o)
                                         0xe8 (size before relaxing)
 .eh_frame      0x00000000004abf28       0x18 /usr/lib/gcc/x86_64-unknown-linux-gnu/4.9.2/../../../../lib/libc.a(sigprocmask.o)
                                         0x30 (size before relaxing)
 .eh_frame      0x00000000004abf40       0x60 /usr/lib/gcc/x86_64-unknown-linux-gnu/4.9.2/../../../../lib/libc.a(qsort.o)
                                         0x78 (size before relaxing)
 .eh_frame      0x00000000004abfa0      0x120 /usr/lib/gcc/x86_64-unknown-linux-gnu/4.9.2/../../../../lib/libc.a(setenv.o)
                                        0x138 (size before relaxing)
 .eh_frame      0x00000000004ac0c0       0x18 /usr/lib/gcc/x86_64-unknown-linux-gnu/4.9.2/../../../../lib/libc.a(secure-getenv.o)
                                         0x30 (size before relaxing)
 .eh_frame      0x00000000004ac0d8       0x30 /usr/lib/gcc/x86_64-unknown-linux-gnu/4.9.2/../../../../lib/libc.a(strtol.o)
                                         0x40 (size before relaxing)
 .eh_frame      0x00000000004ac108       0x98 /usr/lib/gcc/x86_64-unknown-linux-gnu/4.9.2/../../../../lib/libc.a(strtol_l.o)
                                         0xb0 (size before relaxing)
 .eh_frame      0x00000000004ac1a0       0x38 /usr/lib/gcc/x86_64-unknown-linux-gnu/4.9.2/../../../../lib/libc.a(_itoa.o)
                                         0x50 (size before relaxing)
 .eh_frame      0x00000000004ac1d8      0x160 /usr/lib/gcc/x86_64-unknown-linux-gnu/4.9.2/../../../../lib/libc.a(vfprintf.o)
                                        0x168 (size before relaxing)
 .eh_frame      0x00000000004ac338       0xe8 /usr/lib/gcc/x86_64-unknown-linux-gnu/4.9.2/../../../../lib/libc.a(printf_fp.o)
                                         0xf8 (size before relaxing)
 .eh_frame      0x00000000004ac420       0x60 /usr/lib/gcc/x86_64-unknown-linux-gnu/4.9.2/../../../../lib/libc.a(reg-printf.o)
                                         0x70 (size before relaxing)
 .eh_frame      0x00000000004ac480       0x68 /usr/lib/gcc/x86_64-unknown-linux-gnu/4.9.2/../../../../lib/libc.a(printf_fphex.o)
                                         0x80 (size before relaxing)
 .eh_frame      0x00000000004ac4e8      0x110 /usr/lib/gcc/x86_64-unknown-linux-gnu/4.9.2/../../../../lib/libc.a(reg-modifier.o)
                                        0x120 (size before relaxing)
 .eh_frame      0x00000000004ac5f8       0x30 /usr/lib/gcc/x86_64-unknown-linux-gnu/4.9.2/../../../../lib/libc.a(reg-type.o)
                                         0x48 (size before relaxing)
 .eh_frame      0x00000000004ac628       0x20 /usr/lib/gcc/x86_64-unknown-linux-gnu/4.9.2/../../../../lib/libc.a(fprintf.o)
                                         0x38 (size before relaxing)
 .eh_frame      0x00000000004ac648      0x170 /usr/lib/gcc/x86_64-unknown-linux-gnu/4.9.2/../../../../lib/libc.a(vfwprintf.o)
                                        0x178 (size before relaxing)
 .eh_frame      0x00000000004ac7b8       0x20 /usr/lib/gcc/x86_64-unknown-linux-gnu/4.9.2/../../../../lib/libc.a(sscanf.o)
                                         0x38 (size before relaxing)
 .eh_frame      0x00000000004ac7d8       0x18 /usr/lib/gcc/x86_64-unknown-linux-gnu/4.9.2/../../../../lib/libc.a(funlockfile.o)
                                         0x30 (size before relaxing)
 .eh_frame      0x00000000004ac7f0       0x68 /usr/lib/gcc/x86_64-unknown-linux-gnu/4.9.2/../../../../lib/libc.a(printf-parsemb.o)
                                         0x78 (size before relaxing)
 .eh_frame      0x00000000004ac858       0x68 /usr/lib/gcc/x86_64-unknown-linux-gnu/4.9.2/../../../../lib/libc.a(printf-parsewc.o)
                                         0x78 (size before relaxing)
 .eh_frame      0x00000000004ac8c0       0x38 /usr/lib/gcc/x86_64-unknown-linux-gnu/4.9.2/../../../../lib/libc.a(filedoalloc.o)
                                         0x50 (size before relaxing)
 .eh_frame      0x00000000004ac8f8       0x48 /usr/lib/gcc/x86_64-unknown-linux-gnu/4.9.2/../../../../lib/libc.a(iofputs.o)
                                         0x68 (size before relaxing)
 .eh_frame      0x00000000004ac940       0x30 /usr/lib/gcc/x86_64-unknown-linux-gnu/4.9.2/../../../../lib/libc.a(wfiledoalloc.o)
                                         0x48 (size before relaxing)
 .eh_frame      0x00000000004ac970       0x80 /usr/lib/gcc/x86_64-unknown-linux-gnu/4.9.2/../../../../lib/libc.a(iofwrite.o)
                                         0xa0 (size before relaxing)
 .eh_frame      0x00000000004ac9f0       0x88 /usr/lib/gcc/x86_64-unknown-linux-gnu/4.9.2/../../../../lib/libc.a(iogetdelim.o)
                                         0xa8 (size before relaxing)
 .eh_frame      0x00000000004aca78       0x80 /usr/lib/gcc/x86_64-unknown-linux-gnu/4.9.2/../../../../lib/libc.a(iogetline.o)
                                         0x90 (size before relaxing)
 .eh_frame      0x00000000004acaf8       0x50 /usr/lib/gcc/x86_64-unknown-linux-gnu/4.9.2/../../../../lib/libc.a(iopadn.o)
                                         0x68 (size before relaxing)
 .eh_frame      0x00000000004acb48       0x38 /usr/lib/gcc/x86_64-unknown-linux-gnu/4.9.2/../../../../lib/libc.a(iovsscanf.o)
                                         0x50 (size before relaxing)
 .eh_frame      0x00000000004acb80       0x50 /usr/lib/gcc/x86_64-unknown-linux-gnu/4.9.2/../../../../lib/libc.a(iowpadn.o)
                                         0x68 (size before relaxing)
 .eh_frame      0x00000000004acbd0      0x3e0 /usr/lib/gcc/x86_64-unknown-linux-gnu/4.9.2/../../../../lib/libc.a(wgenops.o)
                                        0x3b8 (size before relaxing)
 .eh_frame      0x00000000004acfb0      0x208 /usr/lib/gcc/x86_64-unknown-linux-gnu/4.9.2/../../../../lib/libc.a(iofwide.o)
                                        0x210 (size before relaxing)
 .eh_frame      0x00000000004ad1b8       0x38 /usr/lib/gcc/x86_64-unknown-linux-gnu/4.9.2/../../../../lib/libc.a(strndup.o)
                                         0x50 (size before relaxing)
 .eh_frame      0x00000000004ad1f0       0x68 /usr/lib/gcc/x86_64-unknown-linux-gnu/4.9.2/../../../../lib/libc.a(_strerror.o)
                                         0x80 (size before relaxing)
 .eh_frame      0x00000000004ad258       0x18 /usr/lib/gcc/x86_64-unknown-linux-gnu/4.9.2/../../../../lib/libc.a(strnlen.o)
                                         0x30 (size before relaxing)
 .eh_frame      0x00000000004ad270       0x18 /usr/lib/gcc/x86_64-unknown-linux-gnu/4.9.2/../../../../lib/libc.a(strrchr.o)
                                         0x30 (size before relaxing)
 .eh_frame      0x00000000004ad288      0x128 /usr/lib/gcc/x86_64-unknown-linux-gnu/4.9.2/../../../../lib/libc.a(memmem.o)
                                        0x140 (size before relaxing)
 .eh_frame      0x00000000004ad3b0       0x50 /usr/lib/gcc/x86_64-unknown-linux-gnu/4.9.2/../../../../lib/libc.a(argz-ctsep.o)
                                         0x68 (size before relaxing)
 .eh_frame      0x00000000004ad400       0x40 /usr/lib/gcc/x86_64-unknown-linux-gnu/4.9.2/../../../../lib/libc.a(argz-addsep.o)
                                         0x58 (size before relaxing)
 .eh_frame      0x00000000004ad440       0x18 /usr/lib/gcc/x86_64-unknown-linux-gnu/4.9.2/../../../../lib/libc.a(wcslen.o)
                                         0x30 (size before relaxing)
 .eh_frame      0x00000000004ad458       0x18 /usr/lib/gcc/x86_64-unknown-linux-gnu/4.9.2/../../../../lib/libc.a(wmemcpy.o)
                                         0x30 (size before relaxing)
 .eh_frame      0x00000000004ad470       0x18 /usr/lib/gcc/x86_64-unknown-linux-gnu/4.9.2/../../../../lib/libc.a(wmemmove.o)
                                         0x30 (size before relaxing)
 .eh_frame      0x00000000004ad488       0x18 /usr/lib/gcc/x86_64-unknown-linux-gnu/4.9.2/../../../../lib/libc.a(wmemset.o)
                                         0x30 (size before relaxing)
 .eh_frame      0x00000000004ad4a0       0x50 /usr/lib/gcc/x86_64-unknown-linux-gnu/4.9.2/../../../../lib/libc.a(btowc.o)
                                         0x68 (size before relaxing)
 .eh_frame      0x00000000004ad4f0       0x68 /usr/lib/gcc/x86_64-unknown-linux-gnu/4.9.2/../../../../lib/libc.a(wcrtomb.o)
                                         0x80 (size before relaxing)
 .eh_frame      0x00000000004ad558       0x18 /usr/lib/gcc/x86_64-unknown-linux-gnu/4.9.2/../../../../lib/libc.a(mbsrtowcs.o)
                                         0x30 (size before relaxing)
 .eh_frame      0x00000000004ad570       0x70 /usr/lib/gcc/x86_64-unknown-linux-gnu/4.9.2/../../../../lib/libc.a(wcsrtombs.o)
                                         0x88 (size before relaxing)
 .eh_frame      0x00000000004ad5e0       0x18 /usr/lib/gcc/x86_64-unknown-linux-gnu/4.9.2/../../../../lib/libc.a(wcsnlen.o)
                                         0x30 (size before relaxing)
 .eh_frame      0x00000000004ad5f8       0x18 /usr/lib/gcc/x86_64-unknown-linux-gnu/4.9.2/../../../../lib/libc.a(wcschrnul.o)
                                         0x30 (size before relaxing)
 .eh_frame      0x00000000004ad610       0x70 /usr/lib/gcc/x86_64-unknown-linux-gnu/4.9.2/../../../../lib/libc.a(mbsrtowcs_l.o)
                                         0x88 (size before relaxing)
 .eh_frame      0x00000000004ad680       0x18 /usr/lib/gcc/x86_64-unknown-linux-gnu/4.9.2/../../../../lib/libc.a(time.o)
                                         0x30 (size before relaxing)
 .eh_frame      0x00000000004ad698      0x210 /usr/lib/gcc/x86_64-unknown-linux-gnu/4.9.2/../../../../lib/libc.a(tzset.o)
                                        0x218 (size before relaxing)
 .eh_frame      0x00000000004ad8a8      0x120 /usr/lib/gcc/x86_64-unknown-linux-gnu/4.9.2/../../../../lib/libc.a(tzfile.o)
                                        0x128 (size before relaxing)
 .eh_frame      0x00000000004ad9c8       0x70 /usr/lib/gcc/x86_64-unknown-linux-gnu/4.9.2/../../../../lib/libc.a(opendir.o)
                                         0x80 (size before relaxing)
 .eh_frame      0x00000000004ada38       0x20 /usr/lib/gcc/x86_64-unknown-linux-gnu/4.9.2/../../../../lib/libc.a(closedir.o)
                                         0x38 (size before relaxing)
 .eh_frame      0x00000000004ada58       0x50 /usr/lib/gcc/x86_64-unknown-linux-gnu/4.9.2/../../../../lib/libc.a(readdir.o)
                                         0x68 (size before relaxing)
 .eh_frame      0x00000000004adaa8       0x28 /usr/lib/gcc/x86_64-unknown-linux-gnu/4.9.2/../../../../lib/libc.a(rewinddir.o)
                                         0x40 (size before relaxing)
 .eh_frame      0x00000000004adad0       0x50 /usr/lib/gcc/x86_64-unknown-linux-gnu/4.9.2/../../../../lib/libc.a(getdents.o)
                                         0x68 (size before relaxing)
 .eh_frame      0x00000000004adb20       0x30 /usr/lib/gcc/x86_64-unknown-linux-gnu/4.9.2/../../../../lib/libc.a(fdopendir.o)
                                         0x48 (size before relaxing)
 .eh_frame      0x00000000004adb50       0x18 /usr/lib/gcc/x86_64-unknown-linux-gnu/4.9.2/../../../../lib/libc.a(uname.o)
                                         0x30 (size before relaxing)
 .eh_frame      0x00000000004adb68       0x18 /usr/lib/gcc/x86_64-unknown-linux-gnu/4.9.2/../../../../lib/libc.a(getuid.o)
                                         0x30 (size before relaxing)
 .eh_frame      0x00000000004adb80       0x18 /usr/lib/gcc/x86_64-unknown-linux-gnu/4.9.2/../../../../lib/libc.a(geteuid.o)
                                         0x30 (size before relaxing)
 .eh_frame      0x00000000004adb98       0x18 /usr/lib/gcc/x86_64-unknown-linux-gnu/4.9.2/../../../../lib/libc.a(getgid.o)
                                         0x30 (size before relaxing)
 .eh_frame      0x00000000004adbb0       0x18 /usr/lib/gcc/x86_64-unknown-linux-gnu/4.9.2/../../../../lib/libc.a(getegid.o)
                                         0x30 (size before relaxing)
 .eh_frame      0x00000000004adbc8       0x18 /usr/lib/gcc/x86_64-unknown-linux-gnu/4.9.2/../../../../lib/libc.a(lxstat.o)
                                         0x30 (size before relaxing)
 .eh_frame      0x00000000004adbe0       0x18 /usr/lib/gcc/x86_64-unknown-linux-gnu/4.9.2/../../../../lib/libc.a(fxstatat.o)
                                         0x30 (size before relaxing)
 .eh_frame      0x00000000004adbf8       0x60 /usr/lib/gcc/x86_64-unknown-linux-gnu/4.9.2/../../../../lib/libc.a(openat.o)
                                         0x70 (size before relaxing)
 .eh_frame      0x00000000004adc58       0x18 /usr/lib/gcc/x86_64-unknown-linux-gnu/4.9.2/../../../../lib/libc.a(access.o)
                                         0x30 (size before relaxing)
 .eh_frame      0x00000000004adc70       0x18 /usr/lib/gcc/x86_64-unknown-linux-gnu/4.9.2/../../../../lib/libc.a(isatty.o)
                                         0x30 (size before relaxing)
 .eh_frame      0x00000000004adc88       0x18 /usr/lib/gcc/x86_64-unknown-linux-gnu/4.9.2/../../../../lib/libc.a(tcgetattr.o)
                                         0x30 (size before relaxing)
 .eh_frame      0x00000000004adca0       0x18 /usr/lib/gcc/x86_64-unknown-linux-gnu/4.9.2/../../../../lib/libc.a(brk.o)
                                         0x30 (size before relaxing)
 .eh_frame      0x00000000004adcb8       0x18 /usr/lib/gcc/x86_64-unknown-linux-gnu/4.9.2/../../../../lib/libc.a(writev.o)
                                         0x30 (size before relaxing)
 .eh_frame      0x00000000004adcd0       0x50 /usr/lib/gcc/x86_64-unknown-linux-gnu/4.9.2/../../../../lib/libc.a(wctrans.o)
                                         0x68 (size before relaxing)
 .eh_frame      0x00000000004add20       0x18 /usr/lib/gcc/x86_64-unknown-linux-gnu/4.9.2/../../../../lib/libc.a(towctrans.o)
                                         0x30 (size before relaxing)
 .eh_frame      0x00000000004add38       0x58 /usr/lib/gcc/x86_64-unknown-linux-gnu/4.9.2/../../../../lib/libc.a(readonly-area.o)
                                         0x70 (size before relaxing)
 .eh_frame      0x00000000004add90      0x4f8 /usr/lib/gcc/x86_64-unknown-linux-gnu/4.9.2/../../../../lib/libc.a(dl-load.o)
                                        0x4f0 (size before relaxing)
 .eh_frame      0x00000000004ae288      0x120 /usr/lib/gcc/x86_64-unknown-linux-gnu/4.9.2/../../../../lib/libc.a(dl-lookup.o)
                                        0x138 (size before relaxing)
 .eh_frame      0x00000000004ae3a8       0x88 /usr/lib/gcc/x86_64-unknown-linux-gnu/4.9.2/../../../../lib/libc.a(dl-object.o)
                                         0xa0 (size before relaxing)
 .eh_frame      0x00000000004ae430       0xe0 /usr/lib/gcc/x86_64-unknown-linux-gnu/4.9.2/../../../../lib/libc.a(dl-reloc.o)
                                         0xf8 (size before relaxing)
 .eh_frame      0x00000000004ae510       0x30 /usr/lib/gcc/x86_64-unknown-linux-gnu/4.9.2/../../../../lib/libc.a(dl-hwcaps.o)
                                         0x48 (size before relaxing)
 .eh_frame      0x00000000004ae540      0x108 /usr/lib/gcc/x86_64-unknown-linux-gnu/4.9.2/../../../../lib/libc.a(dl-error.o)
                                        0x118 (size before relaxing)
 .eh_frame      0x00000000004ae648      0x120 /usr/lib/gcc/x86_64-unknown-linux-gnu/4.9.2/../../../../lib/libc.a(dl-misc.o)
 .eh_frame      0x00000000004ae768      0x1e8 /usr/lib/gcc/x86_64-unknown-linux-gnu/4.9.2/../../../../lib/libc.a(dl-tls.o)
 .eh_frame      0x00000000004ae950       0x58 /usr/lib/gcc/x86_64-unknown-linux-gnu/4.9.2/../../../../lib/libc.a(dl-origin.o)
                                         0x70 (size before relaxing)
 .eh_frame      0x00000000004ae9a8       0x30 /usr/lib/gcc/x86_64-unknown-linux-gnu/4.9.2/../../../../lib/libc.a(dl-scope.o)
                                         0x48 (size before relaxing)
 .eh_frame      0x00000000004ae9d8       0x28 /usr/lib/gcc/x86_64-unknown-linux-gnu/4.9.2/../../../../lib/libc.a(dl-execstack.o)
                                         0x40 (size before relaxing)
 .eh_frame      0x00000000004aea00      0x128 /usr/lib/gcc/x86_64-unknown-linux-gnu/4.9.2/../../../../lib/libc.a(dl-open.o)
                                        0x138 (size before relaxing)
 .eh_frame      0x00000000004aeb28       0xb8 /usr/lib/gcc/x86_64-unknown-linux-gnu/4.9.2/../../../../lib/libc.a(dl-close.o)
                                         0xd0 (size before relaxing)
 .eh_frame      0x00000000004aebe0       0xa8 /usr/lib/gcc/x86_64-unknown-linux-gnu/4.9.2/../../../../lib/libc.a(dl-trampoline.o)
 .eh_frame      0x00000000004aec88       0x68 /usr/lib/gcc/x86_64-unknown-linux-gnu/4.9.2/../../../../lib/libc.a(dl-cache.o)
                                         0x80 (size before relaxing)
 .eh_frame      0x00000000004aecf0       0x30 /usr/lib/gcc/x86_64-unknown-linux-gnu/4.9.2/../../../../lib/libc.a(dl-profstub.o)
                                         0x40 (size before relaxing)
 .eh_frame      0x00000000004aed20      0x198 /usr/lib/gcc/x86_64-unknown-linux-gnu/4.9.2/../../../../lib/libc.a(dl-libc.o)
                                        0x1a8 (size before relaxing)
 .eh_frame      0x00000000004aeeb8       0x18 /usr/lib/gcc/x86_64-unknown-linux-gnu/4.9.2/../../../../lib/libc.a(dl-tsd.o)
                                         0x30 (size before relaxing)
 .eh_frame      0x00000000004aeed0       0x88 /usr/lib/gcc/x86_64-unknown-linux-gnu/4.9.2/../../../../lib/libc.a(tlsdesc.o)
                                         0xa0 (size before relaxing)
 .eh_frame      0x00000000004aef58       0x68 /usr/lib/gcc/x86_64-unknown-linux-gnu/4.9.2/../../../../lib/libc.a(dl-tlsdesc.o)
                                         0x78 (size before relaxing)
 .eh_frame      0x00000000004aefc0       0x18 /usr/lib/gcc/x86_64-unknown-linux-gnu/4.9.2/../../../../lib/libc.a(s_isinf.o)
                                         0x30 (size before relaxing)
 .eh_frame      0x00000000004aefd8       0x18 /usr/lib/gcc/x86_64-unknown-linux-gnu/4.9.2/../../../../lib/libc.a(s_isnan.o)
                                         0x30 (size before relaxing)
 .eh_frame      0x00000000004aeff0       0x18 /usr/lib/gcc/x86_64-unknown-linux-gnu/4.9.2/../../../../lib/libc.a(s_isinfl.o)
                                         0x30 (size before relaxing)
 .eh_frame      0x00000000004af008       0x18 /usr/lib/gcc/x86_64-unknown-linux-gnu/4.9.2/../../../../lib/libc.a(s_isnanl.o)
                                         0x30 (size before relaxing)
 .eh_frame      0x00000000004af020       0x30 /usr/lib/gcc/x86_64-unknown-linux-gnu/4.9.2/../../../../lib/libc.a(__longjmp.o)
                                         0x48 (size before relaxing)
 .eh_frame      0x00000000004af050       0x18 /usr/lib/gcc/x86_64-unknown-linux-gnu/4.9.2/../../../../lib/libc.a(cmp.o)
                                         0x30 (size before relaxing)
 .eh_frame      0x00000000004af068       0x98 /usr/lib/gcc/x86_64-unknown-linux-gnu/4.9.2/../../../../lib/libc.a(divrem.o)
                                         0xb0 (size before relaxing)
 .eh_frame      0x00000000004af100       0x18 /usr/lib/gcc/x86_64-unknown-linux-gnu/4.9.2/../../../../lib/libc.a(lshift.o)
                                         0x30 (size before relaxing)
 .eh_frame      0x00000000004af118       0x18 /usr/lib/gcc/x86_64-unknown-linux-gnu/4.9.2/../../../../lib/libc.a(rshift.o)
                                         0x30 (size before relaxing)
 .eh_frame      0x00000000004af130       0x30 /usr/lib/gcc/x86_64-unknown-linux-gnu/4.9.2/../../../../lib/libc.a(mul.o)
                                         0x48 (size before relaxing)
 .eh_frame      0x00000000004af160       0x20 /usr/lib/gcc/x86_64-unknown-linux-gnu/4.9.2/../../../../lib/libc.a(mul_1.o)
                                         0x38 (size before relaxing)
 .eh_frame      0x00000000004af180      0x168 /usr/lib/gcc/x86_64-unknown-linux-gnu/4.9.2/../../../../lib/libc.a(mul_n.o)
                                        0x170 (size before relaxing)
 .eh_frame      0x00000000004af2e8       0x18 /usr/lib/gcc/x86_64-unknown-linux-gnu/4.9.2/../../../../lib/libc.a(sub_n.o)
                                         0x30 (size before relaxing)
 .eh_frame      0x00000000004af300       0x18 /usr/lib/gcc/x86_64-unknown-linux-gnu/4.9.2/../../../../lib/libc.a(submul_1.o)
                                         0x30 (size before relaxing)
 .eh_frame      0x00000000004af318       0x18 /usr/lib/gcc/x86_64-unknown-linux-gnu/4.9.2/../../../../lib/libc.a(dbl2mpn.o)
                                         0x30 (size before relaxing)
 .eh_frame      0x00000000004af330       0x18 /usr/lib/gcc/x86_64-unknown-linux-gnu/4.9.2/../../../../lib/libc.a(ldbl2mpn.o)
                                         0x30 (size before relaxing)
 .eh_frame      0x00000000004af348       0x58 /usr/lib/gcc/x86_64-unknown-linux-gnu/4.9.2/../../../../lib/libc.a(vfscanf.o)
                                         0x70 (size before relaxing)
 .eh_frame      0x00000000004af3a0       0x18 /usr/lib/gcc/x86_64-unknown-linux-gnu/4.9.2/../../../../lib/libc.a(fileno.o)
                                         0x30 (size before relaxing)
 .eh_frame      0x00000000004af3b8       0x48 /usr/lib/gcc/x86_64-unknown-linux-gnu/4.9.2/../../../../lib/libc.a(fseek.o)
                                         0x68 (size before relaxing)
 .eh_frame      0x00000000004af400       0x48 /usr/lib/gcc/x86_64-unknown-linux-gnu/4.9.2/../../../../lib/libc.a(ftello.o)
                                         0x68 (size before relaxing)
 .eh_frame      0x00000000004af448       0x38 /usr/lib/gcc/x86_64-unknown-linux-gnu/4.9.2/../../../../lib/libc.a(iofread_u.o)
                                         0x50 (size before relaxing)
 .eh_frame      0x00000000004af480       0xe8 /usr/lib/gcc/x86_64-unknown-linux-gnu/4.9.2/../../../../lib/libc.a(sdlerror.o)
                                         0xf8 (size before relaxing)
 .eh_frame      0x00000000004af568       0x18 /usr/lib/gcc/x86_64-unknown-linux-gnu/4.9.2/../../../../lib/libc.a(sdladdr.o)
                                         0x30 (size before relaxing)
 .eh_frame      0x00000000004af580       0x18 /usr/lib/gcc/x86_64-unknown-linux-gnu/4.9.2/../../../../lib/libc.a(sdladdr1.o)
                                         0x30 (size before relaxing)
 .eh_frame      0x00000000004af598       0x58 /usr/lib/gcc/x86_64-unknown-linux-gnu/4.9.2/../../../../lib/libc.a(sdlinfo.o)
                                         0x70 (size before relaxing)
 .eh_frame      0x00000000004af5f0       0x40 /usr/lib/gcc/x86_64-unknown-linux-gnu/4.9.2/../../../../lib/libc.a(sdlmopen.o)
                                         0x58 (size before relaxing)
 .eh_frame      0x00000000004af630       0x48 /usr/lib/gcc/x86_64-unknown-linux-gnu/4.9.2/../../../../lib/libc.a(strerror.o)
                                         0x60 (size before relaxing)
 .eh_frame      0x00000000004af678       0x38 /usr/lib/gcc/x86_64-unknown-linux-gnu/4.9.2/../../../../lib/libc.a(strsep.o)
                                         0x50 (size before relaxing)
 .eh_frame      0x00000000004af6b0       0x18 /usr/lib/gcc/x86_64-unknown-linux-gnu/4.9.2/../../../../lib/libc.a(mbrlen.o)
                                         0x30 (size before relaxing)
 .eh_frame      0x00000000004af6c8       0x80 /usr/lib/gcc/x86_64-unknown-linux-gnu/4.9.2/../../../../lib/libc.a(mbrtowc.o)
                                         0x98 (size before relaxing)
 .eh_frame      0x00000000004af748       0x58 /usr/lib/gcc/x86_64-unknown-linux-gnu/4.9.2/../../../../lib/libc.a(offtime.o)
                                         0x70 (size before relaxing)
 .eh_frame      0x00000000004af7a0       0x30 /usr/lib/gcc/x86_64-unknown-linux-gnu/4.9.2/../../../../lib/libc.a(localtime.o)
                                         0x40 (size before relaxing)
 .eh_frame      0x00000000004af7d0      0x170 /usr/lib/gcc/x86_64-unknown-linux-gnu/4.9.2/../../../../lib/libc.a(mktime.o)
                                        0x180 (size before relaxing)
 .eh_frame      0x00000000004af940       0x18 /usr/lib/gcc/x86_64-unknown-linux-gnu/4.9.2/../../../../lib/libc.a(getpid.o)
                                         0x30 (size before relaxing)
 .eh_frame      0x00000000004af958       0x80 /usr/lib/gcc/x86_64-unknown-linux-gnu/4.9.2/../../../../lib/libc.a(dl-deps.o)
                                         0x90 (size before relaxing)
 .eh_frame      0x00000000004af9d8       0x90 /usr/lib/gcc/x86_64-unknown-linux-gnu/4.9.2/../../../../lib/libc.a(dl-runtime.o)
                                         0xa8 (size before relaxing)
 .eh_frame      0x00000000004afa68       0x90 /usr/lib/gcc/x86_64-unknown-linux-gnu/4.9.2/../../../../lib/libc.a(dl-init.o)
                                         0xa8 (size before relaxing)
 .eh_frame      0x00000000004afaf8       0x60 /usr/lib/gcc/x86_64-unknown-linux-gnu/4.9.2/../../../../lib/libc.a(dl-fini.o)
                                         0x78 (size before relaxing)
 .eh_frame      0x00000000004afb58       0xe0 /usr/lib/gcc/x86_64-unknown-linux-gnu/4.9.2/../../../../lib/libc.a(dl-version.o)
                                         0xf8 (size before relaxing)
 .eh_frame      0x00000000004afc38       0x68 /usr/lib/gcc/x86_64-unknown-linux-gnu/4.9.2/../../../../lib/libc.a(dl-profile.o)
                                         0x80 (size before relaxing)
 .eh_frame      0x00000000004afca0       0x30 /usr/lib/gcc/x86_64-unknown-linux-gnu/4.9.2/../../../../lib/libc.a(strtof.o)
                                         0x40 (size before relaxing)
 .eh_frame      0x00000000004afcd0       0x30 /usr/lib/gcc/x86_64-unknown-linux-gnu/4.9.2/../../../../lib/libc.a(strtod.o)
                                         0x40 (size before relaxing)
 .eh_frame      0x00000000004afd00       0x30 /usr/lib/gcc/x86_64-unknown-linux-gnu/4.9.2/../../../../lib/libc.a(strtold.o)
                                         0x40 (size before relaxing)
 .eh_frame      0x00000000004afd30      0x1a8 /usr/lib/gcc/x86_64-unknown-linux-gnu/4.9.2/../../../../lib/libc.a(strtof_l.o)
                                        0x1b0 (size before relaxing)
 .eh_frame      0x00000000004afed8      0x1a8 /usr/lib/gcc/x86_64-unknown-linux-gnu/4.9.2/../../../../lib/libc.a(strtod_l.o)
                                        0x1b0 (size before relaxing)
 .eh_frame      0x00000000004b0080      0x1a8 /usr/lib/gcc/x86_64-unknown-linux-gnu/4.9.2/../../../../lib/libc.a(strtold_l.o)
                                        0x1b0 (size before relaxing)
 .eh_frame      0x00000000004b0228       0x18 /usr/lib/gcc/x86_64-unknown-linux-gnu/4.9.2/../../../../lib/libc.a(add_n.o)
                                         0x30 (size before relaxing)
 .eh_frame      0x00000000004b0240       0x18 /usr/lib/gcc/x86_64-unknown-linux-gnu/4.9.2/../../../../lib/libc.a(addmul_1.o)
                                         0x30 (size before relaxing)
 .eh_frame      0x00000000004b0258       0x18 /usr/lib/gcc/x86_64-unknown-linux-gnu/4.9.2/../../../../lib/libc.a(mpn2flt.o)
                                         0x30 (size before relaxing)
 .eh_frame      0x00000000004b0270       0x18 /usr/lib/gcc/x86_64-unknown-linux-gnu/4.9.2/../../../../lib/libc.a(mpn2dbl.o)
                                         0x30 (size before relaxing)
 .eh_frame      0x00000000004b0288       0x18 /usr/lib/gcc/x86_64-unknown-linux-gnu/4.9.2/../../../../lib/libc.a(mpn2ldbl.o)
                                         0x30 (size before relaxing)
 .eh_frame      0x00000000004b02a0       0x78 /usr/lib/gcc/x86_64-unknown-linux-gnu/4.9.2/../../../../lib/libc.a(ioseekoff.o)
                                         0xb0 (size before relaxing)
 .eh_frame      0x00000000004b0318       0x40 /usr/lib/gcc/x86_64-unknown-linux-gnu/4.9.2/../../../../lib/libc.a(sdlopen.o)
                                         0x58 (size before relaxing)
 .eh_frame      0x00000000004b0358       0x30 /usr/lib/gcc/x86_64-unknown-linux-gnu/4.9.2/../../../../lib/libc.a(sdlclose.o)
                                         0x48 (size before relaxing)
 .eh_frame      0x00000000004b0388       0x48 /usr/lib/gcc/x86_64-unknown-linux-gnu/4.9.2/../../../../lib/libc.a(sdlsym.o)
                                         0x58 (size before relaxing)
 .eh_frame      0x00000000004b03d0       0x48 /usr/lib/gcc/x86_64-unknown-linux-gnu/4.9.2/../../../../lib/libc.a(sdlvsym.o)
                                         0x58 (size before relaxing)
 .eh_frame      0x00000000004b0418       0x20 /usr/lib/gcc/x86_64-unknown-linux-gnu/4.9.2/../../../../lib/libc.a(strpbrk.o)
                                         0x38 (size before relaxing)
 .eh_frame      0x00000000004b0438       0xc0 /usr/lib/gcc/x86_64-unknown-linux-gnu/4.9.2/../../../../lib/libc.a(strncase_l.o)
                                         0xb8 (size before relaxing)
 .eh_frame      0x00000000004b04f8       0x30 /usr/lib/gcc/x86_64-unknown-linux-gnu/4.9.2/../../../../lib/libc.a(strncase_l-ssse3.o)
                                         0x40 (size before relaxing)
 .eh_frame      0x00000000004b0528       0x18 /usr/lib/gcc/x86_64-unknown-linux-gnu/4.9.2/../../../../lib/libc.a(strncase_l-nonascii.o)
                                         0x30 (size before relaxing)
 .eh_frame      0x00000000004b0540       0x68 /usr/lib/gcc/x86_64-unknown-linux-gnu/4.9.2/../../../../lib/libc.a(profil.o)
                                         0x80 (size before relaxing)
 .eh_frame      0x00000000004b05a8       0x18 /usr/lib/gcc/x86_64-unknown-linux-gnu/4.9.2/../../../../lib/libc.a(prof-freq.o)
                                         0x30 (size before relaxing)
 .eh_frame      0x00000000004b05c0       0x88 /usr/lib/gcc/x86_64-unknown-linux-gnu/4.9.2/../../../../lib/libc.a(dl-sym.o)
                                         0xa0 (size before relaxing)
 .eh_frame      0x00000000004b0648       0x18 /usr/lib/gcc/x86_64-unknown-linux-gnu/4.9.2/../../../../lib/libc.a(setitimer.o)
                                         0x30 (size before relaxing)
 .eh_frame      0x00000000004b0660      0x560 /usr/lib/gcc/x86_64-unknown-linux-gnu/4.9.2/libgcc_eh.a(unwind-dw2.o)
                                        0x530 (size before relaxing)
 .eh_frame      0x00000000004b0bc0      0x5b0 /usr/lib/gcc/x86_64-unknown-linux-gnu/4.9.2/libgcc_eh.a(unwind-dw2-fde-dip.o)
                                        0x588 (size before relaxing)
 .eh_frame      0x00000000004b1170       0xa8 /usr/lib/gcc/x86_64-unknown-linux-gnu/4.9.2/libgcc_eh.a(unwind-c.o)
                                         0xb8 (size before relaxing)
 .eh_frame      0x00000000004b1218       0x40 /usr/lib/gcc/x86_64-unknown-linux-gnu/4.9.2/../../../../lib/libc.a(dl-iteratephdr.o)
                                         0x58 (size before relaxing)
 .eh_frame      0x00000000004b1258        0x4 /usr/lib/gcc/x86_64-unknown-linux-gnu/4.9.2/crtend.o

.gcc_except_table
                0x00000000004b125c       0xa4
 *(.gcc_except_table .gcc_except_table.*)
 .gcc_except_table
                0x00000000004b125c       0x13 /usr/lib/gcc/x86_64-unknown-linux-gnu/4.9.2/../../../../lib/libc.a(iofclose.o)
 .gcc_except_table
                0x00000000004b126f        0xf /usr/lib/gcc/x86_64-unknown-linux-gnu/4.9.2/../../../../lib/libc.a(iofflush.o)
 .gcc_except_table
                0x00000000004b127e       0x15 /usr/lib/gcc/x86_64-unknown-linux-gnu/4.9.2/../../../../lib/libc.a(wfileops.o)
 .gcc_except_table
                0x00000000004b1293       0x14 /usr/lib/gcc/x86_64-unknown-linux-gnu/4.9.2/../../../../lib/libc.a(fileops.o)
 .gcc_except_table
                0x00000000004b12a7        0xf /usr/lib/gcc/x86_64-unknown-linux-gnu/4.9.2/../../../../lib/libc.a(iofputs.o)
 .gcc_except_table
                0x00000000004b12b6        0xf /usr/lib/gcc/x86_64-unknown-linux-gnu/4.9.2/../../../../lib/libc.a(iofwrite.o)
 .gcc_except_table
                0x00000000004b12c5       0x10 /usr/lib/gcc/x86_64-unknown-linux-gnu/4.9.2/../../../../lib/libc.a(iogetdelim.o)
 .gcc_except_table
                0x00000000004b12d5        0xf /usr/lib/gcc/x86_64-unknown-linux-gnu/4.9.2/../../../../lib/libc.a(fseek.o)
 .gcc_except_table
                0x00000000004b12e4        0xe /usr/lib/gcc/x86_64-unknown-linux-gnu/4.9.2/../../../../lib/libc.a(ftello.o)
 .gcc_except_table
                0x00000000004b12f2        0xe /usr/lib/gcc/x86_64-unknown-linux-gnu/4.9.2/../../../../lib/libc.a(ioseekoff.o)

.exception_ranges
 *(.exception_ranges .exception_ranges*)
                0x00000000004b1300                . = (ALIGN (0x200000) - ((0x200000 - .) & 0x1fffff))
                0x00000000006b1300                . = DATA_SEGMENT_ALIGN (0x200000, 0x1000)

.eh_frame
 *(.eh_frame)

.gcc_except_table
 *(.gcc_except_table .gcc_except_table.*)

.exception_ranges
 *(.exception_ranges .exception_ranges*)

.tdata          0x00000000006b1300       0x20
 *(.tdata .tdata.* .gnu.linkonce.td.*)
 .tdata         0x00000000006b1300        0x8 /usr/lib/gcc/x86_64-unknown-linux-gnu/4.9.2/../../../../lib/libc.a(lc-ctype.o)
                0x00000000006b1300                _nl_current_LC_CTYPE
 .tdata         0x00000000006b1308        0x8 /usr/lib/gcc/x86_64-unknown-linux-gnu/4.9.2/../../../../lib/libc.a(global-locale.o)
                0x00000000006b1308                __libc_tsd_LOCALE
 .tdata         0x00000000006b1310        0x8 /usr/lib/gcc/x86_64-unknown-linux-gnu/4.9.2/../../../../lib/libc.a(lc-monetary.o)
                0x00000000006b1310                _nl_current_LC_MONETARY
 .tdata         0x00000000006b1318        0x8 /usr/lib/gcc/x86_64-unknown-linux-gnu/4.9.2/../../../../lib/libc.a(lc-numeric.o)
                0x00000000006b1318                _nl_current_LC_NUMERIC

.tbss           0x00000000006b1320       0x30
 *(.tbss .tbss.* .gnu.linkonce.tb.*)
 .tbss          0x00000000006b1320        0x4 /usr/lib/gcc/x86_64-unknown-linux-gnu/4.9.2/../../../../lib/libc.a(errno.o)
                0x00000000006b1320                errno
                0x00000000006b1320                __libc_errno
 *fill*         0x00000000006b1324        0x4 
 .tbss          0x00000000006b1328        0x8 /usr/lib/gcc/x86_64-unknown-linux-gnu/4.9.2/../../../../lib/libc.a(malloc.o)
 .tbss          0x00000000006b1330       0x18 /usr/lib/gcc/x86_64-unknown-linux-gnu/4.9.2/../../../../lib/libc.a(ctype-info.o)
                0x00000000006b1330                __libc_tsd_CTYPE_TOUPPER
                0x00000000006b1338                __libc_tsd_CTYPE_TOLOWER
                0x00000000006b1340                __libc_tsd_CTYPE_B
 .tbss          0x00000000006b1348        0x8 /usr/lib/gcc/x86_64-unknown-linux-gnu/4.9.2/../../../../lib/libc.a(dl-tsd.o)
 *(.tcommon)

.preinit_array  0x00000000006b1320        0x0
                0x00000000006b1320                PROVIDE (__preinit_array_start, .)
 *(.preinit_array)
                0x00000000006b1320                PROVIDE (__preinit_array_end, .)

.init_array     0x00000000006b1320       0x10
                0x00000000006b1320                PROVIDE (__init_array_start, .)
 *(SORT(.init_array.*) SORT(.ctors.*))
 *(.init_array EXCLUDE_FILE(*crtend?.o *crtend.o *crtbegin?.o *crtbegin.o) .ctors)
 .init_array    0x00000000006b1320        0x8 /usr/lib/gcc/x86_64-unknown-linux-gnu/4.9.2/crtbeginT.o
 .init_array    0x00000000006b1328        0x8 /usr/lib/gcc/x86_64-unknown-linux-gnu/4.9.2/../../../../lib/libc.a(cacheinfo.o)
                0x00000000006b1330                PROVIDE (__init_array_end, .)

.fini_array     0x00000000006b1330       0x10
                0x00000000006b1330                PROVIDE (__fini_array_start, .)
 *(SORT(.fini_array.*) SORT(.dtors.*))
 *(.fini_array EXCLUDE_FILE(*crtend?.o *crtend.o *crtbegin?.o *crtbegin.o) .dtors)
 .fini_array    0x00000000006b1330        0x8 /usr/lib/gcc/x86_64-unknown-linux-gnu/4.9.2/crtbeginT.o
 .fini_array    0x00000000006b1338        0x8 /usr/lib/gcc/x86_64-unknown-linux-gnu/4.9.2/../../../../lib/libc.a(sdlerror.o)
                0x00000000006b1340                PROVIDE (__fini_array_end, .)

.ctors
 *crtbegin.o(.ctors)
 *crtbegin?.o(.ctors)
 *(EXCLUDE_FILE(*crtend?.o *crtend.o) .ctors)
 *(SORT(.ctors.*))
 *(.ctors)

.dtors
 *crtbegin.o(.dtors)
 *crtbegin?.o(.dtors)
 *(EXCLUDE_FILE(*crtend?.o *crtend.o) .dtors)
 *(SORT(.dtors.*))
 *(.dtors)

.jcr            0x00000000006b1340        0x8
 *(.jcr)
 .jcr           0x00000000006b1340        0x0 /usr/lib/gcc/x86_64-unknown-linux-gnu/4.9.2/crtbeginT.o
 .jcr           0x00000000006b1340        0x8 /usr/lib/gcc/x86_64-unknown-linux-gnu/4.9.2/crtend.o

.data.rel.ro    0x00000000006b1380       0xe4
 *(.data.rel.ro.local* .gnu.linkonce.d.rel.ro.local.*)
 *(.data.rel.ro .data.rel.ro.* .gnu.linkonce.d.rel.ro.*)
 .data.rel.ro   0x00000000006b1380       0x98 /usr/lib/gcc/x86_64-unknown-linux-gnu/4.9.2/../../../../lib/libc.a(dl-support.o)
                0x00000000006b1400                _dl_random
                0x00000000006b1408                __libc_stack_end
                0x00000000006b1410                _dl_argv
 .data.rel.ro   0x00000000006b1418        0x4 /usr/lib/gcc/x86_64-unknown-linux-gnu/4.9.2/../../../../lib/libc.a(enbl-secure.o)
                0x00000000006b1418                __libc_enable_secure
 *fill*         0x00000000006b141c        0x4 
 .data.rel.ro   0x00000000006b1420       0x44 /usr/lib/gcc/x86_64-unknown-linux-gnu/4.9.2/../../../../lib/libc.a(dl-load.o)
                0x00000000006b1460                __stack_prot

.dynamic
 *(.dynamic)

.got            0x00000000006b1468       0x10
 *(.got)
 .got           0x00000000006b1468       0x10 /usr/lib/gcc/x86_64-unknown-linux-gnu/4.9.2/../../../../lib/crt1.o
 *(.igot)
                0x00000000006b1478                . = DATA_SEGMENT_RELRO_END (., (SIZEOF (.got.plt) >= 0x18)?0x18:0x0)

.got.plt        0x00000000006b1478       0x68
 *(.got.plt)
 .got.plt       0x00000000006b1478       0x18 /usr/lib/gcc/x86_64-unknown-linux-gnu/4.9.2/../../../../lib/crt1.o
                0x00000000006b1478                _GLOBAL_OFFSET_TABLE_
 *(.igot.plt)
 .igot.plt      0x00000000006b1490       0x50 /usr/lib/gcc/x86_64-unknown-linux-gnu/4.9.2/../../../../lib/crt1.o

.data           0x00000000006b1500     0x1bf0
 *(.data .data.* .gnu.linkonce.d.*)
 .data          0x00000000006b1500        0x4 /usr/lib/gcc/x86_64-unknown-linux-gnu/4.9.2/../../../../lib/crt1.o
                0x00000000006b1500                data_start
                0x00000000006b1500                __data_start
 .data          0x00000000006b1504        0x0 /usr/lib/gcc/x86_64-unknown-linux-gnu/4.9.2/../../../../lib/crti.o
 *fill*         0x00000000006b1504        0x4 
 .data          0x00000000006b1508        0x8 /usr/lib/gcc/x86_64-unknown-linux-gnu/4.9.2/crtbeginT.o
                0x00000000006b1508                __dso_handle
 .data          0x00000000006b1510        0x0 src/main.o
 .data          0x00000000006b1510        0x0 ../lib/libprinter.a(printer.o)
 .data          0x00000000006b1510        0x0 /usr/lib/gcc/x86_64-unknown-linux-gnu/4.9.2/../../../../lib/libc.a(libc-start.o)
 .data          0x00000000006b1510        0x0 /usr/lib/gcc/x86_64-unknown-linux-gnu/4.9.2/../../../../lib/libc.a(check_fds.o)
 .data          0x00000000006b1510        0x8 /usr/lib/gcc/x86_64-unknown-linux-gnu/4.9.2/../../../../lib/libc.a(libc-tls.o)
                0x00000000006b1510                _dl_tls_static_size
 .data          0x00000000006b1518        0x0 /usr/lib/gcc/x86_64-unknown-linux-gnu/4.9.2/../../../../lib/libc.a(elf-init.o)
 .data          0x00000000006b1518        0x0 /usr/lib/gcc/x86_64-unknown-linux-gnu/4.9.2/../../../../lib/libc.a(errno.o)
 .data          0x00000000006b1518        0x0 /usr/lib/gcc/x86_64-unknown-linux-gnu/4.9.2/../../../../lib/libc.a(assert.o)
 .data          0x00000000006b1518        0x0 /usr/lib/gcc/x86_64-unknown-linux-gnu/4.9.2/../../../../lib/libc.a(dcgettext.o)
 .data          0x00000000006b1518        0x8 /usr/lib/gcc/x86_64-unknown-linux-gnu/4.9.2/../../../../lib/libc.a(dcigettext.o)
                0x00000000006b1518                _nl_current_default_domain
 .data          0x00000000006b1520        0x0 /usr/lib/gcc/x86_64-unknown-linux-gnu/4.9.2/../../../../lib/libc.a(finddomain.o)
 .data          0x00000000006b1520        0x0 /usr/lib/gcc/x86_64-unknown-linux-gnu/4.9.2/../../../../lib/libc.a(loadmsgcat.o)
 .data          0x00000000006b1520        0x0 /usr/lib/gcc/x86_64-unknown-linux-gnu/4.9.2/../../../../lib/libc.a(localealias.o)
 .data          0x00000000006b1520        0x0 /usr/lib/gcc/x86_64-unknown-linux-gnu/4.9.2/../../../../lib/libc.a(l10nflist.o)
 .data          0x00000000006b1520        0x0 /usr/lib/gcc/x86_64-unknown-linux-gnu/4.9.2/../../../../lib/libc.a(explodename.o)
 .data          0x00000000006b1520        0x0 /usr/lib/gcc/x86_64-unknown-linux-gnu/4.9.2/../../../../lib/libc.a(plural.o)
 .data          0x00000000006b1520        0x0 /usr/lib/gcc/x86_64-unknown-linux-gnu/4.9.2/../../../../lib/libc.a(plural-exp.o)
 .data          0x00000000006b1520        0x0 /usr/lib/gcc/x86_64-unknown-linux-gnu/4.9.2/../../../../lib/libc.a(hash-string.o)
 .data          0x00000000006b1520        0x0 /usr/lib/gcc/x86_64-unknown-linux-gnu/4.9.2/../../../../lib/libc.a(bsd-_setjmp.o)
 .data          0x00000000006b1520        0x0 /usr/lib/gcc/x86_64-unknown-linux-gnu/4.9.2/../../../../lib/libc.a(raise.o)
 .data          0x00000000006b1520        0x0 /usr/lib/gcc/x86_64-unknown-linux-gnu/4.9.2/../../../../lib/libc.a(abort.o)
 .data          0x00000000006b1520        0x0 /usr/lib/gcc/x86_64-unknown-linux-gnu/4.9.2/../../../../lib/libc.a(msort.o)
 .data          0x00000000006b1520        0x0 /usr/lib/gcc/x86_64-unknown-linux-gnu/4.9.2/../../../../lib/libc.a(getenv.o)
 .data          0x00000000006b1520        0x0 /usr/lib/gcc/x86_64-unknown-linux-gnu/4.9.2/../../../../lib/libc.a(exit.o)
 .data          0x00000000006b1520        0x8 /usr/lib/gcc/x86_64-unknown-linux-gnu/4.9.2/../../../../lib/libc.a(cxa_atexit.o)
                0x00000000006b1520                __exit_funcs
 .data          0x00000000006b1528        0x0 /usr/lib/gcc/x86_64-unknown-linux-gnu/4.9.2/../../../../lib/libc.a(strtoul.o)
 .data          0x00000000006b1528        0x0 /usr/lib/gcc/x86_64-unknown-linux-gnu/4.9.2/../../../../lib/libc.a(strtoul_l.o)
 .data          0x00000000006b1528        0x0 /usr/lib/gcc/x86_64-unknown-linux-gnu/4.9.2/../../../../lib/libc.a(grouping.o)
 .data          0x00000000006b1528        0x0 /usr/lib/gcc/x86_64-unknown-linux-gnu/4.9.2/../../../../lib/libc.a(asprintf.o)
 .data          0x00000000006b1528        0x0 /usr/lib/gcc/x86_64-unknown-linux-gnu/4.9.2/../../../../lib/libc.a(fxprintf.o)
 .data          0x00000000006b1528        0x0 /usr/lib/gcc/x86_64-unknown-linux-gnu/4.9.2/../../../../lib/libc.a(iofclose.o)
 .data          0x00000000006b1528        0x0 /usr/lib/gcc/x86_64-unknown-linux-gnu/4.9.2/../../../../lib/libc.a(iofflush.o)
 .data          0x00000000006b1528        0x0 /usr/lib/gcc/x86_64-unknown-linux-gnu/4.9.2/../../../../lib/libc.a(iofopen.o)
 .data          0x00000000006b1528        0x0 /usr/lib/gcc/x86_64-unknown-linux-gnu/4.9.2/../../../../lib/libc.a(wprintf.o)
 .data          0x00000000006b1528        0x0 /usr/lib/gcc/x86_64-unknown-linux-gnu/4.9.2/../../../../lib/libc.a(wfileops.o)
 .data          0x00000000006b1528        0x0 /usr/lib/gcc/x86_64-unknown-linux-gnu/4.9.2/../../../../lib/libc.a(vasprintf.o)
 .data          0x00000000006b1528        0x0 /usr/lib/gcc/x86_64-unknown-linux-gnu/4.9.2/../../../../lib/libc.a(fcloseall.o)
 .data          0x00000000006b1528        0x0 /usr/lib/gcc/x86_64-unknown-linux-gnu/4.9.2/../../../../lib/libc.a(libc_fatal.o)
 .data          0x00000000006b1528        0x0 /usr/lib/gcc/x86_64-unknown-linux-gnu/4.9.2/../../../../lib/libc.a(iofgets_u.o)
 .data          0x00000000006b1528        0x0 /usr/lib/gcc/x86_64-unknown-linux-gnu/4.9.2/../../../../lib/libc.a(fileops.o)
 .data          0x00000000006b1528        0x0 /usr/lib/gcc/x86_64-unknown-linux-gnu/4.9.2/../../../../lib/libc.a(genops.o)
 *fill*         0x00000000006b1528       0x18 
 .data          0x00000000006b1540      0x6f8 /usr/lib/gcc/x86_64-unknown-linux-gnu/4.9.2/../../../../lib/libc.a(stdfiles.o)
                0x00000000006b1540                _IO_list_all
                0x00000000006b1580                _IO_2_1_stderr_
                0x00000000006b17c0                _IO_2_1_stdout_
                0x00000000006b1a00                _IO_2_1_stdin_
 .data          0x00000000006b1c38       0x18 /usr/lib/gcc/x86_64-unknown-linux-gnu/4.9.2/../../../../lib/libc.a(stdio.o)
                0x00000000006b1c38                stderr
                0x00000000006b1c38                _IO_stderr
                0x00000000006b1c40                stdout
                0x00000000006b1c40                _IO_stdout
                0x00000000006b1c48                stdin
                0x00000000006b1c48                _IO_stdin
 .data          0x00000000006b1c50        0x0 /usr/lib/gcc/x86_64-unknown-linux-gnu/4.9.2/../../../../lib/libc.a(strops.o)
 *fill*         0x00000000006b1c50       0x30 
 .data          0x00000000006b1c80      0x950 /usr/lib/gcc/x86_64-unknown-linux-gnu/4.9.2/../../../../lib/libc.a(malloc.o)
                0x00000000006b1c84                __libc_malloc_initialized
                0x00000000006b1c98                __memalign_hook
                0x00000000006b1ca0                __realloc_hook
                0x00000000006b1ca8                __malloc_hook
                0x00000000006b25c8                __morecore
 .data          0x00000000006b25d0        0x0 /usr/lib/gcc/x86_64-unknown-linux-gnu/4.9.2/../../../../lib/libc.a(morecore.o)
 .data          0x00000000006b25d0        0x0 /usr/lib/gcc/x86_64-unknown-linux-gnu/4.9.2/../../../../lib/libc.a(strchr.o)
 .data          0x00000000006b25d0        0x0 /usr/lib/gcc/x86_64-unknown-linux-gnu/4.9.2/../../../../lib/libc.a(strcmp.o)
 .data          0x00000000006b25d0        0x0 /usr/lib/gcc/x86_64-unknown-linux-gnu/4.9.2/../../../../lib/libc.a(strcpy.o)
 .data          0x00000000006b25d0        0x0 /usr/lib/gcc/x86_64-unknown-linux-gnu/4.9.2/../../../../lib/libc.a(strdup.o)
 .data          0x00000000006b25d0        0x0 /usr/lib/gcc/x86_64-unknown-linux-gnu/4.9.2/../../../../lib/libc.a(strlen.o)
 .data          0x00000000006b25d0        0x0 /usr/lib/gcc/x86_64-unknown-linux-gnu/4.9.2/../../../../lib/libc.a(strncmp.o)
 .data          0x00000000006b25d0        0x0 /usr/lib/gcc/x86_64-unknown-linux-gnu/4.9.2/../../../../lib/libc.a(strstr.o)
 .data          0x00000000006b25d0        0x0 /usr/lib/gcc/x86_64-unknown-linux-gnu/4.9.2/../../../../lib/libc.a(memchr.o)
 .data          0x00000000006b25d0        0x0 /usr/lib/gcc/x86_64-unknown-linux-gnu/4.9.2/../../../../lib/libc.a(memcmp.o)
 .data          0x00000000006b25d0        0x0 /usr/lib/gcc/x86_64-unknown-linux-gnu/4.9.2/../../../../lib/libc.a(memmove.o)
 .data          0x00000000006b25d0        0x0 /usr/lib/gcc/x86_64-unknown-linux-gnu/4.9.2/../../../../lib/libc.a(memset.o)
 .data          0x00000000006b25d0        0x0 /usr/lib/gcc/x86_64-unknown-linux-gnu/4.9.2/../../../../lib/libc.a(mempcpy.o)
 .data          0x00000000006b25d0        0x0 /usr/lib/gcc/x86_64-unknown-linux-gnu/4.9.2/../../../../lib/libc.a(stpcpy.o)
 .data          0x00000000006b25d0        0x0 /usr/lib/gcc/x86_64-unknown-linux-gnu/4.9.2/../../../../lib/libc.a(strcasecmp_l.o)
 .data          0x00000000006b25d0        0x0 /usr/lib/gcc/x86_64-unknown-linux-gnu/4.9.2/../../../../lib/libc.a(memcpy.o)
 .data          0x00000000006b25d0        0x0 /usr/lib/gcc/x86_64-unknown-linux-gnu/4.9.2/../../../../lib/libc.a(wordcopy.o)
 .data          0x00000000006b25d0        0x0 /usr/lib/gcc/x86_64-unknown-linux-gnu/4.9.2/../../../../lib/libc.a(rawmemchr.o)
 .data          0x00000000006b25d0        0x0 /usr/lib/gcc/x86_64-unknown-linux-gnu/4.9.2/../../../../lib/libc.a(strchrnul.o)
 .data          0x00000000006b25d0        0x0 /usr/lib/gcc/x86_64-unknown-linux-gnu/4.9.2/../../../../lib/libc.a(strcmp-ssse3.o)
 .data          0x00000000006b25d0        0x0 /usr/lib/gcc/x86_64-unknown-linux-gnu/4.9.2/../../../../lib/libc.a(strcmp-sse2-unaligned.o)
 .data          0x00000000006b25d0        0x0 /usr/lib/gcc/x86_64-unknown-linux-gnu/4.9.2/../../../../lib/libc.a(memcmp-sse4.o)
 .data          0x00000000006b25d0        0x0 /usr/lib/gcc/x86_64-unknown-linux-gnu/4.9.2/../../../../lib/libc.a(memmove-ssse3.o)
 .data          0x00000000006b25d0        0x0 /usr/lib/gcc/x86_64-unknown-linux-gnu/4.9.2/../../../../lib/libc.a(memmove-avx-unaligned.o)
 .data          0x00000000006b25d0        0x0 /usr/lib/gcc/x86_64-unknown-linux-gnu/4.9.2/../../../../lib/libc.a(memmove-ssse3-back.o)
 .data          0x00000000006b25d0        0x0 /usr/lib/gcc/x86_64-unknown-linux-gnu/4.9.2/../../../../lib/libc.a(strcasecmp_l-ssse3.o)
 .data          0x00000000006b25d0        0x0 /usr/lib/gcc/x86_64-unknown-linux-gnu/4.9.2/../../../../lib/libc.a(strcpy-ssse3.o)
 .data          0x00000000006b25d0        0x0 /usr/lib/gcc/x86_64-unknown-linux-gnu/4.9.2/../../../../lib/libc.a(stpcpy-ssse3.o)
 .data          0x00000000006b25d0        0x0 /usr/lib/gcc/x86_64-unknown-linux-gnu/4.9.2/../../../../lib/libc.a(strcpy-sse2-unaligned.o)
 .data          0x00000000006b25d0        0x0 /usr/lib/gcc/x86_64-unknown-linux-gnu/4.9.2/../../../../lib/libc.a(stpcpy-sse2-unaligned.o)
 .data          0x00000000006b25d0        0x0 /usr/lib/gcc/x86_64-unknown-linux-gnu/4.9.2/../../../../lib/libc.a(strchr-sse2-no-bsf.o)
 .data          0x00000000006b25d0        0x0 /usr/lib/gcc/x86_64-unknown-linux-gnu/4.9.2/../../../../lib/libc.a(memcmp-ssse3.o)
 .data          0x00000000006b25d0        0x0 /usr/lib/gcc/x86_64-unknown-linux-gnu/4.9.2/../../../../lib/libc.a(strstr-sse2-unaligned.o)
 .data          0x00000000006b25d0        0x0 /usr/lib/gcc/x86_64-unknown-linux-gnu/4.9.2/../../../../lib/libc.a(memset-avx2.o)
 .data          0x00000000006b25d0       0x40 /usr/lib/gcc/x86_64-unknown-linux-gnu/4.9.2/../../../../lib/libc.a(cacheinfo.o)
                0x00000000006b25d0                __x86_raw_shared_cache_size
                0x00000000006b25d8                __x86_raw_shared_cache_size_half
                0x00000000006b25e0                __x86_shared_cache_size
                0x00000000006b25e8                __x86_shared_cache_size_half
                0x00000000006b25f0                __x86_raw_data_cache_size
                0x00000000006b25f8                __x86_raw_data_cache_size_half
                0x00000000006b2600                __x86_data_cache_size
                0x00000000006b2608                __x86_data_cache_size_half
 .data          0x00000000006b2610        0x0 /usr/lib/gcc/x86_64-unknown-linux-gnu/4.9.2/../../../../lib/libc.a(strcasecmp_l-nonascii.o)
 .data          0x00000000006b2610        0x0 /usr/lib/gcc/x86_64-unknown-linux-gnu/4.9.2/../../../../lib/libc.a(wmempcpy.o)
 .data          0x00000000006b2610        0x0 /usr/lib/gcc/x86_64-unknown-linux-gnu/4.9.2/../../../../lib/libc.a(wcsmbsload.o)
 .data          0x00000000006b2610        0x0 /usr/lib/gcc/x86_64-unknown-linux-gnu/4.9.2/../../../../lib/libc.a(_exit.o)
 .data          0x00000000006b2610        0x0 /usr/lib/gcc/x86_64-unknown-linux-gnu/4.9.2/../../../../lib/libc.a(sysconf.o)
 .data          0x00000000006b2610        0x0 /usr/lib/gcc/x86_64-unknown-linux-gnu/4.9.2/../../../../lib/libc.a(sched_yield.o)
 .data          0x00000000006b2610        0x0 /usr/lib/gcc/x86_64-unknown-linux-gnu/4.9.2/../../../../lib/libc.a(get_child_max.o)
 .data          0x00000000006b2610        0x0 /usr/lib/gcc/x86_64-unknown-linux-gnu/4.9.2/../../../../lib/libc.a(environ.o)
 .data          0x00000000006b2610        0x0 /usr/lib/gcc/x86_64-unknown-linux-gnu/4.9.2/../../../../lib/libc.a(xstat.o)
 .data          0x00000000006b2610        0x0 /usr/lib/gcc/x86_64-unknown-linux-gnu/4.9.2/../../../../lib/libc.a(fxstat.o)
 .data          0x00000000006b2610        0x0 /usr/lib/gcc/x86_64-unknown-linux-gnu/4.9.2/../../../../lib/libc.a(open.o)
 .data          0x00000000006b2610        0x0 /usr/lib/gcc/x86_64-unknown-linux-gnu/4.9.2/../../../../lib/libc.a(read.o)
 .data          0x00000000006b2610        0x0 /usr/lib/gcc/x86_64-unknown-linux-gnu/4.9.2/../../../../lib/libc.a(write.o)
 .data          0x00000000006b2610        0x0 /usr/lib/gcc/x86_64-unknown-linux-gnu/4.9.2/../../../../lib/libc.a(fcntl.o)
 .data          0x00000000006b2610        0x0 /usr/lib/gcc/x86_64-unknown-linux-gnu/4.9.2/../../../../lib/libc.a(close.o)
 .data          0x00000000006b2610        0x0 /usr/lib/gcc/x86_64-unknown-linux-gnu/4.9.2/../../../../lib/libc.a(getcwd.o)
 .data          0x00000000006b2610        0x0 /usr/lib/gcc/x86_64-unknown-linux-gnu/4.9.2/../../../../lib/libc.a(getrlimit.o)
 .data          0x00000000006b2610        0x0 /usr/lib/gcc/x86_64-unknown-linux-gnu/4.9.2/../../../../lib/libc.a(sbrk.o)
 .data          0x00000000006b2610        0x0 /usr/lib/gcc/x86_64-unknown-linux-gnu/4.9.2/../../../../lib/libc.a(getpagesize.o)
 .data          0x00000000006b2610        0x0 /usr/lib/gcc/x86_64-unknown-linux-gnu/4.9.2/../../../../lib/libc.a(getdtsz.o)
 .data          0x00000000006b2610        0x0 /usr/lib/gcc/x86_64-unknown-linux-gnu/4.9.2/../../../../lib/libc.a(mmap.o)
 .data          0x00000000006b2610        0x0 /usr/lib/gcc/x86_64-unknown-linux-gnu/4.9.2/../../../../lib/libc.a(munmap.o)
 .data          0x00000000006b2610        0x0 /usr/lib/gcc/x86_64-unknown-linux-gnu/4.9.2/../../../../lib/libc.a(mprotect.o)
 .data          0x00000000006b2610        0x0 /usr/lib/gcc/x86_64-unknown-linux-gnu/4.9.2/../../../../lib/libc.a(madvise.o)
 .data          0x00000000006b2610        0x0 /usr/lib/gcc/x86_64-unknown-linux-gnu/4.9.2/../../../../lib/libc.a(tsearch.o)
 .data          0x00000000006b2610        0x4 /usr/lib/gcc/x86_64-unknown-linux-gnu/4.9.2/../../../../lib/libc.a(getsysstats.o)
 .data          0x00000000006b2614        0x0 /usr/lib/gcc/x86_64-unknown-linux-gnu/4.9.2/../../../../lib/libc.a(getclktck.o)
 *fill*         0x00000000006b2614        0x4 
 .data          0x00000000006b2618       0x10 /usr/lib/gcc/x86_64-unknown-linux-gnu/4.9.2/../../../../lib/libc.a(init-misc.o)
                0x00000000006b2618                __progname
                0x00000000006b2618                program_invocation_short_name
                0x00000000006b2620                program_invocation_name
                0x00000000006b2620                __progname_full
 .data          0x00000000006b2628        0x0 /usr/lib/gcc/x86_64-unknown-linux-gnu/4.9.2/../../../../lib/libc.a(llseek.o)
 .data          0x00000000006b2628        0x0 /usr/lib/gcc/x86_64-unknown-linux-gnu/4.9.2/../../../../lib/libc.a(mremap.o)
 .data          0x00000000006b2628        0x0 /usr/lib/gcc/x86_64-unknown-linux-gnu/4.9.2/../../../../lib/libc.a(alloca_cutoff.o)
 .data          0x00000000006b2628        0x0 /usr/lib/gcc/x86_64-unknown-linux-gnu/4.9.2/../../../../lib/libc.a(libc-lowlevellock.o)
 .data          0x00000000006b2628        0x0 /usr/lib/gcc/x86_64-unknown-linux-gnu/4.9.2/../../../../lib/libc.a(libc-cancellation.o)
 .data          0x00000000006b2628        0x0 /usr/lib/gcc/x86_64-unknown-linux-gnu/4.9.2/../../../../lib/libc.a(libc_multiple_threads.o)
 .data          0x00000000006b2628        0x0 /usr/lib/gcc/x86_64-unknown-linux-gnu/4.9.2/../../../../lib/libc.a(register-atfork.o)
 .data          0x00000000006b2628        0x0 /usr/lib/gcc/x86_64-unknown-linux-gnu/4.9.2/../../../../lib/libc.a(backtrace.o)
 .data          0x00000000006b2628        0x0 /usr/lib/gcc/x86_64-unknown-linux-gnu/4.9.2/../../../../lib/libc.a(backtracesymsfd.o)
 .data          0x00000000006b2628        0x0 /usr/lib/gcc/x86_64-unknown-linux-gnu/4.9.2/../../../../lib/libc.a(chk_fail.o)
 .data          0x00000000006b2628        0x0 /usr/lib/gcc/x86_64-unknown-linux-gnu/4.9.2/../../../../lib/libc.a(fortify_fail.o)
 .data          0x00000000006b2628        0x0 /usr/lib/gcc/x86_64-unknown-linux-gnu/4.9.2/../../../../lib/libc.a(dl-debug.o)
 *fill*         0x00000000006b2628       0x18 
 .data          0x00000000006b2640      0x620 /usr/lib/gcc/x86_64-unknown-linux-gnu/4.9.2/../../../../lib/libc.a(dl-support.o)
                0x00000000006b2640                _dl_load_write_lock
                0x00000000006b2680                _dl_load_lock
                0x00000000006b26a8                _dl_make_stack_executable_hook
                0x00000000006b26b0                _dl_stack_flags
                0x00000000006b26b4                _dl_fpu_control
                0x00000000006b26b8                _dl_correct_cache_id
                0x00000000006b26bc                _dl_debug_fd
                0x00000000006b26c0                _dl_pagesize
                0x00000000006b26c8                _dl_init_static_tls
                0x00000000006b26d0                _dl_initial_searchlist
                0x00000000006b26e8                _dl_load_adds
                0x00000000006b26f0                _dl_nns
                0x00000000006b2700                _dl_ns
                0x00000000006b2c58                _dl_use_load_bias
 .data          0x00000000006b2c60        0x0 /usr/lib/gcc/x86_64-unknown-linux-gnu/4.9.2/../../../../lib/libc.a(dl-addr.o)
 .data          0x00000000006b2c60        0x0 /usr/lib/gcc/x86_64-unknown-linux-gnu/4.9.2/../../../../lib/libc.a(enbl-secure.o)
 .data          0x00000000006b2c60        0x0 /usr/lib/gcc/x86_64-unknown-linux-gnu/4.9.2/../../../../lib/libc.a(dl-sysdep.o)
 .data          0x00000000006b2c60        0x4 /usr/lib/gcc/x86_64-unknown-linux-gnu/4.9.2/../../../../lib/libc.a(init-first.o)
                0x00000000006b2c60                __libc_multiple_libcs
 .data          0x00000000006b2c64        0x0 /usr/lib/gcc/x86_64-unknown-linux-gnu/4.9.2/../../../../lib/libc.a(sysdep.o)
 .data          0x00000000006b2c64        0x0 /usr/lib/gcc/x86_64-unknown-linux-gnu/4.9.2/../../../../lib/libc.a(init-arch.o)
 .data          0x00000000006b2c64        0x0 /usr/lib/gcc/x86_64-unknown-linux-gnu/4.9.2/../../../../lib/libc.a(gconv_open.o)
 .data          0x00000000006b2c64        0x0 /usr/lib/gcc/x86_64-unknown-linux-gnu/4.9.2/../../../../lib/libc.a(gconv.o)
 .data          0x00000000006b2c64        0x0 /usr/lib/gcc/x86_64-unknown-linux-gnu/4.9.2/../../../../lib/libc.a(gconv_close.o)
 .data          0x00000000006b2c64        0x0 /usr/lib/gcc/x86_64-unknown-linux-gnu/4.9.2/../../../../lib/libc.a(gconv_db.o)
 *fill*         0x00000000006b2c64       0x1c 
 .data          0x00000000006b2c80      0x2a0 /usr/lib/gcc/x86_64-unknown-linux-gnu/4.9.2/../../../../lib/libc.a(gconv_conf.o)
 .data          0x00000000006b2f20        0x0 /usr/lib/gcc/x86_64-unknown-linux-gnu/4.9.2/../../../../lib/libc.a(gconv_builtin.o)
 .data          0x00000000006b2f20        0x0 /usr/lib/gcc/x86_64-unknown-linux-gnu/4.9.2/../../../../lib/libc.a(gconv_simple.o)
 .data          0x00000000006b2f20        0x0 /usr/lib/gcc/x86_64-unknown-linux-gnu/4.9.2/../../../../lib/libc.a(gconv_trans.o)
 .data          0x00000000006b2f20        0x0 /usr/lib/gcc/x86_64-unknown-linux-gnu/4.9.2/../../../../lib/libc.a(gconv_cache.o)
 .data          0x00000000006b2f20        0x0 /usr/lib/gcc/x86_64-unknown-linux-gnu/4.9.2/../../../../lib/libc.a(gconv_dl.o)
 .data          0x00000000006b2f20        0x0 /usr/lib/gcc/x86_64-unknown-linux-gnu/4.9.2/../../../../lib/libc.a(setlocale.o)
 .data          0x00000000006b2f20        0x0 /usr/lib/gcc/x86_64-unknown-linux-gnu/4.9.2/../../../../lib/libc.a(findlocale.o)
 .data          0x00000000006b2f20        0x0 /usr/lib/gcc/x86_64-unknown-linux-gnu/4.9.2/../../../../lib/libc.a(loadlocale.o)
 .data          0x00000000006b2f20        0x0 /usr/lib/gcc/x86_64-unknown-linux-gnu/4.9.2/../../../../lib/libc.a(loadarchive.o)
 .data          0x00000000006b2f20        0x0 /usr/lib/gcc/x86_64-unknown-linux-gnu/4.9.2/../../../../lib/libc.a(lc-ctype.o)
 .data          0x00000000006b2f20        0x0 /usr/lib/gcc/x86_64-unknown-linux-gnu/4.9.2/../../../../lib/libc.a(C-ctype.o)
 .data          0x00000000006b2f20        0x0 /usr/lib/gcc/x86_64-unknown-linux-gnu/4.9.2/../../../../lib/libc.a(SYS_libc.o)
 .data          0x00000000006b2f20        0x0 /usr/lib/gcc/x86_64-unknown-linux-gnu/4.9.2/../../../../lib/libc.a(C_name.o)
 .data          0x00000000006b2f20        0x0 /usr/lib/gcc/x86_64-unknown-linux-gnu/4.9.2/../../../../lib/libc.a(xlocale.o)
 .data          0x00000000006b2f20        0x0 /usr/lib/gcc/x86_64-unknown-linux-gnu/4.9.2/../../../../lib/libc.a(localename.o)
 *fill*         0x00000000006b2f20       0x20 
 .data          0x00000000006b2f40       0xe8 /usr/lib/gcc/x86_64-unknown-linux-gnu/4.9.2/../../../../lib/libc.a(global-locale.o)
                0x00000000006b2f40                _nl_global_locale
 .data          0x00000000006b3028        0x0 /usr/lib/gcc/x86_64-unknown-linux-gnu/4.9.2/../../../../lib/libc.a(ctype-info.o)
 .data          0x00000000006b3028        0x0 /usr/lib/gcc/x86_64-unknown-linux-gnu/4.9.2/../../../../lib/libc.a(setfpucw.o)
 .data          0x00000000006b3028        0x2 /usr/lib/gcc/x86_64-unknown-linux-gnu/4.9.2/../../../../lib/libc.a(fpu_control.o)
                0x00000000006b3028                __fpu_control
 .data          0x00000000006b302a        0x0 /usr/lib/gcc/x86_64-unknown-linux-gnu/4.9.2/../../../../lib/libc.a(setjmp.o)
 .data          0x00000000006b302a        0x0 /usr/lib/gcc/x86_64-unknown-linux-gnu/4.9.2/../../../../lib/libc.a(sigjmp.o)
 .data          0x00000000006b302a        0x0 /usr/lib/gcc/x86_64-unknown-linux-gnu/4.9.2/../../../../lib/libc.a(sigaction.o)
 .data          0x00000000006b302a        0x0 /usr/lib/gcc/x86_64-unknown-linux-gnu/4.9.2/../../../../lib/libc.a(sigprocmask.o)
 .data          0x00000000006b302a        0x0 /usr/lib/gcc/x86_64-unknown-linux-gnu/4.9.2/../../../../lib/libc.a(qsort.o)
 .data          0x00000000006b302a        0x0 /usr/lib/gcc/x86_64-unknown-linux-gnu/4.9.2/../../../../lib/libc.a(setenv.o)
 .data          0x00000000006b302a        0x0 /usr/lib/gcc/x86_64-unknown-linux-gnu/4.9.2/../../../../lib/libc.a(secure-getenv.o)
 .data          0x00000000006b302a        0x0 /usr/lib/gcc/x86_64-unknown-linux-gnu/4.9.2/../../../../lib/libc.a(strtol.o)
 .data          0x00000000006b302a        0x0 /usr/lib/gcc/x86_64-unknown-linux-gnu/4.9.2/../../../../lib/libc.a(strtol_l.o)
 .data          0x00000000006b302a        0x0 /usr/lib/gcc/x86_64-unknown-linux-gnu/4.9.2/../../../../lib/libc.a(_itoa.o)
 .data          0x00000000006b302a        0x0 /usr/lib/gcc/x86_64-unknown-linux-gnu/4.9.2/../../../../lib/libc.a(itoa-digits.o)
 .data          0x00000000006b302a        0x0 /usr/lib/gcc/x86_64-unknown-linux-gnu/4.9.2/../../../../lib/libc.a(itoa-udigits.o)
 .data          0x00000000006b302a        0x0 /usr/lib/gcc/x86_64-unknown-linux-gnu/4.9.2/../../../../lib/libc.a(vfprintf.o)
 .data          0x00000000006b302a        0x0 /usr/lib/gcc/x86_64-unknown-linux-gnu/4.9.2/../../../../lib/libc.a(printf_fp.o)
 .data          0x00000000006b302a        0x0 /usr/lib/gcc/x86_64-unknown-linux-gnu/4.9.2/../../../../lib/libc.a(reg-printf.o)
 .data          0x00000000006b302a        0x0 /usr/lib/gcc/x86_64-unknown-linux-gnu/4.9.2/../../../../lib/libc.a(printf_fphex.o)
 .data          0x00000000006b302a        0x0 /usr/lib/gcc/x86_64-unknown-linux-gnu/4.9.2/../../../../lib/libc.a(reg-modifier.o)
 *fill*         0x00000000006b302a        0x2 
 .data          0x00000000006b302c        0x4 /usr/lib/gcc/x86_64-unknown-linux-gnu/4.9.2/../../../../lib/libc.a(reg-type.o)
 .data          0x00000000006b3030        0x0 /usr/lib/gcc/x86_64-unknown-linux-gnu/4.9.2/../../../../lib/libc.a(fprintf.o)
 .data          0x00000000006b3030        0x0 /usr/lib/gcc/x86_64-unknown-linux-gnu/4.9.2/../../../../lib/libc.a(vfwprintf.o)
 .data          0x00000000006b3030        0x0 /usr/lib/gcc/x86_64-unknown-linux-gnu/4.9.2/../../../../lib/libc.a(sscanf.o)
 .data          0x00000000006b3030        0x0 /usr/lib/gcc/x86_64-unknown-linux-gnu/4.9.2/../../../../lib/libc.a(funlockfile.o)
 .data          0x00000000006b3030        0x0 /usr/lib/gcc/x86_64-unknown-linux-gnu/4.9.2/../../../../lib/libc.a(printf-parsemb.o)
 .data          0x00000000006b3030        0x0 /usr/lib/gcc/x86_64-unknown-linux-gnu/4.9.2/../../../../lib/libc.a(printf-parsewc.o)
 .data          0x00000000006b3030        0x0 /usr/lib/gcc/x86_64-unknown-linux-gnu/4.9.2/../../../../lib/libc.a(filedoalloc.o)
 .data          0x00000000006b3030        0x0 /usr/lib/gcc/x86_64-unknown-linux-gnu/4.9.2/../../../../lib/libc.a(iofputs.o)
 .data          0x00000000006b3030        0x0 /usr/lib/gcc/x86_64-unknown-linux-gnu/4.9.2/../../../../lib/libc.a(wfiledoalloc.o)
 .data          0x00000000006b3030        0x0 /usr/lib/gcc/x86_64-unknown-linux-gnu/4.9.2/../../../../lib/libc.a(iofwrite.o)
 .data          0x00000000006b3030        0x0 /usr/lib/gcc/x86_64-unknown-linux-gnu/4.9.2/../../../../lib/libc.a(iogetdelim.o)
 .data          0x00000000006b3030        0x0 /usr/lib/gcc/x86_64-unknown-linux-gnu/4.9.2/../../../../lib/libc.a(iogetline.o)
 .data          0x00000000006b3030        0x0 /usr/lib/gcc/x86_64-unknown-linux-gnu/4.9.2/../../../../lib/libc.a(iopadn.o)
 .data          0x00000000006b3030        0x0 /usr/lib/gcc/x86_64-unknown-linux-gnu/4.9.2/../../../../lib/libc.a(iovsscanf.o)
 .data          0x00000000006b3030        0x0 /usr/lib/gcc/x86_64-unknown-linux-gnu/4.9.2/../../../../lib/libc.a(iowpadn.o)
 .data          0x00000000006b3030        0x0 /usr/lib/gcc/x86_64-unknown-linux-gnu/4.9.2/../../../../lib/libc.a(wgenops.o)
 .data          0x00000000006b3030        0x0 /usr/lib/gcc/x86_64-unknown-linux-gnu/4.9.2/../../../../lib/libc.a(iofwide.o)
 .data          0x00000000006b3030        0x0 /usr/lib/gcc/x86_64-unknown-linux-gnu/4.9.2/../../../../lib/libc.a(strndup.o)
 .data          0x00000000006b3030        0x0 /usr/lib/gcc/x86_64-unknown-linux-gnu/4.9.2/../../../../lib/libc.a(_strerror.o)
 .data          0x00000000006b3030        0x0 /usr/lib/gcc/x86_64-unknown-linux-gnu/4.9.2/../../../../lib/libc.a(strnlen.o)
 .data          0x00000000006b3030        0x0 /usr/lib/gcc/x86_64-unknown-linux-gnu/4.9.2/../../../../lib/libc.a(strrchr.o)
 .data          0x00000000006b3030        0x0 /usr/lib/gcc/x86_64-unknown-linux-gnu/4.9.2/../../../../lib/libc.a(memmem.o)
 .data          0x00000000006b3030        0x0 /usr/lib/gcc/x86_64-unknown-linux-gnu/4.9.2/../../../../lib/libc.a(argz-ctsep.o)
 .data          0x00000000006b3030        0x0 /usr/lib/gcc/x86_64-unknown-linux-gnu/4.9.2/../../../../lib/libc.a(argz-addsep.o)
 .data          0x00000000006b3030        0x0 /usr/lib/gcc/x86_64-unknown-linux-gnu/4.9.2/../../../../lib/libc.a(wcslen.o)
 .data          0x00000000006b3030        0x0 /usr/lib/gcc/x86_64-unknown-linux-gnu/4.9.2/../../../../lib/libc.a(wmemcpy.o)
 .data          0x00000000006b3030        0x0 /usr/lib/gcc/x86_64-unknown-linux-gnu/4.9.2/../../../../lib/libc.a(wmemmove.o)
 .data          0x00000000006b3030        0x0 /usr/lib/gcc/x86_64-unknown-linux-gnu/4.9.2/../../../../lib/libc.a(wmemset.o)
 .data          0x00000000006b3030        0x0 /usr/lib/gcc/x86_64-unknown-linux-gnu/4.9.2/../../../../lib/libc.a(btowc.o)
 .data          0x00000000006b3030        0x0 /usr/lib/gcc/x86_64-unknown-linux-gnu/4.9.2/../../../../lib/libc.a(wcrtomb.o)
 .data          0x00000000006b3030        0x0 /usr/lib/gcc/x86_64-unknown-linux-gnu/4.9.2/../../../../lib/libc.a(mbsrtowcs.o)
 .data          0x00000000006b3030        0x0 /usr/lib/gcc/x86_64-unknown-linux-gnu/4.9.2/../../../../lib/libc.a(wcsrtombs.o)
 .data          0x00000000006b3030        0x0 /usr/lib/gcc/x86_64-unknown-linux-gnu/4.9.2/../../../../lib/libc.a(wcsnlen.o)
 .data          0x00000000006b3030        0x0 /usr/lib/gcc/x86_64-unknown-linux-gnu/4.9.2/../../../../lib/libc.a(wcschrnul.o)
 .data          0x00000000006b3030        0x0 /usr/lib/gcc/x86_64-unknown-linux-gnu/4.9.2/../../../../lib/libc.a(mbsrtowcs_l.o)
 .data          0x00000000006b3030        0x0 /usr/lib/gcc/x86_64-unknown-linux-gnu/4.9.2/../../../../lib/libc.a(time.o)
 .data          0x00000000006b3030       0x10 /usr/lib/gcc/x86_64-unknown-linux-gnu/4.9.2/../../../../lib/libc.a(tzset.o)
                0x00000000006b3030                __tzname
                0x00000000006b3030                tzname
 .data          0x00000000006b3040        0x0 /usr/lib/gcc/x86_64-unknown-linux-gnu/4.9.2/../../../../lib/libc.a(tzfile.o)
 .data          0x00000000006b3040        0x0 /usr/lib/gcc/x86_64-unknown-linux-gnu/4.9.2/../../../../lib/libc.a(opendir.o)
 .data          0x00000000006b3040        0x0 /usr/lib/gcc/x86_64-unknown-linux-gnu/4.9.2/../../../../lib/libc.a(closedir.o)
 .data          0x00000000006b3040        0x0 /usr/lib/gcc/x86_64-unknown-linux-gnu/4.9.2/../../../../lib/libc.a(readdir.o)
 .data          0x00000000006b3040        0x0 /usr/lib/gcc/x86_64-unknown-linux-gnu/4.9.2/../../../../lib/libc.a(rewinddir.o)
 .data          0x00000000006b3040        0x0 /usr/lib/gcc/x86_64-unknown-linux-gnu/4.9.2/../../../../lib/libc.a(getdents.o)
 .data          0x00000000006b3040        0x0 /usr/lib/gcc/x86_64-unknown-linux-gnu/4.9.2/../../../../lib/libc.a(fdopendir.o)
 .data          0x00000000006b3040        0x0 /usr/lib/gcc/x86_64-unknown-linux-gnu/4.9.2/../../../../lib/libc.a(uname.o)
 .data          0x00000000006b3040        0x0 /usr/lib/gcc/x86_64-unknown-linux-gnu/4.9.2/../../../../lib/libc.a(getuid.o)
 .data          0x00000000006b3040        0x0 /usr/lib/gcc/x86_64-unknown-linux-gnu/4.9.2/../../../../lib/libc.a(geteuid.o)
 .data          0x00000000006b3040        0x0 /usr/lib/gcc/x86_64-unknown-linux-gnu/4.9.2/../../../../lib/libc.a(getgid.o)
 .data          0x00000000006b3040        0x0 /usr/lib/gcc/x86_64-unknown-linux-gnu/4.9.2/../../../../lib/libc.a(getegid.o)
 .data          0x00000000006b3040        0x0 /usr/lib/gcc/x86_64-unknown-linux-gnu/4.9.2/../../../../lib/libc.a(lxstat.o)
 .data          0x00000000006b3040        0x0 /usr/lib/gcc/x86_64-unknown-linux-gnu/4.9.2/../../../../lib/libc.a(fxstatat.o)
 .data          0x00000000006b3040        0x0 /usr/lib/gcc/x86_64-unknown-linux-gnu/4.9.2/../../../../lib/libc.a(openat.o)
 .data          0x00000000006b3040        0x0 /usr/lib/gcc/x86_64-unknown-linux-gnu/4.9.2/../../../../lib/libc.a(access.o)
 .data          0x00000000006b3040        0x0 /usr/lib/gcc/x86_64-unknown-linux-gnu/4.9.2/../../../../lib/libc.a(isatty.o)
 .data          0x00000000006b3040        0x0 /usr/lib/gcc/x86_64-unknown-linux-gnu/4.9.2/../../../../lib/libc.a(tcgetattr.o)
 .data          0x00000000006b3040        0x0 /usr/lib/gcc/x86_64-unknown-linux-gnu/4.9.2/../../../../lib/libc.a(brk.o)
 .data          0x00000000006b3040        0x0 /usr/lib/gcc/x86_64-unknown-linux-gnu/4.9.2/../../../../lib/libc.a(writev.o)
 .data          0x00000000006b3040        0x0 /usr/lib/gcc/x86_64-unknown-linux-gnu/4.9.2/../../../../lib/libc.a(wctrans.o)
 .data          0x00000000006b3040        0x0 /usr/lib/gcc/x86_64-unknown-linux-gnu/4.9.2/../../../../lib/libc.a(towctrans.o)
 .data          0x00000000006b3040        0x0 /usr/lib/gcc/x86_64-unknown-linux-gnu/4.9.2/../../../../lib/libc.a(readonly-area.o)
 .data          0x00000000006b3040        0x0 /usr/lib/gcc/x86_64-unknown-linux-gnu/4.9.2/../../../../lib/libc.a(dl-load.o)
 .data          0x00000000006b3040        0x0 /usr/lib/gcc/x86_64-unknown-linux-gnu/4.9.2/../../../../lib/libc.a(dl-lookup.o)
 .data          0x00000000006b3040        0x0 /usr/lib/gcc/x86_64-unknown-linux-gnu/4.9.2/../../../../lib/libc.a(dl-object.o)
 .data          0x00000000006b3040        0x0 /usr/lib/gcc/x86_64-unknown-linux-gnu/4.9.2/../../../../lib/libc.a(dl-reloc.o)
 .data          0x00000000006b3040        0x0 /usr/lib/gcc/x86_64-unknown-linux-gnu/4.9.2/../../../../lib/libc.a(dl-hwcaps.o)
 .data          0x00000000006b3040        0x0 /usr/lib/gcc/x86_64-unknown-linux-gnu/4.9.2/../../../../lib/libc.a(dl-error.o)
 .data          0x00000000006b3040        0x0 /usr/lib/gcc/x86_64-unknown-linux-gnu/4.9.2/../../../../lib/libc.a(dl-misc.o)
 .data          0x00000000006b3040        0x0 /usr/lib/gcc/x86_64-unknown-linux-gnu/4.9.2/../../../../lib/libc.a(dl-tls.o)
 .data          0x00000000006b3040        0x0 /usr/lib/gcc/x86_64-unknown-linux-gnu/4.9.2/../../../../lib/libc.a(dl-origin.o)
 .data          0x00000000006b3040        0x0 /usr/lib/gcc/x86_64-unknown-linux-gnu/4.9.2/../../../../lib/libc.a(dl-scope.o)
 .data          0x00000000006b3040        0x0 /usr/lib/gcc/x86_64-unknown-linux-gnu/4.9.2/../../../../lib/libc.a(dl-execstack.o)
 .data          0x00000000006b3040        0x0 /usr/lib/gcc/x86_64-unknown-linux-gnu/4.9.2/../../../../lib/libc.a(dl-open.o)
 .data          0x00000000006b3040        0x0 /usr/lib/gcc/x86_64-unknown-linux-gnu/4.9.2/../../../../lib/libc.a(dl-close.o)
 .data          0x00000000006b3040        0x4 /usr/lib/gcc/x86_64-unknown-linux-gnu/4.9.2/../../../../lib/libc.a(dl-trampoline.o)
 .data          0x00000000006b3044        0x0 /usr/lib/gcc/x86_64-unknown-linux-gnu/4.9.2/../../../../lib/libc.a(dl-cache.o)
 .data          0x00000000006b3044        0x0 /usr/lib/gcc/x86_64-unknown-linux-gnu/4.9.2/../../../../lib/libc.a(dl-profstub.o)
 *fill*         0x00000000006b3044        0xc 
 .data          0x00000000006b3050       0x18 /usr/lib/gcc/x86_64-unknown-linux-gnu/4.9.2/../../../../lib/libc.a(dl-libc.o)
 .data          0x00000000006b3068        0x8 /usr/lib/gcc/x86_64-unknown-linux-gnu/4.9.2/../../../../lib/libc.a(dl-tsd.o)
                0x00000000006b3068                _dl_error_catch_tsd
 .data          0x00000000006b3070        0x0 /usr/lib/gcc/x86_64-unknown-linux-gnu/4.9.2/../../../../lib/libc.a(tlsdesc.o)
 .data          0x00000000006b3070        0x0 /usr/lib/gcc/x86_64-unknown-linux-gnu/4.9.2/../../../../lib/libc.a(dl-tlsdesc.o)
 .data          0x00000000006b3070        0x0 /usr/lib/gcc/x86_64-unknown-linux-gnu/4.9.2/../../../../lib/libc.a(lc-monetary.o)
 .data          0x00000000006b3070        0x0 /usr/lib/gcc/x86_64-unknown-linux-gnu/4.9.2/../../../../lib/libc.a(lc-numeric.o)
 .data          0x00000000006b3070        0x0 /usr/lib/gcc/x86_64-unknown-linux-gnu/4.9.2/../../../../lib/libc.a(C-messages.o)
 .data          0x00000000006b3070        0x0 /usr/lib/gcc/x86_64-unknown-linux-gnu/4.9.2/../../../../lib/libc.a(C-monetary.o)
 .data          0x00000000006b3070        0x0 /usr/lib/gcc/x86_64-unknown-linux-gnu/4.9.2/../../../../lib/libc.a(C-numeric.o)
 .data          0x00000000006b3070        0x0 /usr/lib/gcc/x86_64-unknown-linux-gnu/4.9.2/../../../../lib/libc.a(C-time.o)
 .data          0x00000000006b3070        0x0 /usr/lib/gcc/x86_64-unknown-linux-gnu/4.9.2/../../../../lib/libc.a(C-paper.o)
 .data          0x00000000006b3070        0x0 /usr/lib/gcc/x86_64-unknown-linux-gnu/4.9.2/../../../../lib/libc.a(C-name.o)
 .data          0x00000000006b3070        0x0 /usr/lib/gcc/x86_64-unknown-linux-gnu/4.9.2/../../../../lib/libc.a(C-address.o)
 .data          0x00000000006b3070        0x0 /usr/lib/gcc/x86_64-unknown-linux-gnu/4.9.2/../../../../lib/libc.a(C-telephone.o)
 .data          0x00000000006b3070        0x0 /usr/lib/gcc/x86_64-unknown-linux-gnu/4.9.2/../../../../lib/libc.a(C-measurement.o)
 .data          0x00000000006b3070        0x0 /usr/lib/gcc/x86_64-unknown-linux-gnu/4.9.2/../../../../lib/libc.a(C-identification.o)
 .data          0x00000000006b3070        0x0 /usr/lib/gcc/x86_64-unknown-linux-gnu/4.9.2/../../../../lib/libc.a(C-collate.o)
 .data          0x00000000006b3070        0x0 /usr/lib/gcc/x86_64-unknown-linux-gnu/4.9.2/../../../../lib/libc.a(s_isinf.o)
 .data          0x00000000006b3070        0x0 /usr/lib/gcc/x86_64-unknown-linux-gnu/4.9.2/../../../../lib/libc.a(s_isnan.o)
 .data          0x00000000006b3070        0x0 /usr/lib/gcc/x86_64-unknown-linux-gnu/4.9.2/../../../../lib/libc.a(s_isinfl.o)
 .data          0x00000000006b3070        0x0 /usr/lib/gcc/x86_64-unknown-linux-gnu/4.9.2/../../../../lib/libc.a(s_isnanl.o)
 .data          0x00000000006b3070        0x0 /usr/lib/gcc/x86_64-unknown-linux-gnu/4.9.2/../../../../lib/libc.a(__longjmp.o)
 .data          0x00000000006b3070        0x0 /usr/lib/gcc/x86_64-unknown-linux-gnu/4.9.2/../../../../lib/libc.a(cmp.o)
 .data          0x00000000006b3070        0x0 /usr/lib/gcc/x86_64-unknown-linux-gnu/4.9.2/../../../../lib/libc.a(divrem.o)
 .data          0x00000000006b3070        0x0 /usr/lib/gcc/x86_64-unknown-linux-gnu/4.9.2/../../../../lib/libc.a(lshift.o)
 .data          0x00000000006b3070        0x0 /usr/lib/gcc/x86_64-unknown-linux-gnu/4.9.2/../../../../lib/libc.a(rshift.o)
 .data          0x00000000006b3070        0x0 /usr/lib/gcc/x86_64-unknown-linux-gnu/4.9.2/../../../../lib/libc.a(mul.o)
 .data          0x00000000006b3070        0x0 /usr/lib/gcc/x86_64-unknown-linux-gnu/4.9.2/../../../../lib/libc.a(mul_1.o)
 .data          0x00000000006b3070        0x0 /usr/lib/gcc/x86_64-unknown-linux-gnu/4.9.2/../../../../lib/libc.a(mul_n.o)
 .data          0x00000000006b3070        0x0 /usr/lib/gcc/x86_64-unknown-linux-gnu/4.9.2/../../../../lib/libc.a(sub_n.o)
 .data          0x00000000006b3070        0x0 /usr/lib/gcc/x86_64-unknown-linux-gnu/4.9.2/../../../../lib/libc.a(submul_1.o)
 .data          0x00000000006b3070        0x0 /usr/lib/gcc/x86_64-unknown-linux-gnu/4.9.2/../../../../lib/libc.a(dbl2mpn.o)
 .data          0x00000000006b3070        0x0 /usr/lib/gcc/x86_64-unknown-linux-gnu/4.9.2/../../../../lib/libc.a(ldbl2mpn.o)
 .data          0x00000000006b3070        0x0 /usr/lib/gcc/x86_64-unknown-linux-gnu/4.9.2/../../../../lib/libc.a(fpioconst.o)
 .data          0x00000000006b3070        0x0 /usr/lib/gcc/x86_64-unknown-linux-gnu/4.9.2/../../../../lib/libc.a(itowa-digits.o)
 .data          0x00000000006b3070        0x0 /usr/lib/gcc/x86_64-unknown-linux-gnu/4.9.2/../../../../lib/libc.a(vfscanf.o)
 .data          0x00000000006b3070        0x0 /usr/lib/gcc/x86_64-unknown-linux-gnu/4.9.2/../../../../lib/libc.a(errlist.o)
 .data          0x00000000006b3070        0x0 /usr/lib/gcc/x86_64-unknown-linux-gnu/4.9.2/../../../../lib/libc.a(fileno.o)
 .data          0x00000000006b3070        0x0 /usr/lib/gcc/x86_64-unknown-linux-gnu/4.9.2/../../../../lib/libc.a(fseek.o)
 .data          0x00000000006b3070        0x0 /usr/lib/gcc/x86_64-unknown-linux-gnu/4.9.2/../../../../lib/libc.a(ftello.o)
 .data          0x00000000006b3070        0x0 /usr/lib/gcc/x86_64-unknown-linux-gnu/4.9.2/../../../../lib/libc.a(iofread_u.o)
 *fill*         0x00000000006b3070       0x10 
 .data          0x00000000006b3080       0x68 /usr/lib/gcc/x86_64-unknown-linux-gnu/4.9.2/../../../../lib/libc.a(sdlerror.o)
 .data          0x00000000006b30e8        0x0 /usr/lib/gcc/x86_64-unknown-linux-gnu/4.9.2/../../../../lib/libc.a(sdladdr.o)
 .data          0x00000000006b30e8        0x0 /usr/lib/gcc/x86_64-unknown-linux-gnu/4.9.2/../../../../lib/libc.a(sdladdr1.o)
 .data          0x00000000006b30e8        0x0 /usr/lib/gcc/x86_64-unknown-linux-gnu/4.9.2/../../../../lib/libc.a(sdlinfo.o)
 .data          0x00000000006b30e8        0x0 /usr/lib/gcc/x86_64-unknown-linux-gnu/4.9.2/../../../../lib/libc.a(sdlmopen.o)
 .data          0x00000000006b30e8        0x0 /usr/lib/gcc/x86_64-unknown-linux-gnu/4.9.2/../../../../lib/libc.a(strerror.o)
 .data          0x00000000006b30e8        0x0 /usr/lib/gcc/x86_64-unknown-linux-gnu/4.9.2/../../../../lib/libc.a(strsep.o)
 .data          0x00000000006b30e8        0x0 /usr/lib/gcc/x86_64-unknown-linux-gnu/4.9.2/../../../../lib/libc.a(mbrlen.o)
 .data          0x00000000006b30e8        0x0 /usr/lib/gcc/x86_64-unknown-linux-gnu/4.9.2/../../../../lib/libc.a(mbrtowc.o)
 .data          0x00000000006b30e8        0x0 /usr/lib/gcc/x86_64-unknown-linux-gnu/4.9.2/../../../../lib/libc.a(offtime.o)
 .data          0x00000000006b30e8        0x0 /usr/lib/gcc/x86_64-unknown-linux-gnu/4.9.2/../../../../lib/libc.a(localtime.o)
 .data          0x00000000006b30e8        0x0 /usr/lib/gcc/x86_64-unknown-linux-gnu/4.9.2/../../../../lib/libc.a(mktime.o)
 .data          0x00000000006b30e8        0x0 /usr/lib/gcc/x86_64-unknown-linux-gnu/4.9.2/../../../../lib/libc.a(getpid.o)
 .data          0x00000000006b30e8        0x0 /usr/lib/gcc/x86_64-unknown-linux-gnu/4.9.2/../../../../lib/libc.a(dl-deps.o)
 .data          0x00000000006b30e8        0x0 /usr/lib/gcc/x86_64-unknown-linux-gnu/4.9.2/../../../../lib/libc.a(dl-runtime.o)
 .data          0x00000000006b30e8        0x0 /usr/lib/gcc/x86_64-unknown-linux-gnu/4.9.2/../../../../lib/libc.a(dl-init.o)
 .data          0x00000000006b30e8        0x0 /usr/lib/gcc/x86_64-unknown-linux-gnu/4.9.2/../../../../lib/libc.a(dl-fini.o)
 .data          0x00000000006b30e8        0x0 /usr/lib/gcc/x86_64-unknown-linux-gnu/4.9.2/../../../../lib/libc.a(dl-version.o)
 .data          0x00000000006b30e8        0x0 /usr/lib/gcc/x86_64-unknown-linux-gnu/4.9.2/../../../../lib/libc.a(dl-profile.o)
 .data          0x00000000006b30e8        0x0 /usr/lib/gcc/x86_64-unknown-linux-gnu/4.9.2/../../../../lib/libc.a(strtof.o)
 .data          0x00000000006b30e8        0x0 /usr/lib/gcc/x86_64-unknown-linux-gnu/4.9.2/../../../../lib/libc.a(strtod.o)
 .data          0x00000000006b30e8        0x0 /usr/lib/gcc/x86_64-unknown-linux-gnu/4.9.2/../../../../lib/libc.a(strtold.o)
 .data          0x00000000006b30e8        0x0 /usr/lib/gcc/x86_64-unknown-linux-gnu/4.9.2/../../../../lib/libc.a(strtof_l.o)
 .data          0x00000000006b30e8        0x0 /usr/lib/gcc/x86_64-unknown-linux-gnu/4.9.2/../../../../lib/libc.a(strtod_l.o)
 .data          0x00000000006b30e8        0x0 /usr/lib/gcc/x86_64-unknown-linux-gnu/4.9.2/../../../../lib/libc.a(strtold_l.o)
 .data          0x00000000006b30e8        0x0 /usr/lib/gcc/x86_64-unknown-linux-gnu/4.9.2/../../../../lib/libc.a(add_n.o)
 .data          0x00000000006b30e8        0x0 /usr/lib/gcc/x86_64-unknown-linux-gnu/4.9.2/../../../../lib/libc.a(addmul_1.o)
 .data          0x00000000006b30e8        0x0 /usr/lib/gcc/x86_64-unknown-linux-gnu/4.9.2/../../../../lib/libc.a(mpn2flt.o)
 .data          0x00000000006b30e8        0x0 /usr/lib/gcc/x86_64-unknown-linux-gnu/4.9.2/../../../../lib/libc.a(mpn2dbl.o)
 .data          0x00000000006b30e8        0x0 /usr/lib/gcc/x86_64-unknown-linux-gnu/4.9.2/../../../../lib/libc.a(mpn2ldbl.o)
 .data          0x00000000006b30e8        0x0 /usr/lib/gcc/x86_64-unknown-linux-gnu/4.9.2/../../../../lib/libc.a(tens_in_limb.o)
 .data          0x00000000006b30e8        0x0 /usr/lib/gcc/x86_64-unknown-linux-gnu/4.9.2/../../../../lib/libc.a(ioseekoff.o)
 .data          0x00000000006b30e8        0x0 /usr/lib/gcc/x86_64-unknown-linux-gnu/4.9.2/../../../../lib/libc.a(sdlopen.o)
 .data          0x00000000006b30e8        0x0 /usr/lib/gcc/x86_64-unknown-linux-gnu/4.9.2/../../../../lib/libc.a(sdlclose.o)
 .data          0x00000000006b30e8        0x0 /usr/lib/gcc/x86_64-unknown-linux-gnu/4.9.2/../../../../lib/libc.a(sdlsym.o)
 .data          0x00000000006b30e8        0x0 /usr/lib/gcc/x86_64-unknown-linux-gnu/4.9.2/../../../../lib/libc.a(sdlvsym.o)
 .data          0x00000000006b30e8        0x0 /usr/lib/gcc/x86_64-unknown-linux-gnu/4.9.2/../../../../lib/libc.a(strpbrk.o)
 .data          0x00000000006b30e8        0x0 /usr/lib/gcc/x86_64-unknown-linux-gnu/4.9.2/../../../../lib/libc.a(strncase_l.o)
 .data          0x00000000006b30e8        0x0 /usr/lib/gcc/x86_64-unknown-linux-gnu/4.9.2/../../../../lib/libc.a(strncase_l-ssse3.o)
 .data          0x00000000006b30e8        0x0 /usr/lib/gcc/x86_64-unknown-linux-gnu/4.9.2/../../../../lib/libc.a(strncase_l-nonascii.o)
 .data          0x00000000006b30e8        0x0 /usr/lib/gcc/x86_64-unknown-linux-gnu/4.9.2/../../../../lib/libc.a(profil.o)
 .data          0x00000000006b30e8        0x0 /usr/lib/gcc/x86_64-unknown-linux-gnu/4.9.2/../../../../lib/libc.a(prof-freq.o)
 .data          0x00000000006b30e8        0x0 /usr/lib/gcc/x86_64-unknown-linux-gnu/4.9.2/../../../../lib/libc.a(dl-sym.o)
 .data          0x00000000006b30e8        0x0 /usr/lib/gcc/x86_64-unknown-linux-gnu/4.9.2/../../../../lib/libc.a(setitimer.o)
 .data          0x00000000006b30e8        0x0 /usr/lib/gcc/x86_64-unknown-linux-gnu/4.9.2/libgcc_eh.a(unwind-dw2.o)
 .data          0x00000000006b30e8        0x8 /usr/lib/gcc/x86_64-unknown-linux-gnu/4.9.2/libgcc_eh.a(unwind-dw2-fde-dip.o)
 .data          0x00000000006b30f0        0x0 /usr/lib/gcc/x86_64-unknown-linux-gnu/4.9.2/libgcc_eh.a(unwind-c.o)
 .data          0x00000000006b30f0        0x0 /usr/lib/gcc/x86_64-unknown-linux-gnu/4.9.2/../../../../lib/libc.a(dl-iteratephdr.o)
 .data          0x00000000006b30f0        0x0 /usr/lib/gcc/x86_64-unknown-linux-gnu/4.9.2/crtend.o
 .data          0x00000000006b30f0        0x0 /usr/lib/gcc/x86_64-unknown-linux-gnu/4.9.2/../../../../lib/crtn.o

.tm_clone_table
                0x00000000006b30f0        0x0
 .tm_clone_table
                0x00000000006b30f0        0x0 /usr/lib/gcc/x86_64-unknown-linux-gnu/4.9.2/crtbeginT.o
 .tm_clone_table
                0x00000000006b30f0        0x0 /usr/lib/gcc/x86_64-unknown-linux-gnu/4.9.2/crtend.o

.data1
 *(.data1)
                0x00000000006b30f0                _edata = .
                0x00000000006b30f0                PROVIDE (edata, .)
                0x00000000006b30f0                . = .
                0x00000000006b30f0                __bss_start = .

.bss            0x00000000006b3100     0x2318
 *(.dynbss)
 *(.bss .bss.* .gnu.linkonce.b.*)
 .bss           0x00000000006b3100        0x0 /usr/lib/gcc/x86_64-unknown-linux-gnu/4.9.2/../../../../lib/crt1.o
 .bss           0x00000000006b3100        0x0 /usr/lib/gcc/x86_64-unknown-linux-gnu/4.9.2/../../../../lib/crti.o
 .bss           0x00000000006b3100       0x50 /usr/lib/gcc/x86_64-unknown-linux-gnu/4.9.2/crtbeginT.o
 .bss           0x00000000006b3150        0x0 src/main.o
 .bss           0x00000000006b3150        0x0 ../lib/libprinter.a(printer.o)
 .bss           0x00000000006b3150        0x0 /usr/lib/gcc/x86_64-unknown-linux-gnu/4.9.2/../../../../lib/libc.a(libc-start.o)
 .bss           0x00000000006b3150        0x0 /usr/lib/gcc/x86_64-unknown-linux-gnu/4.9.2/../../../../lib/libc.a(check_fds.o)
 *fill*         0x00000000006b3150       0x30 
 .bss           0x00000000006b3180      0x410 /usr/lib/gcc/x86_64-unknown-linux-gnu/4.9.2/../../../../lib/libc.a(libc-tls.o)
 .bss           0x00000000006b3590        0x0 /usr/lib/gcc/x86_64-unknown-linux-gnu/4.9.2/../../../../lib/libc.a(elf-init.o)
 .bss           0x00000000006b3590        0x0 /usr/lib/gcc/x86_64-unknown-linux-gnu/4.9.2/../../../../lib/libc.a(errno.o)
 .bss           0x00000000006b3590        0x0 /usr/lib/gcc/x86_64-unknown-linux-gnu/4.9.2/../../../../lib/libc.a(assert.o)
 .bss           0x00000000006b3590        0x0 /usr/lib/gcc/x86_64-unknown-linux-gnu/4.9.2/../../../../lib/libc.a(dcgettext.o)
 *fill*         0x00000000006b3590       0x10 
 .bss           0x00000000006b35a0       0xb8 /usr/lib/gcc/x86_64-unknown-linux-gnu/4.9.2/../../../../lib/libc.a(dcigettext.o)
                0x00000000006b35a0                _nl_state_lock
 *fill*         0x00000000006b3658        0x8 
 .bss           0x00000000006b3660       0x40 /usr/lib/gcc/x86_64-unknown-linux-gnu/4.9.2/../../../../lib/libc.a(finddomain.o)
 .bss           0x00000000006b36a0       0x10 /usr/lib/gcc/x86_64-unknown-linux-gnu/4.9.2/../../../../lib/libc.a(loadmsgcat.o)
 .bss           0x00000000006b36b0       0x2c /usr/lib/gcc/x86_64-unknown-linux-gnu/4.9.2/../../../../lib/libc.a(localealias.o)
 .bss           0x00000000006b36dc        0x0 /usr/lib/gcc/x86_64-unknown-linux-gnu/4.9.2/../../../../lib/libc.a(l10nflist.o)
 .bss           0x00000000006b36dc        0x0 /usr/lib/gcc/x86_64-unknown-linux-gnu/4.9.2/../../../../lib/libc.a(explodename.o)
 .bss           0x00000000006b36dc        0x0 /usr/lib/gcc/x86_64-unknown-linux-gnu/4.9.2/../../../../lib/libc.a(plural.o)
 .bss           0x00000000006b36dc        0x0 /usr/lib/gcc/x86_64-unknown-linux-gnu/4.9.2/../../../../lib/libc.a(plural-exp.o)
 .bss           0x00000000006b36dc        0x0 /usr/lib/gcc/x86_64-unknown-linux-gnu/4.9.2/../../../../lib/libc.a(hash-string.o)
 .bss           0x00000000006b36dc        0x0 /usr/lib/gcc/x86_64-unknown-linux-gnu/4.9.2/../../../../lib/libc.a(bsd-_setjmp.o)
 .bss           0x00000000006b36dc        0x0 /usr/lib/gcc/x86_64-unknown-linux-gnu/4.9.2/../../../../lib/libc.a(raise.o)
 *fill*         0x00000000006b36dc        0x4 
 .bss           0x00000000006b36e0       0x24 /usr/lib/gcc/x86_64-unknown-linux-gnu/4.9.2/../../../../lib/libc.a(abort.o)
                0x00000000006b36e0                __abort_msg
 *fill*         0x00000000006b3704        0x4 
 .bss           0x00000000006b3708        0xc /usr/lib/gcc/x86_64-unknown-linux-gnu/4.9.2/../../../../lib/libc.a(msort.o)
 .bss           0x00000000006b3714        0x0 /usr/lib/gcc/x86_64-unknown-linux-gnu/4.9.2/../../../../lib/libc.a(getenv.o)
 .bss           0x00000000006b3714        0x0 /usr/lib/gcc/x86_64-unknown-linux-gnu/4.9.2/../../../../lib/libc.a(exit.o)
 *fill*         0x00000000006b3714       0x2c 
 .bss           0x00000000006b3740      0x414 /usr/lib/gcc/x86_64-unknown-linux-gnu/4.9.2/../../../../lib/libc.a(cxa_atexit.o)
 .bss           0x00000000006b3b54        0x0 /usr/lib/gcc/x86_64-unknown-linux-gnu/4.9.2/../../../../lib/libc.a(strtoul.o)
 .bss           0x00000000006b3b54        0x0 /usr/lib/gcc/x86_64-unknown-linux-gnu/4.9.2/../../../../lib/libc.a(strtoul_l.o)
 .bss           0x00000000006b3b54        0x0 /usr/lib/gcc/x86_64-unknown-linux-gnu/4.9.2/../../../../lib/libc.a(grouping.o)
 .bss           0x00000000006b3b54        0x0 /usr/lib/gcc/x86_64-unknown-linux-gnu/4.9.2/../../../../lib/libc.a(asprintf.o)
 .bss           0x00000000006b3b54        0x0 /usr/lib/gcc/x86_64-unknown-linux-gnu/4.9.2/../../../../lib/libc.a(fxprintf.o)
 .bss           0x00000000006b3b54        0x0 /usr/lib/gcc/x86_64-unknown-linux-gnu/4.9.2/../../../../lib/libc.a(iofclose.o)
 .bss           0x00000000006b3b54        0x0 /usr/lib/gcc/x86_64-unknown-linux-gnu/4.9.2/../../../../lib/libc.a(iofflush.o)
 .bss           0x00000000006b3b54        0x0 /usr/lib/gcc/x86_64-unknown-linux-gnu/4.9.2/../../../../lib/libc.a(iofopen.o)
 .bss           0x00000000006b3b54        0x0 /usr/lib/gcc/x86_64-unknown-linux-gnu/4.9.2/../../../../lib/libc.a(wprintf.o)
 .bss           0x00000000006b3b54        0x0 /usr/lib/gcc/x86_64-unknown-linux-gnu/4.9.2/../../../../lib/libc.a(wfileops.o)
 .bss           0x00000000006b3b54        0x0 /usr/lib/gcc/x86_64-unknown-linux-gnu/4.9.2/../../../../lib/libc.a(vasprintf.o)
 .bss           0x00000000006b3b54        0x0 /usr/lib/gcc/x86_64-unknown-linux-gnu/4.9.2/../../../../lib/libc.a(fcloseall.o)
 .bss           0x00000000006b3b54        0x0 /usr/lib/gcc/x86_64-unknown-linux-gnu/4.9.2/../../../../lib/libc.a(libc_fatal.o)
 .bss           0x00000000006b3b54        0x0 /usr/lib/gcc/x86_64-unknown-linux-gnu/4.9.2/../../../../lib/libc.a(iofgets_u.o)
 .bss           0x00000000006b3b54        0x0 /usr/lib/gcc/x86_64-unknown-linux-gnu/4.9.2/../../../../lib/libc.a(fileops.o)
 *fill*         0x00000000006b3b54        0xc 
 .bss           0x00000000006b3b60       0x30 /usr/lib/gcc/x86_64-unknown-linux-gnu/4.9.2/../../../../lib/libc.a(genops.o)
 .bss           0x00000000006b3b90       0x30 /usr/lib/gcc/x86_64-unknown-linux-gnu/4.9.2/../../../../lib/libc.a(stdfiles.o)
 .bss           0x00000000006b3bc0        0x0 /usr/lib/gcc/x86_64-unknown-linux-gnu/4.9.2/../../../../lib/libc.a(stdio.o)
 .bss           0x00000000006b3bc0        0x0 /usr/lib/gcc/x86_64-unknown-linux-gnu/4.9.2/../../../../lib/libc.a(strops.o)
 .bss           0x00000000006b3bc0       0xa8 /usr/lib/gcc/x86_64-unknown-linux-gnu/4.9.2/../../../../lib/libc.a(malloc.o)
                0x00000000006b3bc0                __after_morecore_hook
                0x00000000006b3bc8                __free_hook
                0x00000000006b3bd0                __malloc_initialize_hook
 .bss           0x00000000006b3c68        0x0 /usr/lib/gcc/x86_64-unknown-linux-gnu/4.9.2/../../../../lib/libc.a(morecore.o)
 .bss           0x00000000006b3c68        0x0 /usr/lib/gcc/x86_64-unknown-linux-gnu/4.9.2/../../../../lib/libc.a(strchr.o)
 .bss           0x00000000006b3c68        0x0 /usr/lib/gcc/x86_64-unknown-linux-gnu/4.9.2/../../../../lib/libc.a(strcmp.o)
 .bss           0x00000000006b3c68        0x0 /usr/lib/gcc/x86_64-unknown-linux-gnu/4.9.2/../../../../lib/libc.a(strcpy.o)
 .bss           0x00000000006b3c68        0x0 /usr/lib/gcc/x86_64-unknown-linux-gnu/4.9.2/../../../../lib/libc.a(strdup.o)
 .bss           0x00000000006b3c68        0x0 /usr/lib/gcc/x86_64-unknown-linux-gnu/4.9.2/../../../../lib/libc.a(strlen.o)
 .bss           0x00000000006b3c68        0x0 /usr/lib/gcc/x86_64-unknown-linux-gnu/4.9.2/../../../../lib/libc.a(strncmp.o)
 .bss           0x00000000006b3c68        0x0 /usr/lib/gcc/x86_64-unknown-linux-gnu/4.9.2/../../../../lib/libc.a(strstr.o)
 .bss           0x00000000006b3c68        0x0 /usr/lib/gcc/x86_64-unknown-linux-gnu/4.9.2/../../../../lib/libc.a(memchr.o)
 .bss           0x00000000006b3c68        0x0 /usr/lib/gcc/x86_64-unknown-linux-gnu/4.9.2/../../../../lib/libc.a(memcmp.o)
 .bss           0x00000000006b3c68        0x0 /usr/lib/gcc/x86_64-unknown-linux-gnu/4.9.2/../../../../lib/libc.a(memmove.o)
 .bss           0x00000000006b3c68        0x0 /usr/lib/gcc/x86_64-unknown-linux-gnu/4.9.2/../../../../lib/libc.a(memset.o)
 .bss           0x00000000006b3c68        0x0 /usr/lib/gcc/x86_64-unknown-linux-gnu/4.9.2/../../../../lib/libc.a(mempcpy.o)
 .bss           0x00000000006b3c68        0x0 /usr/lib/gcc/x86_64-unknown-linux-gnu/4.9.2/../../../../lib/libc.a(stpcpy.o)
 .bss           0x00000000006b3c68        0x0 /usr/lib/gcc/x86_64-unknown-linux-gnu/4.9.2/../../../../lib/libc.a(strcasecmp_l.o)
 .bss           0x00000000006b3c68        0x0 /usr/lib/gcc/x86_64-unknown-linux-gnu/4.9.2/../../../../lib/libc.a(memcpy.o)
 .bss           0x00000000006b3c68        0x0 /usr/lib/gcc/x86_64-unknown-linux-gnu/4.9.2/../../../../lib/libc.a(wordcopy.o)
 .bss           0x00000000006b3c68        0x0 /usr/lib/gcc/x86_64-unknown-linux-gnu/4.9.2/../../../../lib/libc.a(rawmemchr.o)
 .bss           0x00000000006b3c68        0x0 /usr/lib/gcc/x86_64-unknown-linux-gnu/4.9.2/../../../../lib/libc.a(strchrnul.o)
 .bss           0x00000000006b3c68        0x0 /usr/lib/gcc/x86_64-unknown-linux-gnu/4.9.2/../../../../lib/libc.a(strcmp-ssse3.o)
 .bss           0x00000000006b3c68        0x0 /usr/lib/gcc/x86_64-unknown-linux-gnu/4.9.2/../../../../lib/libc.a(strcmp-sse2-unaligned.o)
 .bss           0x00000000006b3c68        0x0 /usr/lib/gcc/x86_64-unknown-linux-gnu/4.9.2/../../../../lib/libc.a(memcmp-sse4.o)
 .bss           0x00000000006b3c68        0x0 /usr/lib/gcc/x86_64-unknown-linux-gnu/4.9.2/../../../../lib/libc.a(memmove-ssse3.o)
 .bss           0x00000000006b3c68        0x0 /usr/lib/gcc/x86_64-unknown-linux-gnu/4.9.2/../../../../lib/libc.a(memmove-avx-unaligned.o)
 .bss           0x00000000006b3c68        0x0 /usr/lib/gcc/x86_64-unknown-linux-gnu/4.9.2/../../../../lib/libc.a(memmove-ssse3-back.o)
 .bss           0x00000000006b3c68        0x0 /usr/lib/gcc/x86_64-unknown-linux-gnu/4.9.2/../../../../lib/libc.a(strcasecmp_l-ssse3.o)
 .bss           0x00000000006b3c68        0x0 /usr/lib/gcc/x86_64-unknown-linux-gnu/4.9.2/../../../../lib/libc.a(strcpy-ssse3.o)
 .bss           0x00000000006b3c68        0x0 /usr/lib/gcc/x86_64-unknown-linux-gnu/4.9.2/../../../../lib/libc.a(stpcpy-ssse3.o)
 .bss           0x00000000006b3c68        0x0 /usr/lib/gcc/x86_64-unknown-linux-gnu/4.9.2/../../../../lib/libc.a(strcpy-sse2-unaligned.o)
 .bss           0x00000000006b3c68        0x0 /usr/lib/gcc/x86_64-unknown-linux-gnu/4.9.2/../../../../lib/libc.a(stpcpy-sse2-unaligned.o)
 .bss           0x00000000006b3c68        0x0 /usr/lib/gcc/x86_64-unknown-linux-gnu/4.9.2/../../../../lib/libc.a(strchr-sse2-no-bsf.o)
 .bss           0x00000000006b3c68        0x0 /usr/lib/gcc/x86_64-unknown-linux-gnu/4.9.2/../../../../lib/libc.a(memcmp-ssse3.o)
 .bss           0x00000000006b3c68        0x0 /usr/lib/gcc/x86_64-unknown-linux-gnu/4.9.2/../../../../lib/libc.a(strstr-sse2-unaligned.o)
 .bss           0x00000000006b3c68        0x0 /usr/lib/gcc/x86_64-unknown-linux-gnu/4.9.2/../../../../lib/libc.a(memset-avx2.o)
 .bss           0x00000000006b3c68        0x0 /usr/lib/gcc/x86_64-unknown-linux-gnu/4.9.2/../../../../lib/libc.a(cacheinfo.o)
 .bss           0x00000000006b3c68        0x0 /usr/lib/gcc/x86_64-unknown-linux-gnu/4.9.2/../../../../lib/libc.a(strcasecmp_l-nonascii.o)
 .bss           0x00000000006b3c68        0x0 /usr/lib/gcc/x86_64-unknown-linux-gnu/4.9.2/../../../../lib/libc.a(wmempcpy.o)
 .bss           0x00000000006b3c68        0x0 /usr/lib/gcc/x86_64-unknown-linux-gnu/4.9.2/../../../../lib/libc.a(wcsmbsload.o)
 .bss           0x00000000006b3c68        0x0 /usr/lib/gcc/x86_64-unknown-linux-gnu/4.9.2/../../../../lib/libc.a(_exit.o)
 .bss           0x00000000006b3c68        0x0 /usr/lib/gcc/x86_64-unknown-linux-gnu/4.9.2/../../../../lib/libc.a(sysconf.o)
 .bss           0x00000000006b3c68        0x0 /usr/lib/gcc/x86_64-unknown-linux-gnu/4.9.2/../../../../lib/libc.a(sched_yield.o)
 .bss           0x00000000006b3c68        0x0 /usr/lib/gcc/x86_64-unknown-linux-gnu/4.9.2/../../../../lib/libc.a(get_child_max.o)
 .bss           0x00000000006b3c68        0x8 /usr/lib/gcc/x86_64-unknown-linux-gnu/4.9.2/../../../../lib/libc.a(environ.o)
                0x00000000006b3c68                _environ
                0x00000000006b3c68                __environ
                0x00000000006b3c68                environ
 .bss           0x00000000006b3c70        0x0 /usr/lib/gcc/x86_64-unknown-linux-gnu/4.9.2/../../../../lib/libc.a(xstat.o)
 .bss           0x00000000006b3c70        0x0 /usr/lib/gcc/x86_64-unknown-linux-gnu/4.9.2/../../../../lib/libc.a(fxstat.o)
 .bss           0x00000000006b3c70        0x0 /usr/lib/gcc/x86_64-unknown-linux-gnu/4.9.2/../../../../lib/libc.a(open.o)
 .bss           0x00000000006b3c70        0x0 /usr/lib/gcc/x86_64-unknown-linux-gnu/4.9.2/../../../../lib/libc.a(read.o)
 .bss           0x00000000006b3c70        0x0 /usr/lib/gcc/x86_64-unknown-linux-gnu/4.9.2/../../../../lib/libc.a(write.o)
 .bss           0x00000000006b3c70        0x0 /usr/lib/gcc/x86_64-unknown-linux-gnu/4.9.2/../../../../lib/libc.a(fcntl.o)
 .bss           0x00000000006b3c70        0x0 /usr/lib/gcc/x86_64-unknown-linux-gnu/4.9.2/../../../../lib/libc.a(close.o)
 .bss           0x00000000006b3c70        0x0 /usr/lib/gcc/x86_64-unknown-linux-gnu/4.9.2/../../../../lib/libc.a(getcwd.o)
 .bss           0x00000000006b3c70        0x0 /usr/lib/gcc/x86_64-unknown-linux-gnu/4.9.2/../../../../lib/libc.a(getrlimit.o)
 .bss           0x00000000006b3c70        0x0 /usr/lib/gcc/x86_64-unknown-linux-gnu/4.9.2/../../../../lib/libc.a(sbrk.o)
 .bss           0x00000000006b3c70        0x0 /usr/lib/gcc/x86_64-unknown-linux-gnu/4.9.2/../../../../lib/libc.a(getpagesize.o)
 .bss           0x00000000006b3c70        0x0 /usr/lib/gcc/x86_64-unknown-linux-gnu/4.9.2/../../../../lib/libc.a(getdtsz.o)
 .bss           0x00000000006b3c70        0x0 /usr/lib/gcc/x86_64-unknown-linux-gnu/4.9.2/../../../../lib/libc.a(mmap.o)
 .bss           0x00000000006b3c70        0x0 /usr/lib/gcc/x86_64-unknown-linux-gnu/4.9.2/../../../../lib/libc.a(munmap.o)
 .bss           0x00000000006b3c70        0x0 /usr/lib/gcc/x86_64-unknown-linux-gnu/4.9.2/../../../../lib/libc.a(mprotect.o)
 .bss           0x00000000006b3c70        0x0 /usr/lib/gcc/x86_64-unknown-linux-gnu/4.9.2/../../../../lib/libc.a(madvise.o)
 .bss           0x00000000006b3c70        0x0 /usr/lib/gcc/x86_64-unknown-linux-gnu/4.9.2/../../../../lib/libc.a(tsearch.o)
 .bss           0x00000000006b3c70        0x8 /usr/lib/gcc/x86_64-unknown-linux-gnu/4.9.2/../../../../lib/libc.a(getsysstats.o)
 .bss           0x00000000006b3c78        0x0 /usr/lib/gcc/x86_64-unknown-linux-gnu/4.9.2/../../../../lib/libc.a(getclktck.o)
 .bss           0x00000000006b3c78        0x0 /usr/lib/gcc/x86_64-unknown-linux-gnu/4.9.2/../../../../lib/libc.a(init-misc.o)
 .bss           0x00000000006b3c78        0x0 /usr/lib/gcc/x86_64-unknown-linux-gnu/4.9.2/../../../../lib/libc.a(llseek.o)
 .bss           0x00000000006b3c78        0x0 /usr/lib/gcc/x86_64-unknown-linux-gnu/4.9.2/../../../../lib/libc.a(mremap.o)
 .bss           0x00000000006b3c78        0x0 /usr/lib/gcc/x86_64-unknown-linux-gnu/4.9.2/../../../../lib/libc.a(alloca_cutoff.o)
 .bss           0x00000000006b3c78        0x0 /usr/lib/gcc/x86_64-unknown-linux-gnu/4.9.2/../../../../lib/libc.a(libc-lowlevellock.o)
 .bss           0x00000000006b3c78        0x0 /usr/lib/gcc/x86_64-unknown-linux-gnu/4.9.2/../../../../lib/libc.a(libc-cancellation.o)
 .bss           0x00000000006b3c78        0x0 /usr/lib/gcc/x86_64-unknown-linux-gnu/4.9.2/../../../../lib/libc.a(libc_multiple_threads.o)
 *fill*         0x00000000006b3c78        0x8 
 .bss           0x00000000006b3c80      0x948 /usr/lib/gcc/x86_64-unknown-linux-gnu/4.9.2/../../../../lib/libc.a(register-atfork.o)
                0x00000000006b3c80                __fork_lock
 .bss           0x00000000006b45c8        0x0 /usr/lib/gcc/x86_64-unknown-linux-gnu/4.9.2/../../../../lib/libc.a(backtrace.o)
 .bss           0x00000000006b45c8        0x0 /usr/lib/gcc/x86_64-unknown-linux-gnu/4.9.2/../../../../lib/libc.a(backtracesymsfd.o)
 .bss           0x00000000006b45c8        0x0 /usr/lib/gcc/x86_64-unknown-linux-gnu/4.9.2/../../../../lib/libc.a(chk_fail.o)
 .bss           0x00000000006b45c8        0x0 /usr/lib/gcc/x86_64-unknown-linux-gnu/4.9.2/../../../../lib/libc.a(fortify_fail.o)
 .bss           0x00000000006b45c8        0x0 /usr/lib/gcc/x86_64-unknown-linux-gnu/4.9.2/../../../../lib/libc.a(dl-debug.o)
 .bss           0x00000000006b45c8       0x20 /usr/lib/gcc/x86_64-unknown-linux-gnu/4.9.2/../../../../lib/libc.a(dl-support.o)
                0x00000000006b45c8                _dl_hwcap_mask
                0x00000000006b45d0                _dl_hwcap2
                0x00000000006b45d8                _dl_hwcap
 .bss           0x00000000006b45e8        0x0 /usr/lib/gcc/x86_64-unknown-linux-gnu/4.9.2/../../../../lib/libc.a(dl-addr.o)
 .bss           0x00000000006b45e8        0x0 /usr/lib/gcc/x86_64-unknown-linux-gnu/4.9.2/../../../../lib/libc.a(enbl-secure.o)
 .bss           0x00000000006b45e8        0x0 /usr/lib/gcc/x86_64-unknown-linux-gnu/4.9.2/../../../../lib/libc.a(dl-sysdep.o)
 .bss           0x00000000006b45e8        0x0 /usr/lib/gcc/x86_64-unknown-linux-gnu/4.9.2/../../../../lib/libc.a(init-first.o)
 .bss           0x00000000006b45e8        0x0 /usr/lib/gcc/x86_64-unknown-linux-gnu/4.9.2/../../../../lib/libc.a(sysdep.o)
 .bss           0x00000000006b45e8        0x0 /usr/lib/gcc/x86_64-unknown-linux-gnu/4.9.2/../../../../lib/libc.a(init-arch.o)
 .bss           0x00000000006b45e8        0x0 /usr/lib/gcc/x86_64-unknown-linux-gnu/4.9.2/../../../../lib/libc.a(gconv_open.o)
 .bss           0x00000000006b45e8        0x0 /usr/lib/gcc/x86_64-unknown-linux-gnu/4.9.2/../../../../lib/libc.a(gconv.o)
 .bss           0x00000000006b45e8        0x0 /usr/lib/gcc/x86_64-unknown-linux-gnu/4.9.2/../../../../lib/libc.a(gconv_close.o)
 .bss           0x00000000006b45e8       0x10 /usr/lib/gcc/x86_64-unknown-linux-gnu/4.9.2/../../../../lib/libc.a(gconv_db.o)
 .bss           0x00000000006b45f8        0x8 /usr/lib/gcc/x86_64-unknown-linux-gnu/4.9.2/../../../../lib/libc.a(gconv_conf.o)
 .bss           0x00000000006b4600        0x0 /usr/lib/gcc/x86_64-unknown-linux-gnu/4.9.2/../../../../lib/libc.a(gconv_builtin.o)
 .bss           0x00000000006b4600        0x0 /usr/lib/gcc/x86_64-unknown-linux-gnu/4.9.2/../../../../lib/libc.a(gconv_simple.o)
 .bss           0x00000000006b4600        0x0 /usr/lib/gcc/x86_64-unknown-linux-gnu/4.9.2/../../../../lib/libc.a(gconv_trans.o)
 .bss           0x00000000006b4600       0x18 /usr/lib/gcc/x86_64-unknown-linux-gnu/4.9.2/../../../../lib/libc.a(gconv_cache.o)
 .bss           0x00000000006b4618       0x10 /usr/lib/gcc/x86_64-unknown-linux-gnu/4.9.2/../../../../lib/libc.a(gconv_dl.o)
 *fill*         0x00000000006b4628       0x18 
 .bss           0x00000000006b4640       0x38 /usr/lib/gcc/x86_64-unknown-linux-gnu/4.9.2/../../../../lib/libc.a(setlocale.o)
                0x00000000006b4640                __libc_setlocale_lock
 .bss           0x00000000006b4678        0x0 /usr/lib/gcc/x86_64-unknown-linux-gnu/4.9.2/../../../../lib/libc.a(findlocale.o)
 .bss           0x00000000006b4678        0x0 /usr/lib/gcc/x86_64-unknown-linux-gnu/4.9.2/../../../../lib/libc.a(loadlocale.o)
 *fill*         0x00000000006b4678        0x8 
 .bss           0x00000000006b4680       0xf0 /usr/lib/gcc/x86_64-unknown-linux-gnu/4.9.2/../../../../lib/libc.a(loadarchive.o)
 .bss           0x00000000006b4770        0x0 /usr/lib/gcc/x86_64-unknown-linux-gnu/4.9.2/../../../../lib/libc.a(lc-ctype.o)
 .bss           0x00000000006b4770        0x0 /usr/lib/gcc/x86_64-unknown-linux-gnu/4.9.2/../../../../lib/libc.a(C-ctype.o)
 .bss           0x00000000006b4770        0x0 /usr/lib/gcc/x86_64-unknown-linux-gnu/4.9.2/../../../../lib/libc.a(SYS_libc.o)
 .bss           0x00000000006b4770        0x0 /usr/lib/gcc/x86_64-unknown-linux-gnu/4.9.2/../../../../lib/libc.a(C_name.o)
 .bss           0x00000000006b4770        0x0 /usr/lib/gcc/x86_64-unknown-linux-gnu/4.9.2/../../../../lib/libc.a(xlocale.o)
 .bss           0x00000000006b4770        0x0 /usr/lib/gcc/x86_64-unknown-linux-gnu/4.9.2/../../../../lib/libc.a(localename.o)
 .bss           0x00000000006b4770        0x0 /usr/lib/gcc/x86_64-unknown-linux-gnu/4.9.2/../../../../lib/libc.a(global-locale.o)
 .bss           0x00000000006b4770        0x0 /usr/lib/gcc/x86_64-unknown-linux-gnu/4.9.2/../../../../lib/libc.a(ctype-info.o)
 .bss           0x00000000006b4770        0x0 /usr/lib/gcc/x86_64-unknown-linux-gnu/4.9.2/../../../../lib/libc.a(setfpucw.o)
 .bss           0x00000000006b4770        0x0 /usr/lib/gcc/x86_64-unknown-linux-gnu/4.9.2/../../../../lib/libc.a(fpu_control.o)
 .bss           0x00000000006b4770        0x0 /usr/lib/gcc/x86_64-unknown-linux-gnu/4.9.2/../../../../lib/libc.a(setjmp.o)
 .bss           0x00000000006b4770        0x0 /usr/lib/gcc/x86_64-unknown-linux-gnu/4.9.2/../../../../lib/libc.a(sigjmp.o)
 .bss           0x00000000006b4770        0x0 /usr/lib/gcc/x86_64-unknown-linux-gnu/4.9.2/../../../../lib/libc.a(sigaction.o)
 .bss           0x00000000006b4770        0x0 /usr/lib/gcc/x86_64-unknown-linux-gnu/4.9.2/../../../../lib/libc.a(sigprocmask.o)
 .bss           0x00000000006b4770        0x0 /usr/lib/gcc/x86_64-unknown-linux-gnu/4.9.2/../../../../lib/libc.a(qsort.o)
 .bss           0x00000000006b4770       0x14 /usr/lib/gcc/x86_64-unknown-linux-gnu/4.9.2/../../../../lib/libc.a(setenv.o)
 .bss           0x00000000006b4784        0x0 /usr/lib/gcc/x86_64-unknown-linux-gnu/4.9.2/../../../../lib/libc.a(secure-getenv.o)
 .bss           0x00000000006b4784        0x0 /usr/lib/gcc/x86_64-unknown-linux-gnu/4.9.2/../../../../lib/libc.a(strtol.o)
 .bss           0x00000000006b4784        0x0 /usr/lib/gcc/x86_64-unknown-linux-gnu/4.9.2/../../../../lib/libc.a(strtol_l.o)
 .bss           0x00000000006b4784        0x0 /usr/lib/gcc/x86_64-unknown-linux-gnu/4.9.2/../../../../lib/libc.a(_itoa.o)
 .bss           0x00000000006b4784        0x0 /usr/lib/gcc/x86_64-unknown-linux-gnu/4.9.2/../../../../lib/libc.a(itoa-digits.o)
 .bss           0x00000000006b4784        0x0 /usr/lib/gcc/x86_64-unknown-linux-gnu/4.9.2/../../../../lib/libc.a(itoa-udigits.o)
 .bss           0x00000000006b4784        0x0 /usr/lib/gcc/x86_64-unknown-linux-gnu/4.9.2/../../../../lib/libc.a(vfprintf.o)
 .bss           0x00000000006b4784        0x0 /usr/lib/gcc/x86_64-unknown-linux-gnu/4.9.2/../../../../lib/libc.a(printf_fp.o)
 .bss           0x00000000006b4784        0x4 /usr/lib/gcc/x86_64-unknown-linux-gnu/4.9.2/../../../../lib/libc.a(reg-printf.o)
 .bss           0x00000000006b4788        0x0 /usr/lib/gcc/x86_64-unknown-linux-gnu/4.9.2/../../../../lib/libc.a(printf_fphex.o)
 .bss           0x00000000006b4788        0x8 /usr/lib/gcc/x86_64-unknown-linux-gnu/4.9.2/../../../../lib/libc.a(reg-modifier.o)
 .bss           0x00000000006b4790        0x4 /usr/lib/gcc/x86_64-unknown-linux-gnu/4.9.2/../../../../lib/libc.a(reg-type.o)
 .bss           0x00000000006b4794        0x0 /usr/lib/gcc/x86_64-unknown-linux-gnu/4.9.2/../../../../lib/libc.a(fprintf.o)
 .bss           0x00000000006b4794        0x0 /usr/lib/gcc/x86_64-unknown-linux-gnu/4.9.2/../../../../lib/libc.a(vfwprintf.o)
 .bss           0x00000000006b4794        0x0 /usr/lib/gcc/x86_64-unknown-linux-gnu/4.9.2/../../../../lib/libc.a(sscanf.o)
 .bss           0x00000000006b4794        0x0 /usr/lib/gcc/x86_64-unknown-linux-gnu/4.9.2/../../../../lib/libc.a(funlockfile.o)
 .bss           0x00000000006b4794        0x0 /usr/lib/gcc/x86_64-unknown-linux-gnu/4.9.2/../../../../lib/libc.a(printf-parsemb.o)
 .bss           0x00000000006b4794        0x0 /usr/lib/gcc/x86_64-unknown-linux-gnu/4.9.2/../../../../lib/libc.a(printf-parsewc.o)
 .bss           0x00000000006b4794        0x0 /usr/lib/gcc/x86_64-unknown-linux-gnu/4.9.2/../../../../lib/libc.a(filedoalloc.o)
 .bss           0x00000000006b4794        0x0 /usr/lib/gcc/x86_64-unknown-linux-gnu/4.9.2/../../../../lib/libc.a(iofputs.o)
 .bss           0x00000000006b4794        0x0 /usr/lib/gcc/x86_64-unknown-linux-gnu/4.9.2/../../../../lib/libc.a(wfiledoalloc.o)
 .bss           0x00000000006b4794        0x0 /usr/lib/gcc/x86_64-unknown-linux-gnu/4.9.2/../../../../lib/libc.a(iofwrite.o)
 .bss           0x00000000006b4794        0x0 /usr/lib/gcc/x86_64-unknown-linux-gnu/4.9.2/../../../../lib/libc.a(iogetdelim.o)
 .bss           0x00000000006b4794        0x0 /usr/lib/gcc/x86_64-unknown-linux-gnu/4.9.2/../../../../lib/libc.a(iogetline.o)
 .bss           0x00000000006b4794        0x0 /usr/lib/gcc/x86_64-unknown-linux-gnu/4.9.2/../../../../lib/libc.a(iopadn.o)
 .bss           0x00000000006b4794        0x0 /usr/lib/gcc/x86_64-unknown-linux-gnu/4.9.2/../../../../lib/libc.a(iovsscanf.o)
 .bss           0x00000000006b4794        0x0 /usr/lib/gcc/x86_64-unknown-linux-gnu/4.9.2/../../../../lib/libc.a(iowpadn.o)
 .bss           0x00000000006b4794        0x0 /usr/lib/gcc/x86_64-unknown-linux-gnu/4.9.2/../../../../lib/libc.a(wgenops.o)
 .bss           0x00000000006b4794        0x0 /usr/lib/gcc/x86_64-unknown-linux-gnu/4.9.2/../../../../lib/libc.a(iofwide.o)
 .bss           0x00000000006b4794        0x0 /usr/lib/gcc/x86_64-unknown-linux-gnu/4.9.2/../../../../lib/libc.a(strndup.o)
 .bss           0x00000000006b4794        0x0 /usr/lib/gcc/x86_64-unknown-linux-gnu/4.9.2/../../../../lib/libc.a(_strerror.o)
 .bss           0x00000000006b4794        0x0 /usr/lib/gcc/x86_64-unknown-linux-gnu/4.9.2/../../../../lib/libc.a(strnlen.o)
 .bss           0x00000000006b4794        0x0 /usr/lib/gcc/x86_64-unknown-linux-gnu/4.9.2/../../../../lib/libc.a(strrchr.o)
 .bss           0x00000000006b4794        0x0 /usr/lib/gcc/x86_64-unknown-linux-gnu/4.9.2/../../../../lib/libc.a(memmem.o)
 .bss           0x00000000006b4794        0x0 /usr/lib/gcc/x86_64-unknown-linux-gnu/4.9.2/../../../../lib/libc.a(argz-ctsep.o)
 .bss           0x00000000006b4794        0x0 /usr/lib/gcc/x86_64-unknown-linux-gnu/4.9.2/../../../../lib/libc.a(argz-addsep.o)
 .bss           0x00000000006b4794        0x0 /usr/lib/gcc/x86_64-unknown-linux-gnu/4.9.2/../../../../lib/libc.a(wcslen.o)
 .bss           0x00000000006b4794        0x0 /usr/lib/gcc/x86_64-unknown-linux-gnu/4.9.2/../../../../lib/libc.a(wmemcpy.o)
 .bss           0x00000000006b4794        0x0 /usr/lib/gcc/x86_64-unknown-linux-gnu/4.9.2/../../../../lib/libc.a(wmemmove.o)
 .bss           0x00000000006b4794        0x0 /usr/lib/gcc/x86_64-unknown-linux-gnu/4.9.2/../../../../lib/libc.a(wmemset.o)
 .bss           0x00000000006b4794        0x0 /usr/lib/gcc/x86_64-unknown-linux-gnu/4.9.2/../../../../lib/libc.a(btowc.o)
 .bss           0x00000000006b4794        0x8 /usr/lib/gcc/x86_64-unknown-linux-gnu/4.9.2/../../../../lib/libc.a(wcrtomb.o)
 .bss           0x00000000006b479c        0x8 /usr/lib/gcc/x86_64-unknown-linux-gnu/4.9.2/../../../../lib/libc.a(mbsrtowcs.o)
 .bss           0x00000000006b47a4        0x8 /usr/lib/gcc/x86_64-unknown-linux-gnu/4.9.2/../../../../lib/libc.a(wcsrtombs.o)
 .bss           0x00000000006b47ac        0x0 /usr/lib/gcc/x86_64-unknown-linux-gnu/4.9.2/../../../../lib/libc.a(wcsnlen.o)
 .bss           0x00000000006b47ac        0x0 /usr/lib/gcc/x86_64-unknown-linux-gnu/4.9.2/../../../../lib/libc.a(wcschrnul.o)
 .bss           0x00000000006b47ac        0x0 /usr/lib/gcc/x86_64-unknown-linux-gnu/4.9.2/../../../../lib/libc.a(mbsrtowcs_l.o)
 .bss           0x00000000006b47ac        0x0 /usr/lib/gcc/x86_64-unknown-linux-gnu/4.9.2/../../../../lib/libc.a(time.o)
 *fill*         0x00000000006b47ac       0x14 
 .bss           0x00000000006b47c0       0xa4 /usr/lib/gcc/x86_64-unknown-linux-gnu/4.9.2/../../../../lib/libc.a(tzset.o)
                0x00000000006b47c0                timezone
                0x00000000006b47c0                __timezone
                0x00000000006b47c8                __daylight
                0x00000000006b47c8                daylight
 *fill*         0x00000000006b4864        0x4 
 .bss           0x00000000006b4868       0x68 /usr/lib/gcc/x86_64-unknown-linux-gnu/4.9.2/../../../../lib/libc.a(tzfile.o)
 .bss           0x00000000006b48d0        0x0 /usr/lib/gcc/x86_64-unknown-linux-gnu/4.9.2/../../../../lib/libc.a(opendir.o)
 .bss           0x00000000006b48d0        0x0 /usr/lib/gcc/x86_64-unknown-linux-gnu/4.9.2/../../../../lib/libc.a(closedir.o)
 .bss           0x00000000006b48d0        0x0 /usr/lib/gcc/x86_64-unknown-linux-gnu/4.9.2/../../../../lib/libc.a(readdir.o)
 .bss           0x00000000006b48d0        0x0 /usr/lib/gcc/x86_64-unknown-linux-gnu/4.9.2/../../../../lib/libc.a(rewinddir.o)
 .bss           0x00000000006b48d0        0x0 /usr/lib/gcc/x86_64-unknown-linux-gnu/4.9.2/../../../../lib/libc.a(getdents.o)
 .bss           0x00000000006b48d0        0x0 /usr/lib/gcc/x86_64-unknown-linux-gnu/4.9.2/../../../../lib/libc.a(fdopendir.o)
 .bss           0x00000000006b48d0        0x0 /usr/lib/gcc/x86_64-unknown-linux-gnu/4.9.2/../../../../lib/libc.a(uname.o)
 .bss           0x00000000006b48d0        0x0 /usr/lib/gcc/x86_64-unknown-linux-gnu/4.9.2/../../../../lib/libc.a(getuid.o)
 .bss           0x00000000006b48d0        0x0 /usr/lib/gcc/x86_64-unknown-linux-gnu/4.9.2/../../../../lib/libc.a(geteuid.o)
 .bss           0x00000000006b48d0        0x0 /usr/lib/gcc/x86_64-unknown-linux-gnu/4.9.2/../../../../lib/libc.a(getgid.o)
 .bss           0x00000000006b48d0        0x0 /usr/lib/gcc/x86_64-unknown-linux-gnu/4.9.2/../../../../lib/libc.a(getegid.o)
 .bss           0x00000000006b48d0        0x0 /usr/lib/gcc/x86_64-unknown-linux-gnu/4.9.2/../../../../lib/libc.a(lxstat.o)
 .bss           0x00000000006b48d0        0x0 /usr/lib/gcc/x86_64-unknown-linux-gnu/4.9.2/../../../../lib/libc.a(fxstatat.o)
 .bss           0x00000000006b48d0        0x0 /usr/lib/gcc/x86_64-unknown-linux-gnu/4.9.2/../../../../lib/libc.a(openat.o)
 .bss           0x00000000006b48d0        0x0 /usr/lib/gcc/x86_64-unknown-linux-gnu/4.9.2/../../../../lib/libc.a(access.o)
 .bss           0x00000000006b48d0        0x0 /usr/lib/gcc/x86_64-unknown-linux-gnu/4.9.2/../../../../lib/libc.a(isatty.o)
 .bss           0x00000000006b48d0        0x0 /usr/lib/gcc/x86_64-unknown-linux-gnu/4.9.2/../../../../lib/libc.a(tcgetattr.o)
 .bss           0x00000000006b48d0        0x8 /usr/lib/gcc/x86_64-unknown-linux-gnu/4.9.2/../../../../lib/libc.a(brk.o)
                0x00000000006b48d0                __curbrk
 .bss           0x00000000006b48d8        0x0 /usr/lib/gcc/x86_64-unknown-linux-gnu/4.9.2/../../../../lib/libc.a(writev.o)
 .bss           0x00000000006b48d8        0x0 /usr/lib/gcc/x86_64-unknown-linux-gnu/4.9.2/../../../../lib/libc.a(wctrans.o)
 .bss           0x00000000006b48d8        0x0 /usr/lib/gcc/x86_64-unknown-linux-gnu/4.9.2/../../../../lib/libc.a(towctrans.o)
 .bss           0x00000000006b48d8        0x0 /usr/lib/gcc/x86_64-unknown-linux-gnu/4.9.2/../../../../lib/libc.a(readonly-area.o)
 .bss           0x00000000006b48d8        0x8 /usr/lib/gcc/x86_64-unknown-linux-gnu/4.9.2/../../../../lib/libc.a(dl-load.o)
 .bss           0x00000000006b48e0        0x0 /usr/lib/gcc/x86_64-unknown-linux-gnu/4.9.2/../../../../lib/libc.a(dl-lookup.o)
 .bss           0x00000000006b48e0        0x0 /usr/lib/gcc/x86_64-unknown-linux-gnu/4.9.2/../../../../lib/libc.a(dl-object.o)
 .bss           0x00000000006b48e0        0x0 /usr/lib/gcc/x86_64-unknown-linux-gnu/4.9.2/../../../../lib/libc.a(dl-reloc.o)
 .bss           0x00000000006b48e0        0x0 /usr/lib/gcc/x86_64-unknown-linux-gnu/4.9.2/../../../../lib/libc.a(dl-hwcaps.o)
 .bss           0x00000000006b48e0        0x8 /usr/lib/gcc/x86_64-unknown-linux-gnu/4.9.2/../../../../lib/libc.a(dl-error.o)
 .bss           0x00000000006b48e8        0x0 /usr/lib/gcc/x86_64-unknown-linux-gnu/4.9.2/../../../../lib/libc.a(dl-misc.o)
 .bss           0x00000000006b48e8        0x0 /usr/lib/gcc/x86_64-unknown-linux-gnu/4.9.2/../../../../lib/libc.a(dl-tls.o)
 .bss           0x00000000006b48e8        0x0 /usr/lib/gcc/x86_64-unknown-linux-gnu/4.9.2/../../../../lib/libc.a(dl-origin.o)
 .bss           0x00000000006b48e8        0x0 /usr/lib/gcc/x86_64-unknown-linux-gnu/4.9.2/../../../../lib/libc.a(dl-scope.o)
 .bss           0x00000000006b48e8        0x0 /usr/lib/gcc/x86_64-unknown-linux-gnu/4.9.2/../../../../lib/libc.a(dl-execstack.o)
 .bss           0x00000000006b48e8        0x0 /usr/lib/gcc/x86_64-unknown-linux-gnu/4.9.2/../../../../lib/libc.a(dl-open.o)
 .bss           0x00000000006b48e8        0x4 /usr/lib/gcc/x86_64-unknown-linux-gnu/4.9.2/../../../../lib/libc.a(dl-close.o)
 .bss           0x00000000006b48ec        0x0 /usr/lib/gcc/x86_64-unknown-linux-gnu/4.9.2/../../../../lib/libc.a(dl-trampoline.o)
 *fill*         0x00000000006b48ec        0x4 
 .bss           0x00000000006b48f0       0x18 /usr/lib/gcc/x86_64-unknown-linux-gnu/4.9.2/../../../../lib/libc.a(dl-cache.o)
 .bss           0x00000000006b4908        0x0 /usr/lib/gcc/x86_64-unknown-linux-gnu/4.9.2/../../../../lib/libc.a(dl-profstub.o)
 .bss           0x00000000006b4908        0x0 /usr/lib/gcc/x86_64-unknown-linux-gnu/4.9.2/../../../../lib/libc.a(dl-libc.o)
 .bss           0x00000000006b4908        0x0 /usr/lib/gcc/x86_64-unknown-linux-gnu/4.9.2/../../../../lib/libc.a(dl-tsd.o)
 .bss           0x00000000006b4908        0x0 /usr/lib/gcc/x86_64-unknown-linux-gnu/4.9.2/../../../../lib/libc.a(tlsdesc.o)
 .bss           0x00000000006b4908        0x0 /usr/lib/gcc/x86_64-unknown-linux-gnu/4.9.2/../../../../lib/libc.a(dl-tlsdesc.o)
 .bss           0x00000000006b4908        0x0 /usr/lib/gcc/x86_64-unknown-linux-gnu/4.9.2/../../../../lib/libc.a(lc-monetary.o)
 .bss           0x00000000006b4908        0x0 /usr/lib/gcc/x86_64-unknown-linux-gnu/4.9.2/../../../../lib/libc.a(lc-numeric.o)
 .bss           0x00000000006b4908        0x0 /usr/lib/gcc/x86_64-unknown-linux-gnu/4.9.2/../../../../lib/libc.a(C-messages.o)
 .bss           0x00000000006b4908        0x0 /usr/lib/gcc/x86_64-unknown-linux-gnu/4.9.2/../../../../lib/libc.a(C-monetary.o)
 .bss           0x00000000006b4908        0x0 /usr/lib/gcc/x86_64-unknown-linux-gnu/4.9.2/../../../../lib/libc.a(C-numeric.o)
 .bss           0x00000000006b4908        0x0 /usr/lib/gcc/x86_64-unknown-linux-gnu/4.9.2/../../../../lib/libc.a(C-time.o)
 .bss           0x00000000006b4908        0x0 /usr/lib/gcc/x86_64-unknown-linux-gnu/4.9.2/../../../../lib/libc.a(C-paper.o)
 .bss           0x00000000006b4908        0x0 /usr/lib/gcc/x86_64-unknown-linux-gnu/4.9.2/../../../../lib/libc.a(C-name.o)
 .bss           0x00000000006b4908        0x0 /usr/lib/gcc/x86_64-unknown-linux-gnu/4.9.2/../../../../lib/libc.a(C-address.o)
 .bss           0x00000000006b4908        0x0 /usr/lib/gcc/x86_64-unknown-linux-gnu/4.9.2/../../../../lib/libc.a(C-telephone.o)
 .bss           0x00000000006b4908        0x0 /usr/lib/gcc/x86_64-unknown-linux-gnu/4.9.2/../../../../lib/libc.a(C-measurement.o)
 .bss           0x00000000006b4908        0x0 /usr/lib/gcc/x86_64-unknown-linux-gnu/4.9.2/../../../../lib/libc.a(C-identification.o)
 .bss           0x00000000006b4908        0x0 /usr/lib/gcc/x86_64-unknown-linux-gnu/4.9.2/../../../../lib/libc.a(C-collate.o)
 .bss           0x00000000006b4908        0x0 /usr/lib/gcc/x86_64-unknown-linux-gnu/4.9.2/../../../../lib/libc.a(s_isinf.o)
 .bss           0x00000000006b4908        0x0 /usr/lib/gcc/x86_64-unknown-linux-gnu/4.9.2/../../../../lib/libc.a(s_isnan.o)
 .bss           0x00000000006b4908        0x0 /usr/lib/gcc/x86_64-unknown-linux-gnu/4.9.2/../../../../lib/libc.a(s_isinfl.o)
 .bss           0x00000000006b4908        0x0 /usr/lib/gcc/x86_64-unknown-linux-gnu/4.9.2/../../../../lib/libc.a(s_isnanl.o)
 .bss           0x00000000006b4908        0x0 /usr/lib/gcc/x86_64-unknown-linux-gnu/4.9.2/../../../../lib/libc.a(__longjmp.o)
 .bss           0x00000000006b4908        0x0 /usr/lib/gcc/x86_64-unknown-linux-gnu/4.9.2/../../../../lib/libc.a(cmp.o)
 .bss           0x00000000006b4908        0x0 /usr/lib/gcc/x86_64-unknown-linux-gnu/4.9.2/../../../../lib/libc.a(divrem.o)
 .bss           0x00000000006b4908        0x0 /usr/lib/gcc/x86_64-unknown-linux-gnu/4.9.2/../../../../lib/libc.a(lshift.o)
 .bss           0x00000000006b4908        0x0 /usr/lib/gcc/x86_64-unknown-linux-gnu/4.9.2/../../../../lib/libc.a(rshift.o)
 .bss           0x00000000006b4908        0x0 /usr/lib/gcc/x86_64-unknown-linux-gnu/4.9.2/../../../../lib/libc.a(mul.o)
 .bss           0x00000000006b4908        0x0 /usr/lib/gcc/x86_64-unknown-linux-gnu/4.9.2/../../../../lib/libc.a(mul_1.o)
 .bss           0x00000000006b4908        0x0 /usr/lib/gcc/x86_64-unknown-linux-gnu/4.9.2/../../../../lib/libc.a(mul_n.o)
 .bss           0x00000000006b4908        0x0 /usr/lib/gcc/x86_64-unknown-linux-gnu/4.9.2/../../../../lib/libc.a(sub_n.o)
 .bss           0x00000000006b4908        0x0 /usr/lib/gcc/x86_64-unknown-linux-gnu/4.9.2/../../../../lib/libc.a(submul_1.o)
 .bss           0x00000000006b4908        0x0 /usr/lib/gcc/x86_64-unknown-linux-gnu/4.9.2/../../../../lib/libc.a(dbl2mpn.o)
 .bss           0x00000000006b4908        0x0 /usr/lib/gcc/x86_64-unknown-linux-gnu/4.9.2/../../../../lib/libc.a(ldbl2mpn.o)
 .bss           0x00000000006b4908        0x0 /usr/lib/gcc/x86_64-unknown-linux-gnu/4.9.2/../../../../lib/libc.a(fpioconst.o)
 .bss           0x00000000006b4908        0x0 /usr/lib/gcc/x86_64-unknown-linux-gnu/4.9.2/../../../../lib/libc.a(itowa-digits.o)
 .bss           0x00000000006b4908        0x0 /usr/lib/gcc/x86_64-unknown-linux-gnu/4.9.2/../../../../lib/libc.a(vfscanf.o)
 .bss           0x00000000006b4908        0x0 /usr/lib/gcc/x86_64-unknown-linux-gnu/4.9.2/../../../../lib/libc.a(errlist.o)
 .bss           0x00000000006b4908        0x0 /usr/lib/gcc/x86_64-unknown-linux-gnu/4.9.2/../../../../lib/libc.a(fileno.o)
 .bss           0x00000000006b4908        0x0 /usr/lib/gcc/x86_64-unknown-linux-gnu/4.9.2/../../../../lib/libc.a(fseek.o)
 .bss           0x00000000006b4908        0x0 /usr/lib/gcc/x86_64-unknown-linux-gnu/4.9.2/../../../../lib/libc.a(ftello.o)
 .bss           0x00000000006b4908        0x0 /usr/lib/gcc/x86_64-unknown-linux-gnu/4.9.2/../../../../lib/libc.a(iofread_u.o)
 *fill*         0x00000000006b4908       0x18 
 .bss           0x00000000006b4920       0x40 /usr/lib/gcc/x86_64-unknown-linux-gnu/4.9.2/../../../../lib/libc.a(sdlerror.o)
 .bss           0x00000000006b4960        0x0 /usr/lib/gcc/x86_64-unknown-linux-gnu/4.9.2/../../../../lib/libc.a(sdladdr.o)
 .bss           0x00000000006b4960        0x0 /usr/lib/gcc/x86_64-unknown-linux-gnu/4.9.2/../../../../lib/libc.a(sdladdr1.o)
 .bss           0x00000000006b4960        0x0 /usr/lib/gcc/x86_64-unknown-linux-gnu/4.9.2/../../../../lib/libc.a(sdlinfo.o)
 .bss           0x00000000006b4960        0x0 /usr/lib/gcc/x86_64-unknown-linux-gnu/4.9.2/../../../../lib/libc.a(sdlmopen.o)
 .bss           0x00000000006b4960        0x0 /usr/lib/gcc/x86_64-unknown-linux-gnu/4.9.2/../../../../lib/libc.a(strerror.o)
 .bss           0x00000000006b4960        0x0 /usr/lib/gcc/x86_64-unknown-linux-gnu/4.9.2/../../../../lib/libc.a(strsep.o)
 .bss           0x00000000006b4960        0x8 /usr/lib/gcc/x86_64-unknown-linux-gnu/4.9.2/../../../../lib/libc.a(mbrlen.o)
 .bss           0x00000000006b4968        0x8 /usr/lib/gcc/x86_64-unknown-linux-gnu/4.9.2/../../../../lib/libc.a(mbrtowc.o)
 .bss           0x00000000006b4970        0x0 /usr/lib/gcc/x86_64-unknown-linux-gnu/4.9.2/../../../../lib/libc.a(offtime.o)
 .bss           0x00000000006b4970        0x0 /usr/lib/gcc/x86_64-unknown-linux-gnu/4.9.2/../../../../lib/libc.a(localtime.o)
 .bss           0x00000000006b4970        0x8 /usr/lib/gcc/x86_64-unknown-linux-gnu/4.9.2/../../../../lib/libc.a(mktime.o)
 .bss           0x00000000006b4978        0x0 /usr/lib/gcc/x86_64-unknown-linux-gnu/4.9.2/../../../../lib/libc.a(getpid.o)
 .bss           0x00000000006b4978        0x0 /usr/lib/gcc/x86_64-unknown-linux-gnu/4.9.2/../../../../lib/libc.a(dl-deps.o)
 .bss           0x00000000006b4978        0x0 /usr/lib/gcc/x86_64-unknown-linux-gnu/4.9.2/../../../../lib/libc.a(dl-runtime.o)
 .bss           0x00000000006b4978        0x0 /usr/lib/gcc/x86_64-unknown-linux-gnu/4.9.2/../../../../lib/libc.a(dl-init.o)
 .bss           0x00000000006b4978        0x0 /usr/lib/gcc/x86_64-unknown-linux-gnu/4.9.2/../../../../lib/libc.a(dl-fini.o)
 .bss           0x00000000006b4978        0x0 /usr/lib/gcc/x86_64-unknown-linux-gnu/4.9.2/../../../../lib/libc.a(dl-version.o)
 .bss           0x00000000006b4978       0x48 /usr/lib/gcc/x86_64-unknown-linux-gnu/4.9.2/../../../../lib/libc.a(dl-profile.o)
 .bss           0x00000000006b49c0        0x0 /usr/lib/gcc/x86_64-unknown-linux-gnu/4.9.2/../../../../lib/libc.a(strtof.o)
 .bss           0x00000000006b49c0        0x0 /usr/lib/gcc/x86_64-unknown-linux-gnu/4.9.2/../../../../lib/libc.a(strtod.o)
 .bss           0x00000000006b49c0        0x0 /usr/lib/gcc/x86_64-unknown-linux-gnu/4.9.2/../../../../lib/libc.a(strtold.o)
 .bss           0x00000000006b49c0        0x0 /usr/lib/gcc/x86_64-unknown-linux-gnu/4.9.2/../../../../lib/libc.a(strtof_l.o)
 .bss           0x00000000006b49c0        0x0 /usr/lib/gcc/x86_64-unknown-linux-gnu/4.9.2/../../../../lib/libc.a(strtod_l.o)
 .bss           0x00000000006b49c0        0x0 /usr/lib/gcc/x86_64-unknown-linux-gnu/4.9.2/../../../../lib/libc.a(strtold_l.o)
 .bss           0x00000000006b49c0        0x0 /usr/lib/gcc/x86_64-unknown-linux-gnu/4.9.2/../../../../lib/libc.a(add_n.o)
 .bss           0x00000000006b49c0        0x0 /usr/lib/gcc/x86_64-unknown-linux-gnu/4.9.2/../../../../lib/libc.a(addmul_1.o)
 .bss           0x00000000006b49c0        0x0 /usr/lib/gcc/x86_64-unknown-linux-gnu/4.9.2/../../../../lib/libc.a(mpn2flt.o)
 .bss           0x00000000006b49c0        0x0 /usr/lib/gcc/x86_64-unknown-linux-gnu/4.9.2/../../../../lib/libc.a(mpn2dbl.o)
 .bss           0x00000000006b49c0        0x0 /usr/lib/gcc/x86_64-unknown-linux-gnu/4.9.2/../../../../lib/libc.a(mpn2ldbl.o)
 .bss           0x00000000006b49c0        0x0 /usr/lib/gcc/x86_64-unknown-linux-gnu/4.9.2/../../../../lib/libc.a(tens_in_limb.o)
 .bss           0x00000000006b49c0        0x0 /usr/lib/gcc/x86_64-unknown-linux-gnu/4.9.2/../../../../lib/libc.a(ioseekoff.o)
 .bss           0x00000000006b49c0        0x0 /usr/lib/gcc/x86_64-unknown-linux-gnu/4.9.2/../../../../lib/libc.a(sdlopen.o)
 .bss           0x00000000006b49c0        0x0 /usr/lib/gcc/x86_64-unknown-linux-gnu/4.9.2/../../../../lib/libc.a(sdlclose.o)
 .bss           0x00000000006b49c0        0x0 /usr/lib/gcc/x86_64-unknown-linux-gnu/4.9.2/../../../../lib/libc.a(sdlsym.o)
 .bss           0x00000000006b49c0        0x0 /usr/lib/gcc/x86_64-unknown-linux-gnu/4.9.2/../../../../lib/libc.a(sdlvsym.o)
 .bss           0x00000000006b49c0        0x0 /usr/lib/gcc/x86_64-unknown-linux-gnu/4.9.2/../../../../lib/libc.a(strpbrk.o)
 .bss           0x00000000006b49c0        0x0 /usr/lib/gcc/x86_64-unknown-linux-gnu/4.9.2/../../../../lib/libc.a(strncase_l.o)
 .bss           0x00000000006b49c0        0x0 /usr/lib/gcc/x86_64-unknown-linux-gnu/4.9.2/../../../../lib/libc.a(strncase_l-ssse3.o)
 .bss           0x00000000006b49c0        0x0 /usr/lib/gcc/x86_64-unknown-linux-gnu/4.9.2/../../../../lib/libc.a(strncase_l-nonascii.o)
 .bss           0x00000000006b49c0       0xe0 /usr/lib/gcc/x86_64-unknown-linux-gnu/4.9.2/../../../../lib/libc.a(profil.o)
 .bss           0x00000000006b4aa0        0x0 /usr/lib/gcc/x86_64-unknown-linux-gnu/4.9.2/../../../../lib/libc.a(prof-freq.o)
 .bss           0x00000000006b4aa0        0x0 /usr/lib/gcc/x86_64-unknown-linux-gnu/4.9.2/../../../../lib/libc.a(dl-sym.o)
 .bss           0x00000000006b4aa0        0x0 /usr/lib/gcc/x86_64-unknown-linux-gnu/4.9.2/../../../../lib/libc.a(setitimer.o)
 .bss           0x00000000006b4aa0       0x22 /usr/lib/gcc/x86_64-unknown-linux-gnu/4.9.2/libgcc_eh.a(unwind-dw2.o)
 *fill*         0x00000000006b4ac2       0x3e 
 .bss           0x00000000006b4b00      0x1f8 /usr/lib/gcc/x86_64-unknown-linux-gnu/4.9.2/libgcc_eh.a(unwind-dw2-fde-dip.o)
 .bss           0x00000000006b4cf8        0x0 /usr/lib/gcc/x86_64-unknown-linux-gnu/4.9.2/libgcc_eh.a(unwind-c.o)
 .bss           0x00000000006b4cf8        0x0 /usr/lib/gcc/x86_64-unknown-linux-gnu/4.9.2/../../../../lib/libc.a(dl-iteratephdr.o)
 .bss           0x00000000006b4cf8        0x0 /usr/lib/gcc/x86_64-unknown-linux-gnu/4.9.2/crtend.o
 .bss           0x00000000006b4cf8        0x0 /usr/lib/gcc/x86_64-unknown-linux-gnu/4.9.2/../../../../lib/crtn.o
 *(COMMON)
 *fill*         0x00000000006b4cf8        0x8 
 COMMON         0x00000000006b4d00      0x460 /usr/lib/gcc/x86_64-unknown-linux-gnu/4.9.2/../../../../lib/libc.a(libc-tls.o)
                0x00000000006b4d00                _dl_tls_static_used
                0x00000000006b4d08                _dl_tls_static_align
                0x00000000006b4d10                _dl_tls_max_dtv_idx
                0x00000000006b4d40                _dl_static_dtv
                0x00000000006b5140                _dl_tls_dtv_slotinfo_list
                0x00000000006b5148                _dl_tls_dtv_gaps
                0x00000000006b5150                _dl_tls_generation
                0x00000000006b5158                _dl_tls_static_nelem
 COMMON         0x00000000006b5160        0x8 /usr/lib/gcc/x86_64-unknown-linux-gnu/4.9.2/../../../../lib/libc.a(dcigettext.o)
                0x00000000006b5160                _nl_domain_bindings
 COMMON         0x00000000006b5168        0x4 /usr/lib/gcc/x86_64-unknown-linux-gnu/4.9.2/../../../../lib/libc.a(loadmsgcat.o)
                0x00000000006b5168                _nl_msg_cat_cntr
 *fill*         0x00000000006b516c        0x4 
 COMMON         0x00000000006b5170        0x8 /usr/lib/gcc/x86_64-unknown-linux-gnu/4.9.2/../../../../lib/libc.a(cxa_atexit.o)
                0x00000000006b5170                __new_exitfn_called
 COMMON         0x00000000006b5178        0x4 /usr/lib/gcc/x86_64-unknown-linux-gnu/4.9.2/../../../../lib/libc.a(cacheinfo.o)
                0x00000000006b5178                __x86_prefetchw
 COMMON         0x00000000006b517c        0x4 /usr/lib/gcc/x86_64-unknown-linux-gnu/4.9.2/../../../../lib/libc.a(libc_multiple_threads.o)
                0x00000000006b517c                __libc_multiple_threads
 COMMON         0x00000000006b5180        0x8 /usr/lib/gcc/x86_64-unknown-linux-gnu/4.9.2/../../../../lib/libc.a(register-atfork.o)
                0x00000000006b5180                __fork_handlers
 *fill*         0x00000000006b5188       0x18 
 COMMON         0x00000000006b51a0       0x28 /usr/lib/gcc/x86_64-unknown-linux-gnu/4.9.2/../../../../lib/libc.a(dl-debug.o)
                0x00000000006b51a0                _r_debug
 COMMON         0x00000000006b51c8       0xc8 /usr/lib/gcc/x86_64-unknown-linux-gnu/4.9.2/../../../../lib/libc.a(dl-support.o)
                0x00000000006b51c8                _dl_profile_output
                0x00000000006b51d0                _dl_platformlen
                0x00000000006b51d8                _dl_debug_mask
                0x00000000006b51e0                _dl_wait_lookup_done
                0x00000000006b51e8                _dl_profile
                0x00000000006b51f0                _dl_cpuclock_offset
                0x00000000006b51f8                _dl_bind_not
                0x00000000006b5200                _dl_auxv
                0x00000000006b5208                _dl_platform
                0x00000000006b5210                _dl_lazy
                0x00000000006b5218                _dl_sysinfo_map
                0x00000000006b5220                _dl_inhibit_cache
                0x00000000006b5228                _dl_phdr
                0x00000000006b5230                _dl_scope_free_list
                0x00000000006b5238                _dl_origin_path
                0x00000000006b5240                _dl_clktck
                0x00000000006b5244                _dl_dynamic_weak
                0x00000000006b5248                _dl_sysinfo_dso
                0x00000000006b5250                _dl_init_all_dirs
                0x00000000006b5258                _dl_verbose
                0x00000000006b5260                _dl_phnum
                0x00000000006b5268                _dl_profile_map
                0x00000000006b5270                _dl_initfirst
                0x00000000006b5278                _dl_all_dirs
                0x00000000006b5280                _dl_osversion
                0x00000000006b5288                _dl_inhibit_rpath
 COMMON         0x00000000006b5290        0x4 /usr/lib/gcc/x86_64-unknown-linux-gnu/4.9.2/../../../../lib/libc.a(enbl-secure.o)
                0x00000000006b5290                __libc_enable_secure_decided
 *fill*         0x00000000006b5294        0x4 
 COMMON         0x00000000006b5298       0x10 /usr/lib/gcc/x86_64-unknown-linux-gnu/4.9.2/../../../../lib/libc.a(init-first.o)
                0x00000000006b5298                __libc_argc
                0x00000000006b52a0                __libc_argv
 *fill*         0x00000000006b52a8       0x18 
 COMMON         0x00000000006b52c0       0x44 /usr/lib/gcc/x86_64-unknown-linux-gnu/4.9.2/../../../../lib/libc.a(init-arch.o)
                0x00000000006b52c0                __cpu_features
 *fill*         0x00000000006b5304        0x4 
 COMMON         0x00000000006b5308       0x18 /usr/lib/gcc/x86_64-unknown-linux-gnu/4.9.2/../../../../lib/libc.a(gconv_db.o)
                0x00000000006b5308                __gconv_modules_db
                0x00000000006b5310                __gconv_lock
                0x00000000006b5318                __gconv_alias_db
 COMMON         0x00000000006b5320       0x18 /usr/lib/gcc/x86_64-unknown-linux-gnu/4.9.2/../../../../lib/libc.a(gconv_conf.o)
                0x00000000006b5320                __gconv_path_envvar
                0x00000000006b5328                __gconv_max_path_elem_len
                0x00000000006b5330                __gconv_path_elem
 *fill*         0x00000000006b5338        0x8 
 COMMON         0x00000000006b5340       0x68 /usr/lib/gcc/x86_64-unknown-linux-gnu/4.9.2/../../../../lib/libc.a(findlocale.o)
                0x00000000006b5340                _nl_locale_file_list
 COMMON         0x00000000006b53a8        0x8 /usr/lib/gcc/x86_64-unknown-linux-gnu/4.9.2/../../../../lib/libc.a(reg-printf.o)
                0x00000000006b53a8                __printf_function_table
 COMMON         0x00000000006b53b0        0x8 /usr/lib/gcc/x86_64-unknown-linux-gnu/4.9.2/../../../../lib/libc.a(reg-modifier.o)
                0x00000000006b53b0                __printf_modifier_table
 COMMON         0x00000000006b53b8        0x8 /usr/lib/gcc/x86_64-unknown-linux-gnu/4.9.2/../../../../lib/libc.a(tzset.o)
                0x00000000006b53b8                __tzname_cur_max
 COMMON         0x00000000006b53c0        0x4 /usr/lib/gcc/x86_64-unknown-linux-gnu/4.9.2/../../../../lib/libc.a(tzfile.o)
                0x00000000006b53c0                __use_tzfile
 *fill*         0x00000000006b53c4       0x1c 
 COMMON         0x00000000006b53e0       0x38 /usr/lib/gcc/x86_64-unknown-linux-gnu/4.9.2/../../../../lib/libc.a(localtime.o)
                0x00000000006b53e0                _tmbuf
                0x00000000006b5418                . = ALIGN ((. != 0x0)?0x8:0x1)

__libc_freeres_ptrs
                0x00000000006b5418       0x30
                0x00000000006b5418                PROVIDE (__start___libc_freeres_ptrs, .)
 __libc_freeres_ptrs
                0x00000000006b5418       0x10 /usr/lib/gcc/x86_64-unknown-linux-gnu/4.9.2/../../../../lib/libc.a(localealias.o)
 __libc_freeres_ptrs
                0x00000000006b5428        0x8 /usr/lib/gcc/x86_64-unknown-linux-gnu/4.9.2/../../../../lib/libc.a(reg-printf.o)
                0x00000000006b5428                __printf_arginfo_table
 __libc_freeres_ptrs
                0x00000000006b5430        0x8 /usr/lib/gcc/x86_64-unknown-linux-gnu/4.9.2/../../../../lib/libc.a(reg-type.o)
                0x00000000006b5430                __printf_va_arg_table
 __libc_freeres_ptrs
                0x00000000006b5438        0x8 /usr/lib/gcc/x86_64-unknown-linux-gnu/4.9.2/../../../../lib/libc.a(tzfile.o)
 __libc_freeres_ptrs
                0x00000000006b5440        0x8 /usr/lib/gcc/x86_64-unknown-linux-gnu/4.9.2/../../../../lib/libc.a(strerror.o)
                0x00000000006b5448                PROVIDE (__stop___libc_freeres_ptrs, .)

.lbss
 *(.dynlbss)
 *(.lbss .lbss.* .gnu.linkonce.lb.*)
 *(LARGE_COMMON)
                0x00000000006b5448                . = ALIGN (0x8)
                0x00000000006b5448                . = SEGMENT_START ("ldata-segment", .)

.lrodata
 *(.lrodata .lrodata.* .gnu.linkonce.lr.*)

.ldata          0x0000000000ab5448        0x0
 *(.ldata .ldata.* .gnu.linkonce.l.*)
                0x0000000000ab5448                . = ALIGN ((. != 0x0)?0x8:0x1)
                0x0000000000ab5448                . = ALIGN (0x8)
                0x0000000000ab5448                _end = .
                0x0000000000ab5448                PROVIDE (end, .)
                0x0000000000ab5448                . = DATA_SEGMENT_END (.)

.stab
 *(.stab)

.stabstr
 *(.stabstr)

.stab.excl
 *(.stab.excl)

.stab.exclstr
 *(.stab.exclstr)

.stab.index
 *(.stab.index)

.stab.indexstr
 *(.stab.indexstr)

.comment        0x0000000000000000       0x27
 *(.comment)
 .comment       0x0000000000000000       0x27 /usr/lib/gcc/x86_64-unknown-linux-gnu/4.9.2/../../../../lib/crt1.o
                                         0x28 (size before relaxing)
 .comment       0x0000000000000027       0x28 /usr/lib/gcc/x86_64-unknown-linux-gnu/4.9.2/crtbeginT.o
 .comment       0x0000000000000027       0x28 src/main.o
 .comment       0x0000000000000027       0x28 ../lib/libprinter.a(printer.o)
 .comment       0x0000000000000027       0x28 /usr/lib/gcc/x86_64-unknown-linux-gnu/4.9.2/../../../../lib/libc.a(libc-start.o)
 .comment       0x0000000000000027       0x28 /usr/lib/gcc/x86_64-unknown-linux-gnu/4.9.2/../../../../lib/libc.a(check_fds.o)
 .comment       0x0000000000000027       0x28 /usr/lib/gcc/x86_64-unknown-linux-gnu/4.9.2/../../../../lib/libc.a(libc-tls.o)
 .comment       0x0000000000000027       0x28 /usr/lib/gcc/x86_64-unknown-linux-gnu/4.9.2/../../../../lib/libc.a(elf-init.o)
 .comment       0x0000000000000027       0x28 /usr/lib/gcc/x86_64-unknown-linux-gnu/4.9.2/../../../../lib/libc.a(errno.o)
 .comment       0x0000000000000027       0x28 /usr/lib/gcc/x86_64-unknown-linux-gnu/4.9.2/../../../../lib/libc.a(assert.o)
 .comment       0x0000000000000027       0x28 /usr/lib/gcc/x86_64-unknown-linux-gnu/4.9.2/../../../../lib/libc.a(dcgettext.o)
 .comment       0x0000000000000027       0x28 /usr/lib/gcc/x86_64-unknown-linux-gnu/4.9.2/../../../../lib/libc.a(dcigettext.o)
 .comment       0x0000000000000027       0x28 /usr/lib/gcc/x86_64-unknown-linux-gnu/4.9.2/../../../../lib/libc.a(finddomain.o)
 .comment       0x0000000000000027       0x28 /usr/lib/gcc/x86_64-unknown-linux-gnu/4.9.2/../../../../lib/libc.a(loadmsgcat.o)
 .comment       0x0000000000000027       0x28 /usr/lib/gcc/x86_64-unknown-linux-gnu/4.9.2/../../../../lib/libc.a(localealias.o)
 .comment       0x0000000000000027       0x28 /usr/lib/gcc/x86_64-unknown-linux-gnu/4.9.2/../../../../lib/libc.a(l10nflist.o)
 .comment       0x0000000000000027       0x28 /usr/lib/gcc/x86_64-unknown-linux-gnu/4.9.2/../../../../lib/libc.a(explodename.o)
 .comment       0x0000000000000027       0x28 /usr/lib/gcc/x86_64-unknown-linux-gnu/4.9.2/../../../../lib/libc.a(plural.o)
 .comment       0x0000000000000027       0x28 /usr/lib/gcc/x86_64-unknown-linux-gnu/4.9.2/../../../../lib/libc.a(plural-exp.o)
 .comment       0x0000000000000027       0x28 /usr/lib/gcc/x86_64-unknown-linux-gnu/4.9.2/../../../../lib/libc.a(hash-string.o)
 .comment       0x0000000000000027       0x28 /usr/lib/gcc/x86_64-unknown-linux-gnu/4.9.2/../../../../lib/libc.a(raise.o)
 .comment       0x0000000000000027       0x28 /usr/lib/gcc/x86_64-unknown-linux-gnu/4.9.2/../../../../lib/libc.a(abort.o)
 .comment       0x0000000000000027       0x28 /usr/lib/gcc/x86_64-unknown-linux-gnu/4.9.2/../../../../lib/libc.a(msort.o)
 .comment       0x0000000000000027       0x28 /usr/lib/gcc/x86_64-unknown-linux-gnu/4.9.2/../../../../lib/libc.a(getenv.o)
 .comment       0x0000000000000027       0x28 /usr/lib/gcc/x86_64-unknown-linux-gnu/4.9.2/../../../../lib/libc.a(exit.o)
 .comment       0x0000000000000027       0x28 /usr/lib/gcc/x86_64-unknown-linux-gnu/4.9.2/../../../../lib/libc.a(cxa_atexit.o)
 .comment       0x0000000000000027       0x28 /usr/lib/gcc/x86_64-unknown-linux-gnu/4.9.2/../../../../lib/libc.a(strtoul.o)
 .comment       0x0000000000000027       0x28 /usr/lib/gcc/x86_64-unknown-linux-gnu/4.9.2/../../../../lib/libc.a(strtoul_l.o)
 .comment       0x0000000000000027       0x28 /usr/lib/gcc/x86_64-unknown-linux-gnu/4.9.2/../../../../lib/libc.a(grouping.o)
 .comment       0x0000000000000027       0x28 /usr/lib/gcc/x86_64-unknown-linux-gnu/4.9.2/../../../../lib/libc.a(asprintf.o)
 .comment       0x0000000000000027       0x28 /usr/lib/gcc/x86_64-unknown-linux-gnu/4.9.2/../../../../lib/libc.a(fxprintf.o)
 .comment       0x0000000000000027       0x28 /usr/lib/gcc/x86_64-unknown-linux-gnu/4.9.2/../../../../lib/libc.a(iofclose.o)
 .comment       0x0000000000000027       0x28 /usr/lib/gcc/x86_64-unknown-linux-gnu/4.9.2/../../../../lib/libc.a(iofflush.o)
 .comment       0x0000000000000027       0x28 /usr/lib/gcc/x86_64-unknown-linux-gnu/4.9.2/../../../../lib/libc.a(iofopen.o)
 .comment       0x0000000000000027       0x28 /usr/lib/gcc/x86_64-unknown-linux-gnu/4.9.2/../../../../lib/libc.a(wprintf.o)
 .comment       0x0000000000000027       0x28 /usr/lib/gcc/x86_64-unknown-linux-gnu/4.9.2/../../../../lib/libc.a(wfileops.o)
 .comment       0x0000000000000027       0x28 /usr/lib/gcc/x86_64-unknown-linux-gnu/4.9.2/../../../../lib/libc.a(vasprintf.o)
 .comment       0x0000000000000027       0x28 /usr/lib/gcc/x86_64-unknown-linux-gnu/4.9.2/../../../../lib/libc.a(fcloseall.o)
 .comment       0x0000000000000027       0x28 /usr/lib/gcc/x86_64-unknown-linux-gnu/4.9.2/../../../../lib/libc.a(libc_fatal.o)
 .comment       0x0000000000000027       0x28 /usr/lib/gcc/x86_64-unknown-linux-gnu/4.9.2/../../../../lib/libc.a(iofgets_u.o)
 .comment       0x0000000000000027       0x28 /usr/lib/gcc/x86_64-unknown-linux-gnu/4.9.2/../../../../lib/libc.a(fileops.o)
 .comment       0x0000000000000027       0x28 /usr/lib/gcc/x86_64-unknown-linux-gnu/4.9.2/../../../../lib/libc.a(genops.o)
 .comment       0x0000000000000027       0x28 /usr/lib/gcc/x86_64-unknown-linux-gnu/4.9.2/../../../../lib/libc.a(stdfiles.o)
 .comment       0x0000000000000027       0x28 /usr/lib/gcc/x86_64-unknown-linux-gnu/4.9.2/../../../../lib/libc.a(stdio.o)
 .comment       0x0000000000000027       0x28 /usr/lib/gcc/x86_64-unknown-linux-gnu/4.9.2/../../../../lib/libc.a(strops.o)
 .comment       0x0000000000000027       0x28 /usr/lib/gcc/x86_64-unknown-linux-gnu/4.9.2/../../../../lib/libc.a(malloc.o)
 .comment       0x0000000000000027       0x28 /usr/lib/gcc/x86_64-unknown-linux-gnu/4.9.2/../../../../lib/libc.a(morecore.o)
 .comment       0x0000000000000027       0x28 /usr/lib/gcc/x86_64-unknown-linux-gnu/4.9.2/../../../../lib/libc.a(strdup.o)
 .comment       0x0000000000000027       0x28 /usr/lib/gcc/x86_64-unknown-linux-gnu/4.9.2/../../../../lib/libc.a(strstr.o)
 .comment       0x0000000000000027       0x28 /usr/lib/gcc/x86_64-unknown-linux-gnu/4.9.2/../../../../lib/libc.a(memmove.o)
 .comment       0x0000000000000027       0x28 /usr/lib/gcc/x86_64-unknown-linux-gnu/4.9.2/../../../../lib/libc.a(wordcopy.o)
 .comment       0x0000000000000027       0x28 /usr/lib/gcc/x86_64-unknown-linux-gnu/4.9.2/../../../../lib/libc.a(cacheinfo.o)
 .comment       0x0000000000000027       0x28 /usr/lib/gcc/x86_64-unknown-linux-gnu/4.9.2/../../../../lib/libc.a(strcasecmp_l-nonascii.o)
 .comment       0x0000000000000027       0x28 /usr/lib/gcc/x86_64-unknown-linux-gnu/4.9.2/../../../../lib/libc.a(wmempcpy.o)
 .comment       0x0000000000000027       0x28 /usr/lib/gcc/x86_64-unknown-linux-gnu/4.9.2/../../../../lib/libc.a(wcsmbsload.o)
 .comment       0x0000000000000027       0x28 /usr/lib/gcc/x86_64-unknown-linux-gnu/4.9.2/../../../../lib/libc.a(_exit.o)
 .comment       0x0000000000000027       0x28 /usr/lib/gcc/x86_64-unknown-linux-gnu/4.9.2/../../../../lib/libc.a(sysconf.o)
 .comment       0x0000000000000027       0x28 /usr/lib/gcc/x86_64-unknown-linux-gnu/4.9.2/../../../../lib/libc.a(get_child_max.o)
 .comment       0x0000000000000027       0x28 /usr/lib/gcc/x86_64-unknown-linux-gnu/4.9.2/../../../../lib/libc.a(environ.o)
 .comment       0x0000000000000027       0x28 /usr/lib/gcc/x86_64-unknown-linux-gnu/4.9.2/../../../../lib/libc.a(xstat.o)
 .comment       0x0000000000000027       0x28 /usr/lib/gcc/x86_64-unknown-linux-gnu/4.9.2/../../../../lib/libc.a(fxstat.o)
 .comment       0x0000000000000027       0x28 /usr/lib/gcc/x86_64-unknown-linux-gnu/4.9.2/../../../../lib/libc.a(fcntl.o)
 .comment       0x0000000000000027       0x28 /usr/lib/gcc/x86_64-unknown-linux-gnu/4.9.2/../../../../lib/libc.a(getcwd.o)
 .comment       0x0000000000000027       0x28 /usr/lib/gcc/x86_64-unknown-linux-gnu/4.9.2/../../../../lib/libc.a(sbrk.o)
 .comment       0x0000000000000027       0x28 /usr/lib/gcc/x86_64-unknown-linux-gnu/4.9.2/../../../../lib/libc.a(getpagesize.o)
 .comment       0x0000000000000027       0x28 /usr/lib/gcc/x86_64-unknown-linux-gnu/4.9.2/../../../../lib/libc.a(getdtsz.o)
 .comment       0x0000000000000027       0x28 /usr/lib/gcc/x86_64-unknown-linux-gnu/4.9.2/../../../../lib/libc.a(tsearch.o)
 .comment       0x0000000000000027       0x28 /usr/lib/gcc/x86_64-unknown-linux-gnu/4.9.2/../../../../lib/libc.a(getsysstats.o)
 .comment       0x0000000000000027       0x28 /usr/lib/gcc/x86_64-unknown-linux-gnu/4.9.2/../../../../lib/libc.a(getclktck.o)
 .comment       0x0000000000000027       0x28 /usr/lib/gcc/x86_64-unknown-linux-gnu/4.9.2/../../../../lib/libc.a(init-misc.o)
 .comment       0x0000000000000027       0x28 /usr/lib/gcc/x86_64-unknown-linux-gnu/4.9.2/../../../../lib/libc.a(alloca_cutoff.o)
 .comment       0x0000000000000027       0x28 /usr/lib/gcc/x86_64-unknown-linux-gnu/4.9.2/../../../../lib/libc.a(libc_multiple_threads.o)
 .comment       0x0000000000000027       0x28 /usr/lib/gcc/x86_64-unknown-linux-gnu/4.9.2/../../../../lib/libc.a(register-atfork.o)
 .comment       0x0000000000000027       0x28 /usr/lib/gcc/x86_64-unknown-linux-gnu/4.9.2/../../../../lib/libc.a(backtrace.o)
 .comment       0x0000000000000027       0x28 /usr/lib/gcc/x86_64-unknown-linux-gnu/4.9.2/../../../../lib/libc.a(backtracesymsfd.o)
 .comment       0x0000000000000027       0x28 /usr/lib/gcc/x86_64-unknown-linux-gnu/4.9.2/../../../../lib/libc.a(chk_fail.o)
 .comment       0x0000000000000027       0x28 /usr/lib/gcc/x86_64-unknown-linux-gnu/4.9.2/../../../../lib/libc.a(fortify_fail.o)
 .comment       0x0000000000000027       0x28 /usr/lib/gcc/x86_64-unknown-linux-gnu/4.9.2/../../../../lib/libc.a(dl-debug.o)
 .comment       0x0000000000000027       0x28 /usr/lib/gcc/x86_64-unknown-linux-gnu/4.9.2/../../../../lib/libc.a(dl-support.o)
 .comment       0x0000000000000027       0x28 /usr/lib/gcc/x86_64-unknown-linux-gnu/4.9.2/../../../../lib/libc.a(dl-addr.o)
 .comment       0x0000000000000027       0x28 /usr/lib/gcc/x86_64-unknown-linux-gnu/4.9.2/../../../../lib/libc.a(enbl-secure.o)
 .comment       0x0000000000000027       0x28 /usr/lib/gcc/x86_64-unknown-linux-gnu/4.9.2/../../../../lib/libc.a(dl-sysdep.o)
 .comment       0x0000000000000027       0x28 /usr/lib/gcc/x86_64-unknown-linux-gnu/4.9.2/../../../../lib/libc.a(init-first.o)
 .comment       0x0000000000000027       0x28 /usr/lib/gcc/x86_64-unknown-linux-gnu/4.9.2/../../../../lib/libc.a(init-arch.o)
 .comment       0x0000000000000027       0x28 /usr/lib/gcc/x86_64-unknown-linux-gnu/4.9.2/../../../../lib/libc.a(gconv_open.o)
 .comment       0x0000000000000027       0x28 /usr/lib/gcc/x86_64-unknown-linux-gnu/4.9.2/../../../../lib/libc.a(gconv.o)
 .comment       0x0000000000000027       0x28 /usr/lib/gcc/x86_64-unknown-linux-gnu/4.9.2/../../../../lib/libc.a(gconv_close.o)
 .comment       0x0000000000000027       0x28 /usr/lib/gcc/x86_64-unknown-linux-gnu/4.9.2/../../../../lib/libc.a(gconv_db.o)
 .comment       0x0000000000000027       0x28 /usr/lib/gcc/x86_64-unknown-linux-gnu/4.9.2/../../../../lib/libc.a(gconv_conf.o)
 .comment       0x0000000000000027       0x28 /usr/lib/gcc/x86_64-unknown-linux-gnu/4.9.2/../../../../lib/libc.a(gconv_builtin.o)
 .comment       0x0000000000000027       0x28 /usr/lib/gcc/x86_64-unknown-linux-gnu/4.9.2/../../../../lib/libc.a(gconv_simple.o)
 .comment       0x0000000000000027       0x28 /usr/lib/gcc/x86_64-unknown-linux-gnu/4.9.2/../../../../lib/libc.a(gconv_trans.o)
 .comment       0x0000000000000027       0x28 /usr/lib/gcc/x86_64-unknown-linux-gnu/4.9.2/../../../../lib/libc.a(gconv_cache.o)
 .comment       0x0000000000000027       0x28 /usr/lib/gcc/x86_64-unknown-linux-gnu/4.9.2/../../../../lib/libc.a(gconv_dl.o)
 .comment       0x0000000000000027       0x28 /usr/lib/gcc/x86_64-unknown-linux-gnu/4.9.2/../../../../lib/libc.a(setlocale.o)
 .comment       0x0000000000000027       0x28 /usr/lib/gcc/x86_64-unknown-linux-gnu/4.9.2/../../../../lib/libc.a(findlocale.o)
 .comment       0x0000000000000027       0x28 /usr/lib/gcc/x86_64-unknown-linux-gnu/4.9.2/../../../../lib/libc.a(loadlocale.o)
 .comment       0x0000000000000027       0x28 /usr/lib/gcc/x86_64-unknown-linux-gnu/4.9.2/../../../../lib/libc.a(loadarchive.o)
 .comment       0x0000000000000027       0x28 /usr/lib/gcc/x86_64-unknown-linux-gnu/4.9.2/../../../../lib/libc.a(lc-ctype.o)
 .comment       0x0000000000000027       0x28 /usr/lib/gcc/x86_64-unknown-linux-gnu/4.9.2/../../../../lib/libc.a(C-ctype.o)
 .comment       0x0000000000000027       0x28 /usr/lib/gcc/x86_64-unknown-linux-gnu/4.9.2/../../../../lib/libc.a(SYS_libc.o)
 .comment       0x0000000000000027       0x28 /usr/lib/gcc/x86_64-unknown-linux-gnu/4.9.2/../../../../lib/libc.a(C_name.o)
 .comment       0x0000000000000027       0x28 /usr/lib/gcc/x86_64-unknown-linux-gnu/4.9.2/../../../../lib/libc.a(xlocale.o)
 .comment       0x0000000000000027       0x28 /usr/lib/gcc/x86_64-unknown-linux-gnu/4.9.2/../../../../lib/libc.a(localename.o)
 .comment       0x0000000000000027       0x28 /usr/lib/gcc/x86_64-unknown-linux-gnu/4.9.2/../../../../lib/libc.a(global-locale.o)
 .comment       0x0000000000000027       0x28 /usr/lib/gcc/x86_64-unknown-linux-gnu/4.9.2/../../../../lib/libc.a(ctype-info.o)
 .comment       0x0000000000000027       0x28 /usr/lib/gcc/x86_64-unknown-linux-gnu/4.9.2/../../../../lib/libc.a(setfpucw.o)
 .comment       0x0000000000000027       0x28 /usr/lib/gcc/x86_64-unknown-linux-gnu/4.9.2/../../../../lib/libc.a(fpu_control.o)
 .comment       0x0000000000000027       0x28 /usr/lib/gcc/x86_64-unknown-linux-gnu/4.9.2/../../../../lib/libc.a(sigjmp.o)
 .comment       0x0000000000000027       0x28 /usr/lib/gcc/x86_64-unknown-linux-gnu/4.9.2/../../../../lib/libc.a(sigaction.o)
 .comment       0x0000000000000027       0x28 /usr/lib/gcc/x86_64-unknown-linux-gnu/4.9.2/../../../../lib/libc.a(sigprocmask.o)
 .comment       0x0000000000000027       0x28 /usr/lib/gcc/x86_64-unknown-linux-gnu/4.9.2/../../../../lib/libc.a(qsort.o)
 .comment       0x0000000000000027       0x28 /usr/lib/gcc/x86_64-unknown-linux-gnu/4.9.2/../../../../lib/libc.a(setenv.o)
 .comment       0x0000000000000027       0x28 /usr/lib/gcc/x86_64-unknown-linux-gnu/4.9.2/../../../../lib/libc.a(secure-getenv.o)
 .comment       0x0000000000000027       0x28 /usr/lib/gcc/x86_64-unknown-linux-gnu/4.9.2/../../../../lib/libc.a(strtol.o)
 .comment       0x0000000000000027       0x28 /usr/lib/gcc/x86_64-unknown-linux-gnu/4.9.2/../../../../lib/libc.a(strtol_l.o)
 .comment       0x0000000000000027       0x28 /usr/lib/gcc/x86_64-unknown-linux-gnu/4.9.2/../../../../lib/libc.a(_itoa.o)
 .comment       0x0000000000000027       0x28 /usr/lib/gcc/x86_64-unknown-linux-gnu/4.9.2/../../../../lib/libc.a(itoa-digits.o)
 .comment       0x0000000000000027       0x28 /usr/lib/gcc/x86_64-unknown-linux-gnu/4.9.2/../../../../lib/libc.a(itoa-udigits.o)
 .comment       0x0000000000000027       0x28 /usr/lib/gcc/x86_64-unknown-linux-gnu/4.9.2/../../../../lib/libc.a(vfprintf.o)
 .comment       0x0000000000000027       0x28 /usr/lib/gcc/x86_64-unknown-linux-gnu/4.9.2/../../../../lib/libc.a(printf_fp.o)
 .comment       0x0000000000000027       0x28 /usr/lib/gcc/x86_64-unknown-linux-gnu/4.9.2/../../../../lib/libc.a(reg-printf.o)
 .comment       0x0000000000000027       0x28 /usr/lib/gcc/x86_64-unknown-linux-gnu/4.9.2/../../../../lib/libc.a(printf_fphex.o)
 .comment       0x0000000000000027       0x28 /usr/lib/gcc/x86_64-unknown-linux-gnu/4.9.2/../../../../lib/libc.a(reg-modifier.o)
 .comment       0x0000000000000027       0x28 /usr/lib/gcc/x86_64-unknown-linux-gnu/4.9.2/../../../../lib/libc.a(reg-type.o)
 .comment       0x0000000000000027       0x28 /usr/lib/gcc/x86_64-unknown-linux-gnu/4.9.2/../../../../lib/libc.a(fprintf.o)
 .comment       0x0000000000000027       0x28 /usr/lib/gcc/x86_64-unknown-linux-gnu/4.9.2/../../../../lib/libc.a(vfwprintf.o)
 .comment       0x0000000000000027       0x28 /usr/lib/gcc/x86_64-unknown-linux-gnu/4.9.2/../../../../lib/libc.a(sscanf.o)
 .comment       0x0000000000000027       0x28 /usr/lib/gcc/x86_64-unknown-linux-gnu/4.9.2/../../../../lib/libc.a(funlockfile.o)
 .comment       0x0000000000000027       0x28 /usr/lib/gcc/x86_64-unknown-linux-gnu/4.9.2/../../../../lib/libc.a(printf-parsemb.o)
 .comment       0x0000000000000027       0x28 /usr/lib/gcc/x86_64-unknown-linux-gnu/4.9.2/../../../../lib/libc.a(printf-parsewc.o)
 .comment       0x0000000000000027       0x28 /usr/lib/gcc/x86_64-unknown-linux-gnu/4.9.2/../../../../lib/libc.a(filedoalloc.o)
 .comment       0x0000000000000027       0x28 /usr/lib/gcc/x86_64-unknown-linux-gnu/4.9.2/../../../../lib/libc.a(iofputs.o)
 .comment       0x0000000000000027       0x28 /usr/lib/gcc/x86_64-unknown-linux-gnu/4.9.2/../../../../lib/libc.a(wfiledoalloc.o)
 .comment       0x0000000000000027       0x28 /usr/lib/gcc/x86_64-unknown-linux-gnu/4.9.2/../../../../lib/libc.a(iofwrite.o)
 .comment       0x0000000000000027       0x28 /usr/lib/gcc/x86_64-unknown-linux-gnu/4.9.2/../../../../lib/libc.a(iogetdelim.o)
 .comment       0x0000000000000027       0x28 /usr/lib/gcc/x86_64-unknown-linux-gnu/4.9.2/../../../../lib/libc.a(iogetline.o)
 .comment       0x0000000000000027       0x28 /usr/lib/gcc/x86_64-unknown-linux-gnu/4.9.2/../../../../lib/libc.a(iopadn.o)
 .comment       0x0000000000000027       0x28 /usr/lib/gcc/x86_64-unknown-linux-gnu/4.9.2/../../../../lib/libc.a(iovsscanf.o)
 .comment       0x0000000000000027       0x28 /usr/lib/gcc/x86_64-unknown-linux-gnu/4.9.2/../../../../lib/libc.a(iowpadn.o)
 .comment       0x0000000000000027       0x28 /usr/lib/gcc/x86_64-unknown-linux-gnu/4.9.2/../../../../lib/libc.a(wgenops.o)
 .comment       0x0000000000000027       0x28 /usr/lib/gcc/x86_64-unknown-linux-gnu/4.9.2/../../../../lib/libc.a(iofwide.o)
 .comment       0x0000000000000027       0x28 /usr/lib/gcc/x86_64-unknown-linux-gnu/4.9.2/../../../../lib/libc.a(strndup.o)
 .comment       0x0000000000000027       0x28 /usr/lib/gcc/x86_64-unknown-linux-gnu/4.9.2/../../../../lib/libc.a(_strerror.o)
 .comment       0x0000000000000027       0x28 /usr/lib/gcc/x86_64-unknown-linux-gnu/4.9.2/../../../../lib/libc.a(memmem.o)
 .comment       0x0000000000000027       0x28 /usr/lib/gcc/x86_64-unknown-linux-gnu/4.9.2/../../../../lib/libc.a(argz-ctsep.o)
 .comment       0x0000000000000027       0x28 /usr/lib/gcc/x86_64-unknown-linux-gnu/4.9.2/../../../../lib/libc.a(argz-addsep.o)
 .comment       0x0000000000000027       0x28 /usr/lib/gcc/x86_64-unknown-linux-gnu/4.9.2/../../../../lib/libc.a(wmemcpy.o)
 .comment       0x0000000000000027       0x28 /usr/lib/gcc/x86_64-unknown-linux-gnu/4.9.2/../../../../lib/libc.a(wmemmove.o)
 .comment       0x0000000000000027       0x28 /usr/lib/gcc/x86_64-unknown-linux-gnu/4.9.2/../../../../lib/libc.a(wmemset.o)
 .comment       0x0000000000000027       0x28 /usr/lib/gcc/x86_64-unknown-linux-gnu/4.9.2/../../../../lib/libc.a(btowc.o)
 .comment       0x0000000000000027       0x28 /usr/lib/gcc/x86_64-unknown-linux-gnu/4.9.2/../../../../lib/libc.a(wcrtomb.o)
 .comment       0x0000000000000027       0x28 /usr/lib/gcc/x86_64-unknown-linux-gnu/4.9.2/../../../../lib/libc.a(mbsrtowcs.o)
 .comment       0x0000000000000027       0x28 /usr/lib/gcc/x86_64-unknown-linux-gnu/4.9.2/../../../../lib/libc.a(wcsrtombs.o)
 .comment       0x0000000000000027       0x28 /usr/lib/gcc/x86_64-unknown-linux-gnu/4.9.2/../../../../lib/libc.a(wcsnlen.o)
 .comment       0x0000000000000027       0x28 /usr/lib/gcc/x86_64-unknown-linux-gnu/4.9.2/../../../../lib/libc.a(wcschrnul.o)
 .comment       0x0000000000000027       0x28 /usr/lib/gcc/x86_64-unknown-linux-gnu/4.9.2/../../../../lib/libc.a(mbsrtowcs_l.o)
 .comment       0x0000000000000027       0x28 /usr/lib/gcc/x86_64-unknown-linux-gnu/4.9.2/../../../../lib/libc.a(time.o)
 .comment       0x0000000000000027       0x28 /usr/lib/gcc/x86_64-unknown-linux-gnu/4.9.2/../../../../lib/libc.a(tzset.o)
 .comment       0x0000000000000027       0x28 /usr/lib/gcc/x86_64-unknown-linux-gnu/4.9.2/../../../../lib/libc.a(tzfile.o)
 .comment       0x0000000000000027       0x28 /usr/lib/gcc/x86_64-unknown-linux-gnu/4.9.2/../../../../lib/libc.a(opendir.o)
 .comment       0x0000000000000027       0x28 /usr/lib/gcc/x86_64-unknown-linux-gnu/4.9.2/../../../../lib/libc.a(closedir.o)
 .comment       0x0000000000000027       0x28 /usr/lib/gcc/x86_64-unknown-linux-gnu/4.9.2/../../../../lib/libc.a(readdir.o)
 .comment       0x0000000000000027       0x28 /usr/lib/gcc/x86_64-unknown-linux-gnu/4.9.2/../../../../lib/libc.a(rewinddir.o)
 .comment       0x0000000000000027       0x28 /usr/lib/gcc/x86_64-unknown-linux-gnu/4.9.2/../../../../lib/libc.a(getdents.o)
 .comment       0x0000000000000027       0x28 /usr/lib/gcc/x86_64-unknown-linux-gnu/4.9.2/../../../../lib/libc.a(fdopendir.o)
 .comment       0x0000000000000027       0x28 /usr/lib/gcc/x86_64-unknown-linux-gnu/4.9.2/../../../../lib/libc.a(lxstat.o)
 .comment       0x0000000000000027       0x28 /usr/lib/gcc/x86_64-unknown-linux-gnu/4.9.2/../../../../lib/libc.a(fxstatat.o)
 .comment       0x0000000000000027       0x28 /usr/lib/gcc/x86_64-unknown-linux-gnu/4.9.2/../../../../lib/libc.a(openat.o)
 .comment       0x0000000000000027       0x28 /usr/lib/gcc/x86_64-unknown-linux-gnu/4.9.2/../../../../lib/libc.a(isatty.o)
 .comment       0x0000000000000027       0x28 /usr/lib/gcc/x86_64-unknown-linux-gnu/4.9.2/../../../../lib/libc.a(tcgetattr.o)
 .comment       0x0000000000000027       0x28 /usr/lib/gcc/x86_64-unknown-linux-gnu/4.9.2/../../../../lib/libc.a(brk.o)
 .comment       0x0000000000000027       0x28 /usr/lib/gcc/x86_64-unknown-linux-gnu/4.9.2/../../../../lib/libc.a(wctrans.o)
 .comment       0x0000000000000027       0x28 /usr/lib/gcc/x86_64-unknown-linux-gnu/4.9.2/../../../../lib/libc.a(towctrans.o)
 .comment       0x0000000000000027       0x28 /usr/lib/gcc/x86_64-unknown-linux-gnu/4.9.2/../../../../lib/libc.a(readonly-area.o)
 .comment       0x0000000000000027       0x28 /usr/lib/gcc/x86_64-unknown-linux-gnu/4.9.2/../../../../lib/libc.a(dl-load.o)
 .comment       0x0000000000000027       0x28 /usr/lib/gcc/x86_64-unknown-linux-gnu/4.9.2/../../../../lib/libc.a(dl-lookup.o)
 .comment       0x0000000000000027       0x28 /usr/lib/gcc/x86_64-unknown-linux-gnu/4.9.2/../../../../lib/libc.a(dl-object.o)
 .comment       0x0000000000000027       0x28 /usr/lib/gcc/x86_64-unknown-linux-gnu/4.9.2/../../../../lib/libc.a(dl-reloc.o)
 .comment       0x0000000000000027       0x28 /usr/lib/gcc/x86_64-unknown-linux-gnu/4.9.2/../../../../lib/libc.a(dl-hwcaps.o)
 .comment       0x0000000000000027       0x28 /usr/lib/gcc/x86_64-unknown-linux-gnu/4.9.2/../../../../lib/libc.a(dl-error.o)
 .comment       0x0000000000000027       0x28 /usr/lib/gcc/x86_64-unknown-linux-gnu/4.9.2/../../../../lib/libc.a(dl-misc.o)
 .comment       0x0000000000000027       0x28 /usr/lib/gcc/x86_64-unknown-linux-gnu/4.9.2/../../../../lib/libc.a(dl-tls.o)
 .comment       0x0000000000000027       0x28 /usr/lib/gcc/x86_64-unknown-linux-gnu/4.9.2/../../../../lib/libc.a(dl-origin.o)
 .comment       0x0000000000000027       0x28 /usr/lib/gcc/x86_64-unknown-linux-gnu/4.9.2/../../../../lib/libc.a(dl-scope.o)
 .comment       0x0000000000000027       0x28 /usr/lib/gcc/x86_64-unknown-linux-gnu/4.9.2/../../../../lib/libc.a(dl-execstack.o)
 .comment       0x0000000000000027       0x28 /usr/lib/gcc/x86_64-unknown-linux-gnu/4.9.2/../../../../lib/libc.a(dl-open.o)
 .comment       0x0000000000000027       0x28 /usr/lib/gcc/x86_64-unknown-linux-gnu/4.9.2/../../../../lib/libc.a(dl-close.o)
 .comment       0x0000000000000027       0x28 /usr/lib/gcc/x86_64-unknown-linux-gnu/4.9.2/../../../../lib/libc.a(dl-cache.o)
 .comment       0x0000000000000027       0x28 /usr/lib/gcc/x86_64-unknown-linux-gnu/4.9.2/../../../../lib/libc.a(dl-profstub.o)
 .comment       0x0000000000000027       0x28 /usr/lib/gcc/x86_64-unknown-linux-gnu/4.9.2/../../../../lib/libc.a(dl-libc.o)
 .comment       0x0000000000000027       0x28 /usr/lib/gcc/x86_64-unknown-linux-gnu/4.9.2/../../../../lib/libc.a(dl-tsd.o)
 .comment       0x0000000000000027       0x28 /usr/lib/gcc/x86_64-unknown-linux-gnu/4.9.2/../../../../lib/libc.a(tlsdesc.o)
 .comment       0x0000000000000027       0x28 /usr/lib/gcc/x86_64-unknown-linux-gnu/4.9.2/../../../../lib/libc.a(lc-monetary.o)
 .comment       0x0000000000000027       0x28 /usr/lib/gcc/x86_64-unknown-linux-gnu/4.9.2/../../../../lib/libc.a(lc-numeric.o)
 .comment       0x0000000000000027       0x28 /usr/lib/gcc/x86_64-unknown-linux-gnu/4.9.2/../../../../lib/libc.a(C-messages.o)
 .comment       0x0000000000000027       0x28 /usr/lib/gcc/x86_64-unknown-linux-gnu/4.9.2/../../../../lib/libc.a(C-monetary.o)
 .comment       0x0000000000000027       0x28 /usr/lib/gcc/x86_64-unknown-linux-gnu/4.9.2/../../../../lib/libc.a(C-numeric.o)
 .comment       0x0000000000000027       0x28 /usr/lib/gcc/x86_64-unknown-linux-gnu/4.9.2/../../../../lib/libc.a(C-time.o)
 .comment       0x0000000000000027       0x28 /usr/lib/gcc/x86_64-unknown-linux-gnu/4.9.2/../../../../lib/libc.a(C-paper.o)
 .comment       0x0000000000000027       0x28 /usr/lib/gcc/x86_64-unknown-linux-gnu/4.9.2/../../../../lib/libc.a(C-name.o)
 .comment       0x0000000000000027       0x28 /usr/lib/gcc/x86_64-unknown-linux-gnu/4.9.2/../../../../lib/libc.a(C-address.o)
 .comment       0x0000000000000027       0x28 /usr/lib/gcc/x86_64-unknown-linux-gnu/4.9.2/../../../../lib/libc.a(C-telephone.o)
 .comment       0x0000000000000027       0x28 /usr/lib/gcc/x86_64-unknown-linux-gnu/4.9.2/../../../../lib/libc.a(C-measurement.o)
 .comment       0x0000000000000027       0x28 /usr/lib/gcc/x86_64-unknown-linux-gnu/4.9.2/../../../../lib/libc.a(C-identification.o)
 .comment       0x0000000000000027       0x28 /usr/lib/gcc/x86_64-unknown-linux-gnu/4.9.2/../../../../lib/libc.a(C-collate.o)
 .comment       0x0000000000000027       0x28 /usr/lib/gcc/x86_64-unknown-linux-gnu/4.9.2/../../../../lib/libc.a(s_isinf.o)
 .comment       0x0000000000000027       0x28 /usr/lib/gcc/x86_64-unknown-linux-gnu/4.9.2/../../../../lib/libc.a(s_isnan.o)
 .comment       0x0000000000000027       0x28 /usr/lib/gcc/x86_64-unknown-linux-gnu/4.9.2/../../../../lib/libc.a(s_isinfl.o)
 .comment       0x0000000000000027       0x28 /usr/lib/gcc/x86_64-unknown-linux-gnu/4.9.2/../../../../lib/libc.a(s_isnanl.o)
 .comment       0x0000000000000027       0x28 /usr/lib/gcc/x86_64-unknown-linux-gnu/4.9.2/../../../../lib/libc.a(cmp.o)
 .comment       0x0000000000000027       0x28 /usr/lib/gcc/x86_64-unknown-linux-gnu/4.9.2/../../../../lib/libc.a(divrem.o)
 .comment       0x0000000000000027       0x28 /usr/lib/gcc/x86_64-unknown-linux-gnu/4.9.2/../../../../lib/libc.a(mul.o)
 .comment       0x0000000000000027       0x28 /usr/lib/gcc/x86_64-unknown-linux-gnu/4.9.2/../../../../lib/libc.a(mul_n.o)
 .comment       0x0000000000000027       0x28 /usr/lib/gcc/x86_64-unknown-linux-gnu/4.9.2/../../../../lib/libc.a(dbl2mpn.o)
 .comment       0x0000000000000027       0x28 /usr/lib/gcc/x86_64-unknown-linux-gnu/4.9.2/../../../../lib/libc.a(ldbl2mpn.o)
 .comment       0x0000000000000027       0x28 /usr/lib/gcc/x86_64-unknown-linux-gnu/4.9.2/../../../../lib/libc.a(fpioconst.o)
 .comment       0x0000000000000027       0x28 /usr/lib/gcc/x86_64-unknown-linux-gnu/4.9.2/../../../../lib/libc.a(itowa-digits.o)
 .comment       0x0000000000000027       0x28 /usr/lib/gcc/x86_64-unknown-linux-gnu/4.9.2/../../../../lib/libc.a(vfscanf.o)
 .comment       0x0000000000000027       0x28 /usr/lib/gcc/x86_64-unknown-linux-gnu/4.9.2/../../../../lib/libc.a(errlist.o)
 .comment       0x0000000000000027       0x28 /usr/lib/gcc/x86_64-unknown-linux-gnu/4.9.2/../../../../lib/libc.a(fileno.o)
 .comment       0x0000000000000027       0x28 /usr/lib/gcc/x86_64-unknown-linux-gnu/4.9.2/../../../../lib/libc.a(fseek.o)
 .comment       0x0000000000000027       0x28 /usr/lib/gcc/x86_64-unknown-linux-gnu/4.9.2/../../../../lib/libc.a(ftello.o)
 .comment       0x0000000000000027       0x28 /usr/lib/gcc/x86_64-unknown-linux-gnu/4.9.2/../../../../lib/libc.a(iofread_u.o)
 .comment       0x0000000000000027       0x28 /usr/lib/gcc/x86_64-unknown-linux-gnu/4.9.2/../../../../lib/libc.a(sdlerror.o)
 .comment       0x0000000000000027       0x28 /usr/lib/gcc/x86_64-unknown-linux-gnu/4.9.2/../../../../lib/libc.a(sdladdr.o)
 .comment       0x0000000000000027       0x28 /usr/lib/gcc/x86_64-unknown-linux-gnu/4.9.2/../../../../lib/libc.a(sdladdr1.o)
 .comment       0x0000000000000027       0x28 /usr/lib/gcc/x86_64-unknown-linux-gnu/4.9.2/../../../../lib/libc.a(sdlinfo.o)
 .comment       0x0000000000000027       0x28 /usr/lib/gcc/x86_64-unknown-linux-gnu/4.9.2/../../../../lib/libc.a(sdlmopen.o)
 .comment       0x0000000000000027       0x28 /usr/lib/gcc/x86_64-unknown-linux-gnu/4.9.2/../../../../lib/libc.a(strerror.o)
 .comment       0x0000000000000027       0x28 /usr/lib/gcc/x86_64-unknown-linux-gnu/4.9.2/../../../../lib/libc.a(strsep.o)
 .comment       0x0000000000000027       0x28 /usr/lib/gcc/x86_64-unknown-linux-gnu/4.9.2/../../../../lib/libc.a(mbrlen.o)
 .comment       0x0000000000000027       0x28 /usr/lib/gcc/x86_64-unknown-linux-gnu/4.9.2/../../../../lib/libc.a(mbrtowc.o)
 .comment       0x0000000000000027       0x28 /usr/lib/gcc/x86_64-unknown-linux-gnu/4.9.2/../../../../lib/libc.a(offtime.o)
 .comment       0x0000000000000027       0x28 /usr/lib/gcc/x86_64-unknown-linux-gnu/4.9.2/../../../../lib/libc.a(localtime.o)
 .comment       0x0000000000000027       0x28 /usr/lib/gcc/x86_64-unknown-linux-gnu/4.9.2/../../../../lib/libc.a(mktime.o)
 .comment       0x0000000000000027       0x28 /usr/lib/gcc/x86_64-unknown-linux-gnu/4.9.2/../../../../lib/libc.a(getpid.o)
 .comment       0x0000000000000027       0x28 /usr/lib/gcc/x86_64-unknown-linux-gnu/4.9.2/../../../../lib/libc.a(dl-deps.o)
 .comment       0x0000000000000027       0x28 /usr/lib/gcc/x86_64-unknown-linux-gnu/4.9.2/../../../../lib/libc.a(dl-runtime.o)
 .comment       0x0000000000000027       0x28 /usr/lib/gcc/x86_64-unknown-linux-gnu/4.9.2/../../../../lib/libc.a(dl-init.o)
 .comment       0x0000000000000027       0x28 /usr/lib/gcc/x86_64-unknown-linux-gnu/4.9.2/../../../../lib/libc.a(dl-fini.o)
 .comment       0x0000000000000027       0x28 /usr/lib/gcc/x86_64-unknown-linux-gnu/4.9.2/../../../../lib/libc.a(dl-version.o)
 .comment       0x0000000000000027       0x28 /usr/lib/gcc/x86_64-unknown-linux-gnu/4.9.2/../../../../lib/libc.a(dl-profile.o)
 .comment       0x0000000000000027       0x28 /usr/lib/gcc/x86_64-unknown-linux-gnu/4.9.2/../../../../lib/libc.a(strtof.o)
 .comment       0x0000000000000027       0x28 /usr/lib/gcc/x86_64-unknown-linux-gnu/4.9.2/../../../../lib/libc.a(strtod.o)
 .comment       0x0000000000000027       0x28 /usr/lib/gcc/x86_64-unknown-linux-gnu/4.9.2/../../../../lib/libc.a(strtold.o)
 .comment       0x0000000000000027       0x28 /usr/lib/gcc/x86_64-unknown-linux-gnu/4.9.2/../../../../lib/libc.a(strtof_l.o)
 .comment       0x0000000000000027       0x28 /usr/lib/gcc/x86_64-unknown-linux-gnu/4.9.2/../../../../lib/libc.a(strtod_l.o)
 .comment       0x0000000000000027       0x28 /usr/lib/gcc/x86_64-unknown-linux-gnu/4.9.2/../../../../lib/libc.a(strtold_l.o)
 .comment       0x0000000000000027       0x28 /usr/lib/gcc/x86_64-unknown-linux-gnu/4.9.2/../../../../lib/libc.a(mpn2flt.o)
 .comment       0x0000000000000027       0x28 /usr/lib/gcc/x86_64-unknown-linux-gnu/4.9.2/../../../../lib/libc.a(mpn2dbl.o)
 .comment       0x0000000000000027       0x28 /usr/lib/gcc/x86_64-unknown-linux-gnu/4.9.2/../../../../lib/libc.a(mpn2ldbl.o)
 .comment       0x0000000000000027       0x28 /usr/lib/gcc/x86_64-unknown-linux-gnu/4.9.2/../../../../lib/libc.a(tens_in_limb.o)
 .comment       0x0000000000000027       0x28 /usr/lib/gcc/x86_64-unknown-linux-gnu/4.9.2/../../../../lib/libc.a(ioseekoff.o)
 .comment       0x0000000000000027       0x28 /usr/lib/gcc/x86_64-unknown-linux-gnu/4.9.2/../../../../lib/libc.a(sdlopen.o)
 .comment       0x0000000000000027       0x28 /usr/lib/gcc/x86_64-unknown-linux-gnu/4.9.2/../../../../lib/libc.a(sdlclose.o)
 .comment       0x0000000000000027       0x28 /usr/lib/gcc/x86_64-unknown-linux-gnu/4.9.2/../../../../lib/libc.a(sdlsym.o)
 .comment       0x0000000000000027       0x28 /usr/lib/gcc/x86_64-unknown-linux-gnu/4.9.2/../../../../lib/libc.a(sdlvsym.o)
 .comment       0x0000000000000027       0x28 /usr/lib/gcc/x86_64-unknown-linux-gnu/4.9.2/../../../../lib/libc.a(strncase_l-nonascii.o)
 .comment       0x0000000000000027       0x28 /usr/lib/gcc/x86_64-unknown-linux-gnu/4.9.2/../../../../lib/libc.a(profil.o)
 .comment       0x0000000000000027       0x28 /usr/lib/gcc/x86_64-unknown-linux-gnu/4.9.2/../../../../lib/libc.a(prof-freq.o)
 .comment       0x0000000000000027       0x28 /usr/lib/gcc/x86_64-unknown-linux-gnu/4.9.2/../../../../lib/libc.a(dl-sym.o)
 .comment       0x0000000000000027       0x28 /usr/lib/gcc/x86_64-unknown-linux-gnu/4.9.2/libgcc_eh.a(unwind-dw2.o)
 .comment       0x0000000000000027       0x28 /usr/lib/gcc/x86_64-unknown-linux-gnu/4.9.2/libgcc_eh.a(unwind-dw2-fde-dip.o)
 .comment       0x0000000000000027       0x28 /usr/lib/gcc/x86_64-unknown-linux-gnu/4.9.2/libgcc_eh.a(unwind-c.o)
 .comment       0x0000000000000027       0x28 /usr/lib/gcc/x86_64-unknown-linux-gnu/4.9.2/../../../../lib/libc.a(dl-iteratephdr.o)
 .comment       0x0000000000000027       0x28 /usr/lib/gcc/x86_64-unknown-linux-gnu/4.9.2/crtend.o

.debug
 *(.debug)

.line
 *(.line)

.debug_srcinfo
 *(.debug_srcinfo)

.debug_sfnames
 *(.debug_sfnames)

.debug_aranges
 *(.debug_aranges)

.debug_pubnames
 *(.debug_pubnames)

.debug_info
 *(.debug_info .gnu.linkonce.wi.*)

.debug_abbrev
 *(.debug_abbrev)

.debug_line
 *(.debug_line .debug_line.* .debug_line_end)

.debug_frame
 *(.debug_frame)

.debug_str
 *(.debug_str)

.debug_loc
 *(.debug_loc)

.debug_macinfo
 *(.debug_macinfo)

.debug_weaknames
 *(.debug_weaknames)

.debug_funcnames
 *(.debug_funcnames)

.debug_typenames
 *(.debug_typenames)

.debug_varnames
 *(.debug_varnames)

.debug_pubtypes
 *(.debug_pubtypes)

.debug_ranges
 *(.debug_ranges)

.debug_macro
 *(.debug_macro)

.gnu.attributes
 *(.gnu.attributes)

/DISCARD/
 *(.note.GNU-stack)
 *(.gnu_debuglink)
 *(.gnu.lto_*)
OUTPUT(hello elf64-x86-64)
